ARM GAS  /tmp/ccgaLh4p.s 			page 1


   1              		.syntax unified
   2              		.cpu cortex-m4
   3              		.eabi_attribute 27, 1
   4              		.fpu fpv4-sp-d16
   5              		.eabi_attribute 20, 1
   6              		.eabi_attribute 21, 1
   7              		.eabi_attribute 23, 3
   8              		.eabi_attribute 24, 1
   9              		.eabi_attribute 25, 1
  10              		.eabi_attribute 26, 1
  11              		.eabi_attribute 30, 6
  12              		.eabi_attribute 34, 1
  13              		.eabi_attribute 18, 4
  14              		.thumb
  15              		.syntax unified
  16              		.file	"stm32f3xx_hal_pcd.c"
  17              		.text
  18              	.Ltext0:
  19              		.cfi_sections	.debug_frame
  20              		.section	.text.HAL_PCD_Init,"ax",%progbits
  21              		.align	2
  22              		.global	HAL_PCD_Init
  23              		.thumb
  24              		.thumb_func
  26              	HAL_PCD_Init:
  27              	.LFB112:
  28              		.file 1 "Drivers/STM32F3xx_HAL_Driver/Src/stm32f3xx_hal_pcd.c"
   1:Drivers/STM32F3xx_HAL_Driver/Src/stm32f3xx_hal_pcd.c **** /**
   2:Drivers/STM32F3xx_HAL_Driver/Src/stm32f3xx_hal_pcd.c ****   ******************************************************************************
   3:Drivers/STM32F3xx_HAL_Driver/Src/stm32f3xx_hal_pcd.c ****   * @file    stm32f3xx_hal_pcd.c
   4:Drivers/STM32F3xx_HAL_Driver/Src/stm32f3xx_hal_pcd.c ****   * @author  MCD Application Team
   5:Drivers/STM32F3xx_HAL_Driver/Src/stm32f3xx_hal_pcd.c ****   * @version V1.1.0
   6:Drivers/STM32F3xx_HAL_Driver/Src/stm32f3xx_hal_pcd.c ****   * @date    12-Sept-2014
   7:Drivers/STM32F3xx_HAL_Driver/Src/stm32f3xx_hal_pcd.c ****   * @brief   PCD HAL module driver.
   8:Drivers/STM32F3xx_HAL_Driver/Src/stm32f3xx_hal_pcd.c ****   *          This file provides firmware functions to manage the following 
   9:Drivers/STM32F3xx_HAL_Driver/Src/stm32f3xx_hal_pcd.c ****   *          functionalities of the USB Peripheral Controller:
  10:Drivers/STM32F3xx_HAL_Driver/Src/stm32f3xx_hal_pcd.c ****   *           + Initialization and de-initialization functions
  11:Drivers/STM32F3xx_HAL_Driver/Src/stm32f3xx_hal_pcd.c ****   *           + IO operation functions
  12:Drivers/STM32F3xx_HAL_Driver/Src/stm32f3xx_hal_pcd.c ****   *           + Peripheral Control functions 
  13:Drivers/STM32F3xx_HAL_Driver/Src/stm32f3xx_hal_pcd.c ****   *           + Peripheral State functions
  14:Drivers/STM32F3xx_HAL_Driver/Src/stm32f3xx_hal_pcd.c ****   *         
  15:Drivers/STM32F3xx_HAL_Driver/Src/stm32f3xx_hal_pcd.c ****   @verbatim
  16:Drivers/STM32F3xx_HAL_Driver/Src/stm32f3xx_hal_pcd.c ****   ==============================================================================
  17:Drivers/STM32F3xx_HAL_Driver/Src/stm32f3xx_hal_pcd.c ****                     ##### How to use this driver #####
  18:Drivers/STM32F3xx_HAL_Driver/Src/stm32f3xx_hal_pcd.c ****   ==============================================================================
  19:Drivers/STM32F3xx_HAL_Driver/Src/stm32f3xx_hal_pcd.c ****     [..]
  20:Drivers/STM32F3xx_HAL_Driver/Src/stm32f3xx_hal_pcd.c ****       The PCD HAL driver can be used as follows:
  21:Drivers/STM32F3xx_HAL_Driver/Src/stm32f3xx_hal_pcd.c **** 
  22:Drivers/STM32F3xx_HAL_Driver/Src/stm32f3xx_hal_pcd.c ****      (#) Declare a PCD_HandleTypeDef handle structure, for example:
  23:Drivers/STM32F3xx_HAL_Driver/Src/stm32f3xx_hal_pcd.c ****          PCD_HandleTypeDef  hpcd;
  24:Drivers/STM32F3xx_HAL_Driver/Src/stm32f3xx_hal_pcd.c ****         
  25:Drivers/STM32F3xx_HAL_Driver/Src/stm32f3xx_hal_pcd.c ****      (#) Fill parameters of Init structure in HCD handle
  26:Drivers/STM32F3xx_HAL_Driver/Src/stm32f3xx_hal_pcd.c ****   
  27:Drivers/STM32F3xx_HAL_Driver/Src/stm32f3xx_hal_pcd.c ****      (#) Call HAL_PCD_Init() API to initialize the HCD peripheral (Core, Device core, ...) 
  28:Drivers/STM32F3xx_HAL_Driver/Src/stm32f3xx_hal_pcd.c **** 
  29:Drivers/STM32F3xx_HAL_Driver/Src/stm32f3xx_hal_pcd.c ****      (#) Initialize the PCD low level resources through the HAL_PCD_MspInit() API:
  30:Drivers/STM32F3xx_HAL_Driver/Src/stm32f3xx_hal_pcd.c ****          (##) Enable the PCD/USB Low Level interface clock using 
ARM GAS  /tmp/ccgaLh4p.s 			page 2


  31:Drivers/STM32F3xx_HAL_Driver/Src/stm32f3xx_hal_pcd.c ****               (+++) __USB_CLK_ENABLE);
  32:Drivers/STM32F3xx_HAL_Driver/Src/stm32f3xx_hal_pcd.c ****            
  33:Drivers/STM32F3xx_HAL_Driver/Src/stm32f3xx_hal_pcd.c ****          (##) Initialize the related GPIO clocks
  34:Drivers/STM32F3xx_HAL_Driver/Src/stm32f3xx_hal_pcd.c ****          (##) Configure PCD pin-out
  35:Drivers/STM32F3xx_HAL_Driver/Src/stm32f3xx_hal_pcd.c ****          (##) Configure PCD NVIC interrupt
  36:Drivers/STM32F3xx_HAL_Driver/Src/stm32f3xx_hal_pcd.c ****     
  37:Drivers/STM32F3xx_HAL_Driver/Src/stm32f3xx_hal_pcd.c ****      (#)Associate the Upper USB device stack to the HAL PCD Driver:
  38:Drivers/STM32F3xx_HAL_Driver/Src/stm32f3xx_hal_pcd.c ****          (##) hpcd.pData = pdev;
  39:Drivers/STM32F3xx_HAL_Driver/Src/stm32f3xx_hal_pcd.c **** 
  40:Drivers/STM32F3xx_HAL_Driver/Src/stm32f3xx_hal_pcd.c ****      (#)Enable HCD transmission and reception:
  41:Drivers/STM32F3xx_HAL_Driver/Src/stm32f3xx_hal_pcd.c ****          (##) HAL_PCD_Start();
  42:Drivers/STM32F3xx_HAL_Driver/Src/stm32f3xx_hal_pcd.c **** 
  43:Drivers/STM32F3xx_HAL_Driver/Src/stm32f3xx_hal_pcd.c ****   @endverbatim
  44:Drivers/STM32F3xx_HAL_Driver/Src/stm32f3xx_hal_pcd.c ****   ******************************************************************************
  45:Drivers/STM32F3xx_HAL_Driver/Src/stm32f3xx_hal_pcd.c ****   * @attention
  46:Drivers/STM32F3xx_HAL_Driver/Src/stm32f3xx_hal_pcd.c ****   *
  47:Drivers/STM32F3xx_HAL_Driver/Src/stm32f3xx_hal_pcd.c ****   * <h2><center>&copy; COPYRIGHT(c) 2014 STMicroelectronics</center></h2>
  48:Drivers/STM32F3xx_HAL_Driver/Src/stm32f3xx_hal_pcd.c ****   *
  49:Drivers/STM32F3xx_HAL_Driver/Src/stm32f3xx_hal_pcd.c ****   * Redistribution and use in source and binary forms, with or without modification,
  50:Drivers/STM32F3xx_HAL_Driver/Src/stm32f3xx_hal_pcd.c ****   * are permitted provided that the following conditions are met:
  51:Drivers/STM32F3xx_HAL_Driver/Src/stm32f3xx_hal_pcd.c ****   *   1. Redistributions of source code must retain the above copyright notice,
  52:Drivers/STM32F3xx_HAL_Driver/Src/stm32f3xx_hal_pcd.c ****   *      this list of conditions and the following disclaimer.
  53:Drivers/STM32F3xx_HAL_Driver/Src/stm32f3xx_hal_pcd.c ****   *   2. Redistributions in binary form must reproduce the above copyright notice,
  54:Drivers/STM32F3xx_HAL_Driver/Src/stm32f3xx_hal_pcd.c ****   *      this list of conditions and the following disclaimer in the documentation
  55:Drivers/STM32F3xx_HAL_Driver/Src/stm32f3xx_hal_pcd.c ****   *      and/or other materials provided with the distribution.
  56:Drivers/STM32F3xx_HAL_Driver/Src/stm32f3xx_hal_pcd.c ****   *   3. Neither the name of STMicroelectronics nor the names of its contributors
  57:Drivers/STM32F3xx_HAL_Driver/Src/stm32f3xx_hal_pcd.c ****   *      may be used to endorse or promote products derived from this software
  58:Drivers/STM32F3xx_HAL_Driver/Src/stm32f3xx_hal_pcd.c ****   *      without specific prior written permission.
  59:Drivers/STM32F3xx_HAL_Driver/Src/stm32f3xx_hal_pcd.c ****   *
  60:Drivers/STM32F3xx_HAL_Driver/Src/stm32f3xx_hal_pcd.c ****   * THIS SOFTWARE IS PROVIDED BY THE COPYRIGHT HOLDERS AND CONTRIBUTORS "AS IS"
  61:Drivers/STM32F3xx_HAL_Driver/Src/stm32f3xx_hal_pcd.c ****   * AND ANY EXPRESS OR IMPLIED WARRANTIES, INCLUDING, BUT NOT LIMITED TO, THE
  62:Drivers/STM32F3xx_HAL_Driver/Src/stm32f3xx_hal_pcd.c ****   * IMPLIED WARRANTIES OF MERCHANTABILITY AND FITNESS FOR A PARTICULAR PURPOSE ARE
  63:Drivers/STM32F3xx_HAL_Driver/Src/stm32f3xx_hal_pcd.c ****   * DISCLAIMED. IN NO EVENT SHALL THE COPYRIGHT HOLDER OR CONTRIBUTORS BE LIABLE
  64:Drivers/STM32F3xx_HAL_Driver/Src/stm32f3xx_hal_pcd.c ****   * FOR ANY DIRECT, INDIRECT, INCIDENTAL, SPECIAL, EXEMPLARY, OR CONSEQUENTIAL
  65:Drivers/STM32F3xx_HAL_Driver/Src/stm32f3xx_hal_pcd.c ****   * DAMAGES (INCLUDING, BUT NOT LIMITED TO, PROCUREMENT OF SUBSTITUTE GOODS OR
  66:Drivers/STM32F3xx_HAL_Driver/Src/stm32f3xx_hal_pcd.c ****   * SERVICES; LOSS OF USE, DATA, OR PROFITS; OR BUSINESS INTERRUPTION) HOWEVER
  67:Drivers/STM32F3xx_HAL_Driver/Src/stm32f3xx_hal_pcd.c ****   * CAUSED AND ON ANY THEORY OF LIABILITY, WHETHER IN CONTRACT, STRICT LIABILITY,
  68:Drivers/STM32F3xx_HAL_Driver/Src/stm32f3xx_hal_pcd.c ****   * OR TORT (INCLUDING NEGLIGENCE OR OTHERWISE) ARISING IN ANY WAY OUT OF THE USE
  69:Drivers/STM32F3xx_HAL_Driver/Src/stm32f3xx_hal_pcd.c ****   * OF THIS SOFTWARE, EVEN IF ADVISED OF THE POSSIBILITY OF SUCH DAMAGE.
  70:Drivers/STM32F3xx_HAL_Driver/Src/stm32f3xx_hal_pcd.c ****   *
  71:Drivers/STM32F3xx_HAL_Driver/Src/stm32f3xx_hal_pcd.c ****   ******************************************************************************
  72:Drivers/STM32F3xx_HAL_Driver/Src/stm32f3xx_hal_pcd.c ****   */
  73:Drivers/STM32F3xx_HAL_Driver/Src/stm32f3xx_hal_pcd.c **** 
  74:Drivers/STM32F3xx_HAL_Driver/Src/stm32f3xx_hal_pcd.c **** /* Includes ------------------------------------------------------------------*/
  75:Drivers/STM32F3xx_HAL_Driver/Src/stm32f3xx_hal_pcd.c **** #include "stm32f3xx_hal.h"
  76:Drivers/STM32F3xx_HAL_Driver/Src/stm32f3xx_hal_pcd.c **** 
  77:Drivers/STM32F3xx_HAL_Driver/Src/stm32f3xx_hal_pcd.c **** /** @addtogroup STM32F3xx_HAL_Driver
  78:Drivers/STM32F3xx_HAL_Driver/Src/stm32f3xx_hal_pcd.c ****   * @{
  79:Drivers/STM32F3xx_HAL_Driver/Src/stm32f3xx_hal_pcd.c ****   */
  80:Drivers/STM32F3xx_HAL_Driver/Src/stm32f3xx_hal_pcd.c **** 
  81:Drivers/STM32F3xx_HAL_Driver/Src/stm32f3xx_hal_pcd.c **** /** @defgroup PCD PCD HAL module driver
  82:Drivers/STM32F3xx_HAL_Driver/Src/stm32f3xx_hal_pcd.c ****   * @brief PCD HAL module driver
  83:Drivers/STM32F3xx_HAL_Driver/Src/stm32f3xx_hal_pcd.c ****   * @{
  84:Drivers/STM32F3xx_HAL_Driver/Src/stm32f3xx_hal_pcd.c ****   */
  85:Drivers/STM32F3xx_HAL_Driver/Src/stm32f3xx_hal_pcd.c **** 
  86:Drivers/STM32F3xx_HAL_Driver/Src/stm32f3xx_hal_pcd.c **** #ifdef HAL_PCD_MODULE_ENABLED
  87:Drivers/STM32F3xx_HAL_Driver/Src/stm32f3xx_hal_pcd.c **** 
ARM GAS  /tmp/ccgaLh4p.s 			page 3


  88:Drivers/STM32F3xx_HAL_Driver/Src/stm32f3xx_hal_pcd.c **** #if defined(STM32F302xE) || defined(STM32F303xE) || \
  89:Drivers/STM32F3xx_HAL_Driver/Src/stm32f3xx_hal_pcd.c ****     defined(STM32F302xC) || defined(STM32F303xC) || \
  90:Drivers/STM32F3xx_HAL_Driver/Src/stm32f3xx_hal_pcd.c ****     defined(STM32F302x8)                         || \
  91:Drivers/STM32F3xx_HAL_Driver/Src/stm32f3xx_hal_pcd.c ****     defined(STM32F373xC)
  92:Drivers/STM32F3xx_HAL_Driver/Src/stm32f3xx_hal_pcd.c **** 
  93:Drivers/STM32F3xx_HAL_Driver/Src/stm32f3xx_hal_pcd.c **** /* Private typedef -----------------------------------------------------------*/
  94:Drivers/STM32F3xx_HAL_Driver/Src/stm32f3xx_hal_pcd.c **** /* Private define ------------------------------------------------------------*/
  95:Drivers/STM32F3xx_HAL_Driver/Src/stm32f3xx_hal_pcd.c **** 
  96:Drivers/STM32F3xx_HAL_Driver/Src/stm32f3xx_hal_pcd.c **** /** @defgroup PCD_Private_Define PCD Private Define
  97:Drivers/STM32F3xx_HAL_Driver/Src/stm32f3xx_hal_pcd.c ****   * @{
  98:Drivers/STM32F3xx_HAL_Driver/Src/stm32f3xx_hal_pcd.c ****   */
  99:Drivers/STM32F3xx_HAL_Driver/Src/stm32f3xx_hal_pcd.c **** #define BTABLE_ADDRESS                  (0x000)  
 100:Drivers/STM32F3xx_HAL_Driver/Src/stm32f3xx_hal_pcd.c **** /**
 101:Drivers/STM32F3xx_HAL_Driver/Src/stm32f3xx_hal_pcd.c ****   * @}
 102:Drivers/STM32F3xx_HAL_Driver/Src/stm32f3xx_hal_pcd.c ****   */ 
 103:Drivers/STM32F3xx_HAL_Driver/Src/stm32f3xx_hal_pcd.c ****   
 104:Drivers/STM32F3xx_HAL_Driver/Src/stm32f3xx_hal_pcd.c **** /* Private macro -------------------------------------------------------------*/
 105:Drivers/STM32F3xx_HAL_Driver/Src/stm32f3xx_hal_pcd.c **** /* Private variables ---------------------------------------------------------*/
 106:Drivers/STM32F3xx_HAL_Driver/Src/stm32f3xx_hal_pcd.c **** /* Private function prototypes -----------------------------------------------*/
 107:Drivers/STM32F3xx_HAL_Driver/Src/stm32f3xx_hal_pcd.c **** /** @defgroup PCD_Private_Functions PCD Private Functions
 108:Drivers/STM32F3xx_HAL_Driver/Src/stm32f3xx_hal_pcd.c ****   * @{
 109:Drivers/STM32F3xx_HAL_Driver/Src/stm32f3xx_hal_pcd.c ****   */
 110:Drivers/STM32F3xx_HAL_Driver/Src/stm32f3xx_hal_pcd.c **** static HAL_StatusTypeDef PCD_EP_ISR_Handler(PCD_HandleTypeDef *hpcd);
 111:Drivers/STM32F3xx_HAL_Driver/Src/stm32f3xx_hal_pcd.c **** /**
 112:Drivers/STM32F3xx_HAL_Driver/Src/stm32f3xx_hal_pcd.c ****   * @}
 113:Drivers/STM32F3xx_HAL_Driver/Src/stm32f3xx_hal_pcd.c ****   */ 
 114:Drivers/STM32F3xx_HAL_Driver/Src/stm32f3xx_hal_pcd.c **** /* Exported functions ---------------------------------------------------------*/
 115:Drivers/STM32F3xx_HAL_Driver/Src/stm32f3xx_hal_pcd.c **** 
 116:Drivers/STM32F3xx_HAL_Driver/Src/stm32f3xx_hal_pcd.c **** /** @defgroup PCD_Exported_Functions PCD Exported Functions
 117:Drivers/STM32F3xx_HAL_Driver/Src/stm32f3xx_hal_pcd.c ****   * @{
 118:Drivers/STM32F3xx_HAL_Driver/Src/stm32f3xx_hal_pcd.c ****   */
 119:Drivers/STM32F3xx_HAL_Driver/Src/stm32f3xx_hal_pcd.c **** 
 120:Drivers/STM32F3xx_HAL_Driver/Src/stm32f3xx_hal_pcd.c **** /** @defgroup PCD_Exported_Functions_Group1 Initialization and de-initialization functions 
 121:Drivers/STM32F3xx_HAL_Driver/Src/stm32f3xx_hal_pcd.c ****  *  @brief    Initialization and Configuration functions 
 122:Drivers/STM32F3xx_HAL_Driver/Src/stm32f3xx_hal_pcd.c ****  *
 123:Drivers/STM32F3xx_HAL_Driver/Src/stm32f3xx_hal_pcd.c **** @verbatim
 124:Drivers/STM32F3xx_HAL_Driver/Src/stm32f3xx_hal_pcd.c ****  ===============================================================================
 125:Drivers/STM32F3xx_HAL_Driver/Src/stm32f3xx_hal_pcd.c ****             ##### Initialization and de-initialization functions #####
 126:Drivers/STM32F3xx_HAL_Driver/Src/stm32f3xx_hal_pcd.c ****  ===============================================================================
 127:Drivers/STM32F3xx_HAL_Driver/Src/stm32f3xx_hal_pcd.c ****     [..]  This section provides functions allowing to:
 128:Drivers/STM32F3xx_HAL_Driver/Src/stm32f3xx_hal_pcd.c ****  
 129:Drivers/STM32F3xx_HAL_Driver/Src/stm32f3xx_hal_pcd.c **** @endverbatim
 130:Drivers/STM32F3xx_HAL_Driver/Src/stm32f3xx_hal_pcd.c ****   * @{
 131:Drivers/STM32F3xx_HAL_Driver/Src/stm32f3xx_hal_pcd.c ****   */
 132:Drivers/STM32F3xx_HAL_Driver/Src/stm32f3xx_hal_pcd.c **** 
 133:Drivers/STM32F3xx_HAL_Driver/Src/stm32f3xx_hal_pcd.c **** /**
 134:Drivers/STM32F3xx_HAL_Driver/Src/stm32f3xx_hal_pcd.c ****   * @brief  Initializes the PCD according to the specified
 135:Drivers/STM32F3xx_HAL_Driver/Src/stm32f3xx_hal_pcd.c ****   *         parameters in the PCD_InitTypeDef and create the associated handle.
 136:Drivers/STM32F3xx_HAL_Driver/Src/stm32f3xx_hal_pcd.c ****   * @param  hpcd: PCD handle
 137:Drivers/STM32F3xx_HAL_Driver/Src/stm32f3xx_hal_pcd.c ****   * @retval HAL status
 138:Drivers/STM32F3xx_HAL_Driver/Src/stm32f3xx_hal_pcd.c ****   */
 139:Drivers/STM32F3xx_HAL_Driver/Src/stm32f3xx_hal_pcd.c **** HAL_StatusTypeDef HAL_PCD_Init(PCD_HandleTypeDef *hpcd)
 140:Drivers/STM32F3xx_HAL_Driver/Src/stm32f3xx_hal_pcd.c **** { 
  29              		.loc 1 140 0
  30              		.cfi_startproc
  31              		@ args = 0, pretend = 0, frame = 16
  32              		@ frame_needed = 1, uses_anonymous_args = 0
ARM GAS  /tmp/ccgaLh4p.s 			page 4


  33 0000 80B5     		push	{r7, lr}
  34              	.LCFI0:
  35              		.cfi_def_cfa_offset 8
  36              		.cfi_offset 7, -8
  37              		.cfi_offset 14, -4
  38 0002 84B0     		sub	sp, sp, #16
  39              	.LCFI1:
  40              		.cfi_def_cfa_offset 24
  41 0004 00AF     		add	r7, sp, #0
  42              	.LCFI2:
  43              		.cfi_def_cfa_register 7
  44 0006 7860     		str	r0, [r7, #4]
 141:Drivers/STM32F3xx_HAL_Driver/Src/stm32f3xx_hal_pcd.c ****   uint32_t i = 0;
  45              		.loc 1 141 0
  46 0008 0023     		movs	r3, #0
  47 000a FB60     		str	r3, [r7, #12]
 142:Drivers/STM32F3xx_HAL_Driver/Src/stm32f3xx_hal_pcd.c **** 
 143:Drivers/STM32F3xx_HAL_Driver/Src/stm32f3xx_hal_pcd.c ****   uint32_t wInterrupt_Mask = 0;
  48              		.loc 1 143 0
  49 000c 0023     		movs	r3, #0
  50 000e BB60     		str	r3, [r7, #8]
 144:Drivers/STM32F3xx_HAL_Driver/Src/stm32f3xx_hal_pcd.c ****   
 145:Drivers/STM32F3xx_HAL_Driver/Src/stm32f3xx_hal_pcd.c ****   /* Check the PCD handle allocation */
 146:Drivers/STM32F3xx_HAL_Driver/Src/stm32f3xx_hal_pcd.c ****   if(hpcd == NULL)
  51              		.loc 1 146 0
  52 0010 7B68     		ldr	r3, [r7, #4]
  53 0012 002B     		cmp	r3, #0
  54 0014 01D1     		bne	.L2
 147:Drivers/STM32F3xx_HAL_Driver/Src/stm32f3xx_hal_pcd.c ****   {
 148:Drivers/STM32F3xx_HAL_Driver/Src/stm32f3xx_hal_pcd.c ****     return HAL_ERROR;
  55              		.loc 1 148 0
  56 0016 0123     		movs	r3, #1
  57 0018 C4E0     		b	.L3
  58              	.L2:
 149:Drivers/STM32F3xx_HAL_Driver/Src/stm32f3xx_hal_pcd.c ****   }
 150:Drivers/STM32F3xx_HAL_Driver/Src/stm32f3xx_hal_pcd.c ****   
 151:Drivers/STM32F3xx_HAL_Driver/Src/stm32f3xx_hal_pcd.c ****   /* Check the parameters */
 152:Drivers/STM32F3xx_HAL_Driver/Src/stm32f3xx_hal_pcd.c ****   assert_param(IS_PCD_ALL_INSTANCE(hpcd->Instance));
 153:Drivers/STM32F3xx_HAL_Driver/Src/stm32f3xx_hal_pcd.c **** 
 154:Drivers/STM32F3xx_HAL_Driver/Src/stm32f3xx_hal_pcd.c ****   hpcd->State = PCD_BUSY;
  59              		.loc 1 154 0
  60 001a 7B68     		ldr	r3, [r7, #4]
  61 001c 0222     		movs	r2, #2
  62 001e 83F8E921 		strb	r2, [r3, #489]
 155:Drivers/STM32F3xx_HAL_Driver/Src/stm32f3xx_hal_pcd.c ****   
 156:Drivers/STM32F3xx_HAL_Driver/Src/stm32f3xx_hal_pcd.c ****   /* Init the low level hardware : GPIO, CLOCK, NVIC... */
 157:Drivers/STM32F3xx_HAL_Driver/Src/stm32f3xx_hal_pcd.c ****   HAL_PCD_MspInit(hpcd);
  63              		.loc 1 157 0
  64 0022 7868     		ldr	r0, [r7, #4]
  65 0024 FFF7FEFF 		bl	HAL_PCD_MspInit
 158:Drivers/STM32F3xx_HAL_Driver/Src/stm32f3xx_hal_pcd.c **** 
 159:Drivers/STM32F3xx_HAL_Driver/Src/stm32f3xx_hal_pcd.c ****  /* Init endpoints structures */
 160:Drivers/STM32F3xx_HAL_Driver/Src/stm32f3xx_hal_pcd.c ****  for (i = 0; i < hpcd->Init.dev_endpoints ; i++)
  66              		.loc 1 160 0
  67 0028 0023     		movs	r3, #0
  68 002a FB60     		str	r3, [r7, #12]
  69 002c 40E0     		b	.L4
ARM GAS  /tmp/ccgaLh4p.s 			page 5


  70              	.L5:
 161:Drivers/STM32F3xx_HAL_Driver/Src/stm32f3xx_hal_pcd.c ****  {
 162:Drivers/STM32F3xx_HAL_Driver/Src/stm32f3xx_hal_pcd.c ****    /* Init ep structure */
 163:Drivers/STM32F3xx_HAL_Driver/Src/stm32f3xx_hal_pcd.c ****    hpcd->IN_ep[i].is_in = 1;
  71              		.loc 1 163 0 discriminator 3
  72 002e 7968     		ldr	r1, [r7, #4]
  73 0030 FA68     		ldr	r2, [r7, #12]
  74 0032 1346     		mov	r3, r2
  75 0034 DB00     		lsls	r3, r3, #3
  76 0036 9B1A     		subs	r3, r3, r2
  77 0038 9B00     		lsls	r3, r3, #2
  78 003a 0B44     		add	r3, r3, r1
  79 003c 2933     		adds	r3, r3, #41
  80 003e 0122     		movs	r2, #1
  81 0040 1A70     		strb	r2, [r3]
 164:Drivers/STM32F3xx_HAL_Driver/Src/stm32f3xx_hal_pcd.c ****    hpcd->IN_ep[i].num = i;
  82              		.loc 1 164 0 discriminator 3
  83 0042 FB68     		ldr	r3, [r7, #12]
  84 0044 D8B2     		uxtb	r0, r3
  85 0046 7968     		ldr	r1, [r7, #4]
  86 0048 FA68     		ldr	r2, [r7, #12]
  87 004a 1346     		mov	r3, r2
  88 004c DB00     		lsls	r3, r3, #3
  89 004e 9B1A     		subs	r3, r3, r2
  90 0050 9B00     		lsls	r3, r3, #2
  91 0052 0B44     		add	r3, r3, r1
  92 0054 2833     		adds	r3, r3, #40
  93 0056 0246     		mov	r2, r0
  94 0058 1A70     		strb	r2, [r3]
 165:Drivers/STM32F3xx_HAL_Driver/Src/stm32f3xx_hal_pcd.c ****    /* Control until ep is actvated */
 166:Drivers/STM32F3xx_HAL_Driver/Src/stm32f3xx_hal_pcd.c ****    hpcd->IN_ep[i].type = PCD_EP_TYPE_CTRL;
  95              		.loc 1 166 0 discriminator 3
  96 005a 7968     		ldr	r1, [r7, #4]
  97 005c FA68     		ldr	r2, [r7, #12]
  98 005e 1346     		mov	r3, r2
  99 0060 DB00     		lsls	r3, r3, #3
 100 0062 9B1A     		subs	r3, r3, r2
 101 0064 9B00     		lsls	r3, r3, #2
 102 0066 0B44     		add	r3, r3, r1
 103 0068 2B33     		adds	r3, r3, #43
 104 006a 0022     		movs	r2, #0
 105 006c 1A70     		strb	r2, [r3]
 167:Drivers/STM32F3xx_HAL_Driver/Src/stm32f3xx_hal_pcd.c ****    hpcd->IN_ep[i].maxpacket =  0;
 106              		.loc 1 167 0 discriminator 3
 107 006e 7968     		ldr	r1, [r7, #4]
 108 0070 FA68     		ldr	r2, [r7, #12]
 109 0072 1346     		mov	r3, r2
 110 0074 DB00     		lsls	r3, r3, #3
 111 0076 9B1A     		subs	r3, r3, r2
 112 0078 9B00     		lsls	r3, r3, #2
 113 007a 0B44     		add	r3, r3, r1
 114 007c 3433     		adds	r3, r3, #52
 115 007e 0022     		movs	r2, #0
 116 0080 1A60     		str	r2, [r3]
 168:Drivers/STM32F3xx_HAL_Driver/Src/stm32f3xx_hal_pcd.c ****    hpcd->IN_ep[i].xfer_buff = 0;
 117              		.loc 1 168 0 discriminator 3
 118 0082 7968     		ldr	r1, [r7, #4]
ARM GAS  /tmp/ccgaLh4p.s 			page 6


 119 0084 FA68     		ldr	r2, [r7, #12]
 120 0086 1346     		mov	r3, r2
 121 0088 DB00     		lsls	r3, r3, #3
 122 008a 9B1A     		subs	r3, r3, r2
 123 008c 9B00     		lsls	r3, r3, #2
 124 008e 0B44     		add	r3, r3, r1
 125 0090 3833     		adds	r3, r3, #56
 126 0092 0022     		movs	r2, #0
 127 0094 1A60     		str	r2, [r3]
 169:Drivers/STM32F3xx_HAL_Driver/Src/stm32f3xx_hal_pcd.c ****    hpcd->IN_ep[i].xfer_len = 0;
 128              		.loc 1 169 0 discriminator 3
 129 0096 7968     		ldr	r1, [r7, #4]
 130 0098 FA68     		ldr	r2, [r7, #12]
 131 009a 1346     		mov	r3, r2
 132 009c DB00     		lsls	r3, r3, #3
 133 009e 9B1A     		subs	r3, r3, r2
 134 00a0 9B00     		lsls	r3, r3, #2
 135 00a2 0B44     		add	r3, r3, r1
 136 00a4 3C33     		adds	r3, r3, #60
 137 00a6 0022     		movs	r2, #0
 138 00a8 1A60     		str	r2, [r3]
 160:Drivers/STM32F3xx_HAL_Driver/Src/stm32f3xx_hal_pcd.c ****  {
 139              		.loc 1 160 0 discriminator 3
 140 00aa FB68     		ldr	r3, [r7, #12]
 141 00ac 0133     		adds	r3, r3, #1
 142 00ae FB60     		str	r3, [r7, #12]
 143              	.L4:
 160:Drivers/STM32F3xx_HAL_Driver/Src/stm32f3xx_hal_pcd.c ****  {
 144              		.loc 1 160 0 is_stmt 0 discriminator 1
 145 00b0 7B68     		ldr	r3, [r7, #4]
 146 00b2 5A68     		ldr	r2, [r3, #4]
 147 00b4 FB68     		ldr	r3, [r7, #12]
 148 00b6 9A42     		cmp	r2, r3
 149 00b8 B9D8     		bhi	.L5
 170:Drivers/STM32F3xx_HAL_Driver/Src/stm32f3xx_hal_pcd.c ****  }
 171:Drivers/STM32F3xx_HAL_Driver/Src/stm32f3xx_hal_pcd.c ****  
 172:Drivers/STM32F3xx_HAL_Driver/Src/stm32f3xx_hal_pcd.c ****  for (i = 0; i < hpcd->Init.dev_endpoints ; i++)
 150              		.loc 1 172 0 is_stmt 1
 151 00ba 0023     		movs	r3, #0
 152 00bc FB60     		str	r3, [r7, #12]
 153 00be 46E0     		b	.L6
 154              	.L7:
 173:Drivers/STM32F3xx_HAL_Driver/Src/stm32f3xx_hal_pcd.c ****  {
 174:Drivers/STM32F3xx_HAL_Driver/Src/stm32f3xx_hal_pcd.c ****    hpcd->OUT_ep[i].is_in = 0;
 155              		.loc 1 174 0 discriminator 3
 156 00c0 7968     		ldr	r1, [r7, #4]
 157 00c2 FA68     		ldr	r2, [r7, #12]
 158 00c4 1346     		mov	r3, r2
 159 00c6 DB00     		lsls	r3, r3, #3
 160 00c8 9B1A     		subs	r3, r3, r2
 161 00ca 9B00     		lsls	r3, r3, #2
 162 00cc 0B44     		add	r3, r3, r1
 163 00ce 03F20913 		addw	r3, r3, #265
 164 00d2 0022     		movs	r2, #0
 165 00d4 1A70     		strb	r2, [r3]
 175:Drivers/STM32F3xx_HAL_Driver/Src/stm32f3xx_hal_pcd.c ****    hpcd->OUT_ep[i].num = i;
 166              		.loc 1 175 0 discriminator 3
ARM GAS  /tmp/ccgaLh4p.s 			page 7


 167 00d6 FB68     		ldr	r3, [r7, #12]
 168 00d8 D8B2     		uxtb	r0, r3
 169 00da 7968     		ldr	r1, [r7, #4]
 170 00dc FA68     		ldr	r2, [r7, #12]
 171 00de 1346     		mov	r3, r2
 172 00e0 DB00     		lsls	r3, r3, #3
 173 00e2 9B1A     		subs	r3, r3, r2
 174 00e4 9B00     		lsls	r3, r3, #2
 175 00e6 0B44     		add	r3, r3, r1
 176 00e8 03F58473 		add	r3, r3, #264
 177 00ec 0246     		mov	r2, r0
 178 00ee 1A70     		strb	r2, [r3]
 176:Drivers/STM32F3xx_HAL_Driver/Src/stm32f3xx_hal_pcd.c ****    /* Control until ep is activated */
 177:Drivers/STM32F3xx_HAL_Driver/Src/stm32f3xx_hal_pcd.c ****    hpcd->OUT_ep[i].type = PCD_EP_TYPE_CTRL;
 179              		.loc 1 177 0 discriminator 3
 180 00f0 7968     		ldr	r1, [r7, #4]
 181 00f2 FA68     		ldr	r2, [r7, #12]
 182 00f4 1346     		mov	r3, r2
 183 00f6 DB00     		lsls	r3, r3, #3
 184 00f8 9B1A     		subs	r3, r3, r2
 185 00fa 9B00     		lsls	r3, r3, #2
 186 00fc 0B44     		add	r3, r3, r1
 187 00fe 03F20B13 		addw	r3, r3, #267
 188 0102 0022     		movs	r2, #0
 189 0104 1A70     		strb	r2, [r3]
 178:Drivers/STM32F3xx_HAL_Driver/Src/stm32f3xx_hal_pcd.c ****    hpcd->OUT_ep[i].maxpacket = 0;
 190              		.loc 1 178 0 discriminator 3
 191 0106 7968     		ldr	r1, [r7, #4]
 192 0108 FA68     		ldr	r2, [r7, #12]
 193 010a 1346     		mov	r3, r2
 194 010c DB00     		lsls	r3, r3, #3
 195 010e 9B1A     		subs	r3, r3, r2
 196 0110 9B00     		lsls	r3, r3, #2
 197 0112 0B44     		add	r3, r3, r1
 198 0114 03F58A73 		add	r3, r3, #276
 199 0118 0022     		movs	r2, #0
 200 011a 1A60     		str	r2, [r3]
 179:Drivers/STM32F3xx_HAL_Driver/Src/stm32f3xx_hal_pcd.c ****    hpcd->OUT_ep[i].xfer_buff = 0;
 201              		.loc 1 179 0 discriminator 3
 202 011c 7968     		ldr	r1, [r7, #4]
 203 011e FA68     		ldr	r2, [r7, #12]
 204 0120 1346     		mov	r3, r2
 205 0122 DB00     		lsls	r3, r3, #3
 206 0124 9B1A     		subs	r3, r3, r2
 207 0126 9B00     		lsls	r3, r3, #2
 208 0128 0B44     		add	r3, r3, r1
 209 012a 03F58C73 		add	r3, r3, #280
 210 012e 0022     		movs	r2, #0
 211 0130 1A60     		str	r2, [r3]
 180:Drivers/STM32F3xx_HAL_Driver/Src/stm32f3xx_hal_pcd.c ****    hpcd->OUT_ep[i].xfer_len = 0;
 212              		.loc 1 180 0 discriminator 3
 213 0132 7968     		ldr	r1, [r7, #4]
 214 0134 FA68     		ldr	r2, [r7, #12]
 215 0136 1346     		mov	r3, r2
 216 0138 DB00     		lsls	r3, r3, #3
 217 013a 9B1A     		subs	r3, r3, r2
 218 013c 9B00     		lsls	r3, r3, #2
ARM GAS  /tmp/ccgaLh4p.s 			page 8


 219 013e 0B44     		add	r3, r3, r1
 220 0140 03F58E73 		add	r3, r3, #284
 221 0144 0022     		movs	r2, #0
 222 0146 1A60     		str	r2, [r3]
 172:Drivers/STM32F3xx_HAL_Driver/Src/stm32f3xx_hal_pcd.c ****  {
 223              		.loc 1 172 0 discriminator 3
 224 0148 FB68     		ldr	r3, [r7, #12]
 225 014a 0133     		adds	r3, r3, #1
 226 014c FB60     		str	r3, [r7, #12]
 227              	.L6:
 172:Drivers/STM32F3xx_HAL_Driver/Src/stm32f3xx_hal_pcd.c ****  {
 228              		.loc 1 172 0 is_stmt 0 discriminator 1
 229 014e 7B68     		ldr	r3, [r7, #4]
 230 0150 5A68     		ldr	r2, [r3, #4]
 231 0152 FB68     		ldr	r3, [r7, #12]
 232 0154 9A42     		cmp	r2, r3
 233 0156 B3D8     		bhi	.L7
 181:Drivers/STM32F3xx_HAL_Driver/Src/stm32f3xx_hal_pcd.c ****  }
 182:Drivers/STM32F3xx_HAL_Driver/Src/stm32f3xx_hal_pcd.c ****   
 183:Drivers/STM32F3xx_HAL_Driver/Src/stm32f3xx_hal_pcd.c ****  /* Init Device */
 184:Drivers/STM32F3xx_HAL_Driver/Src/stm32f3xx_hal_pcd.c ****  /*CNTR_FRES = 1*/
 185:Drivers/STM32F3xx_HAL_Driver/Src/stm32f3xx_hal_pcd.c ****  hpcd->Instance->CNTR = USB_CNTR_FRES;
 234              		.loc 1 185 0 is_stmt 1
 235 0158 7B68     		ldr	r3, [r7, #4]
 236 015a 1B68     		ldr	r3, [r3]
 237 015c 0122     		movs	r2, #1
 238 015e A3F84020 		strh	r2, [r3, #64]	@ movhi
 186:Drivers/STM32F3xx_HAL_Driver/Src/stm32f3xx_hal_pcd.c ****  
 187:Drivers/STM32F3xx_HAL_Driver/Src/stm32f3xx_hal_pcd.c ****  /*CNTR_FRES = 0*/
 188:Drivers/STM32F3xx_HAL_Driver/Src/stm32f3xx_hal_pcd.c ****  hpcd->Instance->CNTR = 0;
 239              		.loc 1 188 0
 240 0162 7B68     		ldr	r3, [r7, #4]
 241 0164 1B68     		ldr	r3, [r3]
 242 0166 0022     		movs	r2, #0
 243 0168 A3F84020 		strh	r2, [r3, #64]	@ movhi
 189:Drivers/STM32F3xx_HAL_Driver/Src/stm32f3xx_hal_pcd.c ****  
 190:Drivers/STM32F3xx_HAL_Driver/Src/stm32f3xx_hal_pcd.c ****  /*Clear pending interrupts*/
 191:Drivers/STM32F3xx_HAL_Driver/Src/stm32f3xx_hal_pcd.c ****  hpcd->Instance->ISTR = 0;
 244              		.loc 1 191 0
 245 016c 7B68     		ldr	r3, [r7, #4]
 246 016e 1B68     		ldr	r3, [r3]
 247 0170 0022     		movs	r2, #0
 248 0172 A3F84420 		strh	r2, [r3, #68]	@ movhi
 192:Drivers/STM32F3xx_HAL_Driver/Src/stm32f3xx_hal_pcd.c ****  
 193:Drivers/STM32F3xx_HAL_Driver/Src/stm32f3xx_hal_pcd.c ****   /*Set Btable Adress*/
 194:Drivers/STM32F3xx_HAL_Driver/Src/stm32f3xx_hal_pcd.c ****  hpcd->Instance->BTABLE = BTABLE_ADDRESS;
 249              		.loc 1 194 0
 250 0176 7B68     		ldr	r3, [r7, #4]
 251 0178 1B68     		ldr	r3, [r3]
 252 017a 0022     		movs	r2, #0
 253 017c A3F85020 		strh	r2, [r3, #80]	@ movhi
 195:Drivers/STM32F3xx_HAL_Driver/Src/stm32f3xx_hal_pcd.c ****   
 196:Drivers/STM32F3xx_HAL_Driver/Src/stm32f3xx_hal_pcd.c ****   /*set wInterrupt_Mask global variable*/
 197:Drivers/STM32F3xx_HAL_Driver/Src/stm32f3xx_hal_pcd.c ****   wInterrupt_Mask = USB_CNTR_CTRM  | USB_CNTR_WKUPM | USB_CNTR_SUSPM | USB_CNTR_ERRM \
 254              		.loc 1 197 0
 255 0180 4FF43D43 		mov	r3, #48384
 256 0184 BB60     		str	r3, [r7, #8]
ARM GAS  /tmp/ccgaLh4p.s 			page 9


 198:Drivers/STM32F3xx_HAL_Driver/Src/stm32f3xx_hal_pcd.c ****     | USB_CNTR_ESOFM | USB_CNTR_RESETM;
 199:Drivers/STM32F3xx_HAL_Driver/Src/stm32f3xx_hal_pcd.c ****   
 200:Drivers/STM32F3xx_HAL_Driver/Src/stm32f3xx_hal_pcd.c ****   /*Set interrupt mask*/
 201:Drivers/STM32F3xx_HAL_Driver/Src/stm32f3xx_hal_pcd.c ****   hpcd->Instance->CNTR = wInterrupt_Mask;
 257              		.loc 1 201 0
 258 0186 7B68     		ldr	r3, [r7, #4]
 259 0188 1B68     		ldr	r3, [r3]
 260 018a BA68     		ldr	r2, [r7, #8]
 261 018c 92B2     		uxth	r2, r2
 262 018e A3F84020 		strh	r2, [r3, #64]	@ movhi
 202:Drivers/STM32F3xx_HAL_Driver/Src/stm32f3xx_hal_pcd.c ****   
 203:Drivers/STM32F3xx_HAL_Driver/Src/stm32f3xx_hal_pcd.c ****   hpcd->USB_Address = 0;
 263              		.loc 1 203 0
 264 0192 7B68     		ldr	r3, [r7, #4]
 265 0194 0022     		movs	r2, #0
 266 0196 83F82420 		strb	r2, [r3, #36]
 204:Drivers/STM32F3xx_HAL_Driver/Src/stm32f3xx_hal_pcd.c ****   hpcd->State= PCD_READY;
 267              		.loc 1 204 0
 268 019a 7B68     		ldr	r3, [r7, #4]
 269 019c 0022     		movs	r2, #0
 270 019e 83F8E921 		strb	r2, [r3, #489]
 205:Drivers/STM32F3xx_HAL_Driver/Src/stm32f3xx_hal_pcd.c **** 
 206:Drivers/STM32F3xx_HAL_Driver/Src/stm32f3xx_hal_pcd.c ****  return HAL_OK;
 271              		.loc 1 206 0
 272 01a2 0023     		movs	r3, #0
 273              	.L3:
 207:Drivers/STM32F3xx_HAL_Driver/Src/stm32f3xx_hal_pcd.c **** }
 274              		.loc 1 207 0
 275 01a4 1846     		mov	r0, r3
 276 01a6 1037     		adds	r7, r7, #16
 277              	.LCFI3:
 278              		.cfi_def_cfa_offset 8
 279 01a8 BD46     		mov	sp, r7
 280              	.LCFI4:
 281              		.cfi_def_cfa_register 13
 282              		@ sp needed
 283 01aa 80BD     		pop	{r7, pc}
 284              		.cfi_endproc
 285              	.LFE112:
 287              		.section	.text.HAL_PCD_DeInit,"ax",%progbits
 288              		.align	2
 289              		.global	HAL_PCD_DeInit
 290              		.thumb
 291              		.thumb_func
 293              	HAL_PCD_DeInit:
 294              	.LFB113:
 208:Drivers/STM32F3xx_HAL_Driver/Src/stm32f3xx_hal_pcd.c **** 
 209:Drivers/STM32F3xx_HAL_Driver/Src/stm32f3xx_hal_pcd.c **** /**
 210:Drivers/STM32F3xx_HAL_Driver/Src/stm32f3xx_hal_pcd.c ****   * @brief  DeInitializes the PCD peripheral 
 211:Drivers/STM32F3xx_HAL_Driver/Src/stm32f3xx_hal_pcd.c ****   * @param  hpcd: PCD handle
 212:Drivers/STM32F3xx_HAL_Driver/Src/stm32f3xx_hal_pcd.c ****   * @retval HAL status
 213:Drivers/STM32F3xx_HAL_Driver/Src/stm32f3xx_hal_pcd.c ****   */
 214:Drivers/STM32F3xx_HAL_Driver/Src/stm32f3xx_hal_pcd.c **** HAL_StatusTypeDef HAL_PCD_DeInit(PCD_HandleTypeDef *hpcd)
 215:Drivers/STM32F3xx_HAL_Driver/Src/stm32f3xx_hal_pcd.c **** {
 295              		.loc 1 215 0
 296              		.cfi_startproc
 297              		@ args = 0, pretend = 0, frame = 8
ARM GAS  /tmp/ccgaLh4p.s 			page 10


 298              		@ frame_needed = 1, uses_anonymous_args = 0
 299 0000 80B5     		push	{r7, lr}
 300              	.LCFI5:
 301              		.cfi_def_cfa_offset 8
 302              		.cfi_offset 7, -8
 303              		.cfi_offset 14, -4
 304 0002 82B0     		sub	sp, sp, #8
 305              	.LCFI6:
 306              		.cfi_def_cfa_offset 16
 307 0004 00AF     		add	r7, sp, #0
 308              	.LCFI7:
 309              		.cfi_def_cfa_register 7
 310 0006 7860     		str	r0, [r7, #4]
 216:Drivers/STM32F3xx_HAL_Driver/Src/stm32f3xx_hal_pcd.c ****   /* Check the PCD handle allocation */
 217:Drivers/STM32F3xx_HAL_Driver/Src/stm32f3xx_hal_pcd.c ****   if(hpcd == NULL)
 311              		.loc 1 217 0
 312 0008 7B68     		ldr	r3, [r7, #4]
 313 000a 002B     		cmp	r3, #0
 314 000c 01D1     		bne	.L9
 218:Drivers/STM32F3xx_HAL_Driver/Src/stm32f3xx_hal_pcd.c ****   {
 219:Drivers/STM32F3xx_HAL_Driver/Src/stm32f3xx_hal_pcd.c ****     return HAL_ERROR;
 315              		.loc 1 219 0
 316 000e 0123     		movs	r3, #1
 317 0010 0EE0     		b	.L10
 318              	.L9:
 220:Drivers/STM32F3xx_HAL_Driver/Src/stm32f3xx_hal_pcd.c ****   }
 221:Drivers/STM32F3xx_HAL_Driver/Src/stm32f3xx_hal_pcd.c **** 
 222:Drivers/STM32F3xx_HAL_Driver/Src/stm32f3xx_hal_pcd.c ****   hpcd->State = PCD_BUSY;
 319              		.loc 1 222 0
 320 0012 7B68     		ldr	r3, [r7, #4]
 321 0014 0222     		movs	r2, #2
 322 0016 83F8E921 		strb	r2, [r3, #489]
 223:Drivers/STM32F3xx_HAL_Driver/Src/stm32f3xx_hal_pcd.c ****   
 224:Drivers/STM32F3xx_HAL_Driver/Src/stm32f3xx_hal_pcd.c ****   /* Stop Device */
 225:Drivers/STM32F3xx_HAL_Driver/Src/stm32f3xx_hal_pcd.c ****   HAL_PCD_Stop(hpcd);
 323              		.loc 1 225 0
 324 001a 7868     		ldr	r0, [r7, #4]
 325 001c FFF7FEFF 		bl	HAL_PCD_Stop
 226:Drivers/STM32F3xx_HAL_Driver/Src/stm32f3xx_hal_pcd.c ****     
 227:Drivers/STM32F3xx_HAL_Driver/Src/stm32f3xx_hal_pcd.c ****   /* DeInit the low level hardware */
 228:Drivers/STM32F3xx_HAL_Driver/Src/stm32f3xx_hal_pcd.c ****   HAL_PCD_MspDeInit(hpcd);
 326              		.loc 1 228 0
 327 0020 7868     		ldr	r0, [r7, #4]
 328 0022 FFF7FEFF 		bl	HAL_PCD_MspDeInit
 229:Drivers/STM32F3xx_HAL_Driver/Src/stm32f3xx_hal_pcd.c ****   
 230:Drivers/STM32F3xx_HAL_Driver/Src/stm32f3xx_hal_pcd.c ****   hpcd->State = PCD_READY; 
 329              		.loc 1 230 0
 330 0026 7B68     		ldr	r3, [r7, #4]
 331 0028 0022     		movs	r2, #0
 332 002a 83F8E921 		strb	r2, [r3, #489]
 231:Drivers/STM32F3xx_HAL_Driver/Src/stm32f3xx_hal_pcd.c ****   
 232:Drivers/STM32F3xx_HAL_Driver/Src/stm32f3xx_hal_pcd.c ****   return HAL_OK;
 333              		.loc 1 232 0
 334 002e 0023     		movs	r3, #0
 335              	.L10:
 233:Drivers/STM32F3xx_HAL_Driver/Src/stm32f3xx_hal_pcd.c **** }
 336              		.loc 1 233 0
ARM GAS  /tmp/ccgaLh4p.s 			page 11


 337 0030 1846     		mov	r0, r3
 338 0032 0837     		adds	r7, r7, #8
 339              	.LCFI8:
 340              		.cfi_def_cfa_offset 8
 341 0034 BD46     		mov	sp, r7
 342              	.LCFI9:
 343              		.cfi_def_cfa_register 13
 344              		@ sp needed
 345 0036 80BD     		pop	{r7, pc}
 346              		.cfi_endproc
 347              	.LFE113:
 349              		.section	.text.HAL_PCD_MspInit,"ax",%progbits
 350              		.align	2
 351              		.weak	HAL_PCD_MspInit
 352              		.thumb
 353              		.thumb_func
 355              	HAL_PCD_MspInit:
 356              	.LFB114:
 234:Drivers/STM32F3xx_HAL_Driver/Src/stm32f3xx_hal_pcd.c **** 
 235:Drivers/STM32F3xx_HAL_Driver/Src/stm32f3xx_hal_pcd.c **** /**
 236:Drivers/STM32F3xx_HAL_Driver/Src/stm32f3xx_hal_pcd.c ****   * @brief  Initializes the PCD MSP.
 237:Drivers/STM32F3xx_HAL_Driver/Src/stm32f3xx_hal_pcd.c ****   * @param  hpcd: PCD handle
 238:Drivers/STM32F3xx_HAL_Driver/Src/stm32f3xx_hal_pcd.c ****   * @retval None
 239:Drivers/STM32F3xx_HAL_Driver/Src/stm32f3xx_hal_pcd.c ****   */
 240:Drivers/STM32F3xx_HAL_Driver/Src/stm32f3xx_hal_pcd.c **** __weak void HAL_PCD_MspInit(PCD_HandleTypeDef *hpcd)
 241:Drivers/STM32F3xx_HAL_Driver/Src/stm32f3xx_hal_pcd.c **** {
 357              		.loc 1 241 0
 358              		.cfi_startproc
 359              		@ args = 0, pretend = 0, frame = 8
 360              		@ frame_needed = 1, uses_anonymous_args = 0
 361              		@ link register save eliminated.
 362 0000 80B4     		push	{r7}
 363              	.LCFI10:
 364              		.cfi_def_cfa_offset 4
 365              		.cfi_offset 7, -4
 366 0002 83B0     		sub	sp, sp, #12
 367              	.LCFI11:
 368              		.cfi_def_cfa_offset 16
 369 0004 00AF     		add	r7, sp, #0
 370              	.LCFI12:
 371              		.cfi_def_cfa_register 7
 372 0006 7860     		str	r0, [r7, #4]
 242:Drivers/STM32F3xx_HAL_Driver/Src/stm32f3xx_hal_pcd.c ****   /* NOTE : This function Should not be modified, when the callback is needed,
 243:Drivers/STM32F3xx_HAL_Driver/Src/stm32f3xx_hal_pcd.c ****             the HAL_PCD_MspInit could be implenetd in the user file
 244:Drivers/STM32F3xx_HAL_Driver/Src/stm32f3xx_hal_pcd.c ****    */
 245:Drivers/STM32F3xx_HAL_Driver/Src/stm32f3xx_hal_pcd.c **** }
 373              		.loc 1 245 0
 374 0008 00BF     		nop
 375 000a 0C37     		adds	r7, r7, #12
 376              	.LCFI13:
 377              		.cfi_def_cfa_offset 4
 378 000c BD46     		mov	sp, r7
 379              	.LCFI14:
 380              		.cfi_def_cfa_register 13
 381              		@ sp needed
 382 000e 5DF8047B 		ldr	r7, [sp], #4
 383              	.LCFI15:
ARM GAS  /tmp/ccgaLh4p.s 			page 12


 384              		.cfi_restore 7
 385              		.cfi_def_cfa_offset 0
 386 0012 7047     		bx	lr
 387              		.cfi_endproc
 388              	.LFE114:
 390              		.section	.text.HAL_PCD_MspDeInit,"ax",%progbits
 391              		.align	2
 392              		.weak	HAL_PCD_MspDeInit
 393              		.thumb
 394              		.thumb_func
 396              	HAL_PCD_MspDeInit:
 397              	.LFB115:
 246:Drivers/STM32F3xx_HAL_Driver/Src/stm32f3xx_hal_pcd.c **** 
 247:Drivers/STM32F3xx_HAL_Driver/Src/stm32f3xx_hal_pcd.c **** /**
 248:Drivers/STM32F3xx_HAL_Driver/Src/stm32f3xx_hal_pcd.c ****   * @brief  DeInitializes PCD MSP.
 249:Drivers/STM32F3xx_HAL_Driver/Src/stm32f3xx_hal_pcd.c ****   * @param  hpcd: PCD handle
 250:Drivers/STM32F3xx_HAL_Driver/Src/stm32f3xx_hal_pcd.c ****   * @retval None
 251:Drivers/STM32F3xx_HAL_Driver/Src/stm32f3xx_hal_pcd.c ****   */
 252:Drivers/STM32F3xx_HAL_Driver/Src/stm32f3xx_hal_pcd.c **** __weak void HAL_PCD_MspDeInit(PCD_HandleTypeDef *hpcd)
 253:Drivers/STM32F3xx_HAL_Driver/Src/stm32f3xx_hal_pcd.c **** {
 398              		.loc 1 253 0
 399              		.cfi_startproc
 400              		@ args = 0, pretend = 0, frame = 8
 401              		@ frame_needed = 1, uses_anonymous_args = 0
 402              		@ link register save eliminated.
 403 0000 80B4     		push	{r7}
 404              	.LCFI16:
 405              		.cfi_def_cfa_offset 4
 406              		.cfi_offset 7, -4
 407 0002 83B0     		sub	sp, sp, #12
 408              	.LCFI17:
 409              		.cfi_def_cfa_offset 16
 410 0004 00AF     		add	r7, sp, #0
 411              	.LCFI18:
 412              		.cfi_def_cfa_register 7
 413 0006 7860     		str	r0, [r7, #4]
 254:Drivers/STM32F3xx_HAL_Driver/Src/stm32f3xx_hal_pcd.c ****   /* NOTE : This function Should not be modified, when the callback is needed,
 255:Drivers/STM32F3xx_HAL_Driver/Src/stm32f3xx_hal_pcd.c ****             the HAL_PCD_MspDeInit could be implenetd in the user file
 256:Drivers/STM32F3xx_HAL_Driver/Src/stm32f3xx_hal_pcd.c ****    */
 257:Drivers/STM32F3xx_HAL_Driver/Src/stm32f3xx_hal_pcd.c **** }
 414              		.loc 1 257 0
 415 0008 00BF     		nop
 416 000a 0C37     		adds	r7, r7, #12
 417              	.LCFI19:
 418              		.cfi_def_cfa_offset 4
 419 000c BD46     		mov	sp, r7
 420              	.LCFI20:
 421              		.cfi_def_cfa_register 13
 422              		@ sp needed
 423 000e 5DF8047B 		ldr	r7, [sp], #4
 424              	.LCFI21:
 425              		.cfi_restore 7
 426              		.cfi_def_cfa_offset 0
 427 0012 7047     		bx	lr
 428              		.cfi_endproc
 429              	.LFE115:
 431              		.section	.text.HAL_PCD_Start,"ax",%progbits
ARM GAS  /tmp/ccgaLh4p.s 			page 13


 432              		.align	2
 433              		.global	HAL_PCD_Start
 434              		.thumb
 435              		.thumb_func
 437              	HAL_PCD_Start:
 438              	.LFB116:
 258:Drivers/STM32F3xx_HAL_Driver/Src/stm32f3xx_hal_pcd.c **** 
 259:Drivers/STM32F3xx_HAL_Driver/Src/stm32f3xx_hal_pcd.c **** /**
 260:Drivers/STM32F3xx_HAL_Driver/Src/stm32f3xx_hal_pcd.c ****   * @}
 261:Drivers/STM32F3xx_HAL_Driver/Src/stm32f3xx_hal_pcd.c ****   */
 262:Drivers/STM32F3xx_HAL_Driver/Src/stm32f3xx_hal_pcd.c **** 
 263:Drivers/STM32F3xx_HAL_Driver/Src/stm32f3xx_hal_pcd.c **** /** @defgroup PCD_Exported_Functions_Group2 Input and Output operation functions 
 264:Drivers/STM32F3xx_HAL_Driver/Src/stm32f3xx_hal_pcd.c ****  *  @brief   Data transfers functions 
 265:Drivers/STM32F3xx_HAL_Driver/Src/stm32f3xx_hal_pcd.c ****  *
 266:Drivers/STM32F3xx_HAL_Driver/Src/stm32f3xx_hal_pcd.c **** @verbatim   
 267:Drivers/STM32F3xx_HAL_Driver/Src/stm32f3xx_hal_pcd.c ****  ===============================================================================
 268:Drivers/STM32F3xx_HAL_Driver/Src/stm32f3xx_hal_pcd.c ****                       ##### IO operation functions #####
 269:Drivers/STM32F3xx_HAL_Driver/Src/stm32f3xx_hal_pcd.c ****  ===============================================================================  
 270:Drivers/STM32F3xx_HAL_Driver/Src/stm32f3xx_hal_pcd.c ****     [..]
 271:Drivers/STM32F3xx_HAL_Driver/Src/stm32f3xx_hal_pcd.c ****     This subsection provides a set of functions allowing to manage the PCD data 
 272:Drivers/STM32F3xx_HAL_Driver/Src/stm32f3xx_hal_pcd.c ****     transfers.
 273:Drivers/STM32F3xx_HAL_Driver/Src/stm32f3xx_hal_pcd.c **** 
 274:Drivers/STM32F3xx_HAL_Driver/Src/stm32f3xx_hal_pcd.c **** @endverbatim
 275:Drivers/STM32F3xx_HAL_Driver/Src/stm32f3xx_hal_pcd.c ****   * @{
 276:Drivers/STM32F3xx_HAL_Driver/Src/stm32f3xx_hal_pcd.c ****   */
 277:Drivers/STM32F3xx_HAL_Driver/Src/stm32f3xx_hal_pcd.c ****   
 278:Drivers/STM32F3xx_HAL_Driver/Src/stm32f3xx_hal_pcd.c **** /**
 279:Drivers/STM32F3xx_HAL_Driver/Src/stm32f3xx_hal_pcd.c ****   * @brief  Start The USB OTG Device.
 280:Drivers/STM32F3xx_HAL_Driver/Src/stm32f3xx_hal_pcd.c ****   * @param  hpcd: PCD handle
 281:Drivers/STM32F3xx_HAL_Driver/Src/stm32f3xx_hal_pcd.c ****   * @retval HAL status
 282:Drivers/STM32F3xx_HAL_Driver/Src/stm32f3xx_hal_pcd.c ****   */
 283:Drivers/STM32F3xx_HAL_Driver/Src/stm32f3xx_hal_pcd.c **** HAL_StatusTypeDef HAL_PCD_Start(PCD_HandleTypeDef *hpcd)
 284:Drivers/STM32F3xx_HAL_Driver/Src/stm32f3xx_hal_pcd.c **** { 
 439              		.loc 1 284 0
 440              		.cfi_startproc
 441              		@ args = 0, pretend = 0, frame = 8
 442              		@ frame_needed = 1, uses_anonymous_args = 0
 443 0000 80B5     		push	{r7, lr}
 444              	.LCFI22:
 445              		.cfi_def_cfa_offset 8
 446              		.cfi_offset 7, -8
 447              		.cfi_offset 14, -4
 448 0002 82B0     		sub	sp, sp, #8
 449              	.LCFI23:
 450              		.cfi_def_cfa_offset 16
 451 0004 00AF     		add	r7, sp, #0
 452              	.LCFI24:
 453              		.cfi_def_cfa_register 7
 454 0006 7860     		str	r0, [r7, #4]
 285:Drivers/STM32F3xx_HAL_Driver/Src/stm32f3xx_hal_pcd.c ****   /*  DP Pull-Down is external */
 286:Drivers/STM32F3xx_HAL_Driver/Src/stm32f3xx_hal_pcd.c ****   HAL_PCDEx_SetConnectionState (hpcd, 1);
 455              		.loc 1 286 0
 456 0008 0121     		movs	r1, #1
 457 000a 7868     		ldr	r0, [r7, #4]
 458 000c FFF7FEFF 		bl	HAL_PCDEx_SetConnectionState
 287:Drivers/STM32F3xx_HAL_Driver/Src/stm32f3xx_hal_pcd.c ****   
 288:Drivers/STM32F3xx_HAL_Driver/Src/stm32f3xx_hal_pcd.c ****   return HAL_OK;
ARM GAS  /tmp/ccgaLh4p.s 			page 14


 459              		.loc 1 288 0
 460 0010 0023     		movs	r3, #0
 289:Drivers/STM32F3xx_HAL_Driver/Src/stm32f3xx_hal_pcd.c **** }
 461              		.loc 1 289 0
 462 0012 1846     		mov	r0, r3
 463 0014 0837     		adds	r7, r7, #8
 464              	.LCFI25:
 465              		.cfi_def_cfa_offset 8
 466 0016 BD46     		mov	sp, r7
 467              	.LCFI26:
 468              		.cfi_def_cfa_register 13
 469              		@ sp needed
 470 0018 80BD     		pop	{r7, pc}
 471              		.cfi_endproc
 472              	.LFE116:
 474 001a 00BF     		.section	.text.HAL_PCD_Stop,"ax",%progbits
 475              		.align	2
 476              		.global	HAL_PCD_Stop
 477              		.thumb
 478              		.thumb_func
 480              	HAL_PCD_Stop:
 481              	.LFB117:
 290:Drivers/STM32F3xx_HAL_Driver/Src/stm32f3xx_hal_pcd.c **** 
 291:Drivers/STM32F3xx_HAL_Driver/Src/stm32f3xx_hal_pcd.c **** /**
 292:Drivers/STM32F3xx_HAL_Driver/Src/stm32f3xx_hal_pcd.c ****   * @brief  Stop The USB OTG Device.
 293:Drivers/STM32F3xx_HAL_Driver/Src/stm32f3xx_hal_pcd.c ****   * @param  hpcd: PCD handle
 294:Drivers/STM32F3xx_HAL_Driver/Src/stm32f3xx_hal_pcd.c ****   * @retval HAL status
 295:Drivers/STM32F3xx_HAL_Driver/Src/stm32f3xx_hal_pcd.c ****   */
 296:Drivers/STM32F3xx_HAL_Driver/Src/stm32f3xx_hal_pcd.c **** HAL_StatusTypeDef HAL_PCD_Stop(PCD_HandleTypeDef *hpcd)
 297:Drivers/STM32F3xx_HAL_Driver/Src/stm32f3xx_hal_pcd.c **** { 
 482              		.loc 1 297 0
 483              		.cfi_startproc
 484              		@ args = 0, pretend = 0, frame = 8
 485              		@ frame_needed = 1, uses_anonymous_args = 0
 486              		@ link register save eliminated.
 487 0000 80B4     		push	{r7}
 488              	.LCFI27:
 489              		.cfi_def_cfa_offset 4
 490              		.cfi_offset 7, -4
 491 0002 83B0     		sub	sp, sp, #12
 492              	.LCFI28:
 493              		.cfi_def_cfa_offset 16
 494 0004 00AF     		add	r7, sp, #0
 495              	.LCFI29:
 496              		.cfi_def_cfa_register 7
 497 0006 7860     		str	r0, [r7, #4]
 298:Drivers/STM32F3xx_HAL_Driver/Src/stm32f3xx_hal_pcd.c ****   __HAL_LOCK(hpcd); 
 498              		.loc 1 298 0
 499 0008 7B68     		ldr	r3, [r7, #4]
 500 000a 93F8E831 		ldrb	r3, [r3, #488]	@ zero_extendqisi2
 501 000e 012B     		cmp	r3, #1
 502 0010 01D1     		bne	.L16
 503              		.loc 1 298 0 is_stmt 0 discriminator 1
 504 0012 0223     		movs	r3, #2
 505 0014 17E0     		b	.L17
 506              	.L16:
 507              		.loc 1 298 0 discriminator 2
ARM GAS  /tmp/ccgaLh4p.s 			page 15


 508 0016 7B68     		ldr	r3, [r7, #4]
 509 0018 0122     		movs	r2, #1
 510 001a 83F8E821 		strb	r2, [r3, #488]
 299:Drivers/STM32F3xx_HAL_Driver/Src/stm32f3xx_hal_pcd.c ****   
 300:Drivers/STM32F3xx_HAL_Driver/Src/stm32f3xx_hal_pcd.c ****     /* disable all interrupts and force USB reset */
 301:Drivers/STM32F3xx_HAL_Driver/Src/stm32f3xx_hal_pcd.c ****   hpcd->Instance->CNTR = USB_CNTR_FRES;
 511              		.loc 1 301 0 is_stmt 1 discriminator 2
 512 001e 7B68     		ldr	r3, [r7, #4]
 513 0020 1B68     		ldr	r3, [r3]
 514 0022 0122     		movs	r2, #1
 515 0024 A3F84020 		strh	r2, [r3, #64]	@ movhi
 302:Drivers/STM32F3xx_HAL_Driver/Src/stm32f3xx_hal_pcd.c ****   
 303:Drivers/STM32F3xx_HAL_Driver/Src/stm32f3xx_hal_pcd.c ****   /* clear interrupt status register */
 304:Drivers/STM32F3xx_HAL_Driver/Src/stm32f3xx_hal_pcd.c ****   hpcd->Instance->ISTR = 0;
 516              		.loc 1 304 0 discriminator 2
 517 0028 7B68     		ldr	r3, [r7, #4]
 518 002a 1B68     		ldr	r3, [r3]
 519 002c 0022     		movs	r2, #0
 520 002e A3F84420 		strh	r2, [r3, #68]	@ movhi
 305:Drivers/STM32F3xx_HAL_Driver/Src/stm32f3xx_hal_pcd.c ****   
 306:Drivers/STM32F3xx_HAL_Driver/Src/stm32f3xx_hal_pcd.c ****   /* switch-off device */
 307:Drivers/STM32F3xx_HAL_Driver/Src/stm32f3xx_hal_pcd.c ****   hpcd->Instance->CNTR = (USB_CNTR_FRES | USB_CNTR_PDWN);
 521              		.loc 1 307 0 discriminator 2
 522 0032 7B68     		ldr	r3, [r7, #4]
 523 0034 1B68     		ldr	r3, [r3]
 524 0036 0322     		movs	r2, #3
 525 0038 A3F84020 		strh	r2, [r3, #64]	@ movhi
 308:Drivers/STM32F3xx_HAL_Driver/Src/stm32f3xx_hal_pcd.c ****   
 309:Drivers/STM32F3xx_HAL_Driver/Src/stm32f3xx_hal_pcd.c ****   __HAL_UNLOCK(hpcd); 
 526              		.loc 1 309 0 discriminator 2
 527 003c 7B68     		ldr	r3, [r7, #4]
 528 003e 0022     		movs	r2, #0
 529 0040 83F8E821 		strb	r2, [r3, #488]
 310:Drivers/STM32F3xx_HAL_Driver/Src/stm32f3xx_hal_pcd.c ****   return HAL_OK;
 530              		.loc 1 310 0 discriminator 2
 531 0044 0023     		movs	r3, #0
 532              	.L17:
 311:Drivers/STM32F3xx_HAL_Driver/Src/stm32f3xx_hal_pcd.c **** }
 533              		.loc 1 311 0
 534 0046 1846     		mov	r0, r3
 535 0048 0C37     		adds	r7, r7, #12
 536              	.LCFI30:
 537              		.cfi_def_cfa_offset 4
 538 004a BD46     		mov	sp, r7
 539              	.LCFI31:
 540              		.cfi_def_cfa_register 13
 541              		@ sp needed
 542 004c 5DF8047B 		ldr	r7, [sp], #4
 543              	.LCFI32:
 544              		.cfi_restore 7
 545              		.cfi_def_cfa_offset 0
 546 0050 7047     		bx	lr
 547              		.cfi_endproc
 548              	.LFE117:
 550 0052 00BF     		.section	.text.PCD_EP_ISR_Handler,"ax",%progbits
 551              		.align	2
 552              		.thumb
ARM GAS  /tmp/ccgaLh4p.s 			page 16


 553              		.thumb_func
 555              	PCD_EP_ISR_Handler:
 556              	.LFB118:
 312:Drivers/STM32F3xx_HAL_Driver/Src/stm32f3xx_hal_pcd.c **** /**
 313:Drivers/STM32F3xx_HAL_Driver/Src/stm32f3xx_hal_pcd.c ****   * @}
 314:Drivers/STM32F3xx_HAL_Driver/Src/stm32f3xx_hal_pcd.c ****   */
 315:Drivers/STM32F3xx_HAL_Driver/Src/stm32f3xx_hal_pcd.c ****   
 316:Drivers/STM32F3xx_HAL_Driver/Src/stm32f3xx_hal_pcd.c **** /**
 317:Drivers/STM32F3xx_HAL_Driver/Src/stm32f3xx_hal_pcd.c ****   * @}
 318:Drivers/STM32F3xx_HAL_Driver/Src/stm32f3xx_hal_pcd.c ****   */  
 319:Drivers/STM32F3xx_HAL_Driver/Src/stm32f3xx_hal_pcd.c **** 
 320:Drivers/STM32F3xx_HAL_Driver/Src/stm32f3xx_hal_pcd.c **** /** @addtogroup PCD_Private_Functions PCD Private Functions
 321:Drivers/STM32F3xx_HAL_Driver/Src/stm32f3xx_hal_pcd.c ****   * @{
 322:Drivers/STM32F3xx_HAL_Driver/Src/stm32f3xx_hal_pcd.c ****   */
 323:Drivers/STM32F3xx_HAL_Driver/Src/stm32f3xx_hal_pcd.c **** /**
 324:Drivers/STM32F3xx_HAL_Driver/Src/stm32f3xx_hal_pcd.c ****   * @brief  This function handles PCD Endpoint interrupt request.
 325:Drivers/STM32F3xx_HAL_Driver/Src/stm32f3xx_hal_pcd.c ****   * @param  hpcd: PCD handle
 326:Drivers/STM32F3xx_HAL_Driver/Src/stm32f3xx_hal_pcd.c ****   * @retval HAL status
 327:Drivers/STM32F3xx_HAL_Driver/Src/stm32f3xx_hal_pcd.c ****   */
 328:Drivers/STM32F3xx_HAL_Driver/Src/stm32f3xx_hal_pcd.c **** static HAL_StatusTypeDef PCD_EP_ISR_Handler(PCD_HandleTypeDef *hpcd)
 329:Drivers/STM32F3xx_HAL_Driver/Src/stm32f3xx_hal_pcd.c **** {
 557              		.loc 1 329 0
 558              		.cfi_startproc
 559              		@ args = 0, pretend = 0, frame = 32
 560              		@ frame_needed = 1, uses_anonymous_args = 0
 561 0000 90B5     		push	{r4, r7, lr}
 562              	.LCFI33:
 563              		.cfi_def_cfa_offset 12
 564              		.cfi_offset 4, -12
 565              		.cfi_offset 7, -8
 566              		.cfi_offset 14, -4
 567 0002 89B0     		sub	sp, sp, #36
 568              	.LCFI34:
 569              		.cfi_def_cfa_offset 48
 570 0004 00AF     		add	r7, sp, #0
 571              	.LCFI35:
 572              		.cfi_def_cfa_register 7
 573 0006 7860     		str	r0, [r7, #4]
 330:Drivers/STM32F3xx_HAL_Driver/Src/stm32f3xx_hal_pcd.c ****   PCD_EPTypeDef *ep;
 331:Drivers/STM32F3xx_HAL_Driver/Src/stm32f3xx_hal_pcd.c ****   uint16_t count=0;
 574              		.loc 1 331 0
 575 0008 0023     		movs	r3, #0
 576 000a FB83     		strh	r3, [r7, #30]	@ movhi
 332:Drivers/STM32F3xx_HAL_Driver/Src/stm32f3xx_hal_pcd.c ****   uint8_t EPindex;
 333:Drivers/STM32F3xx_HAL_Driver/Src/stm32f3xx_hal_pcd.c ****   __IO uint16_t wIstr;  
 334:Drivers/STM32F3xx_HAL_Driver/Src/stm32f3xx_hal_pcd.c ****   __IO uint16_t wEPVal = 0;
 577              		.loc 1 334 0
 578 000c 0023     		movs	r3, #0
 579 000e BB81     		strh	r3, [r7, #12]	@ movhi
 335:Drivers/STM32F3xx_HAL_Driver/Src/stm32f3xx_hal_pcd.c ****   
 336:Drivers/STM32F3xx_HAL_Driver/Src/stm32f3xx_hal_pcd.c ****   /* stay in loop while pending interrupts */
 337:Drivers/STM32F3xx_HAL_Driver/Src/stm32f3xx_hal_pcd.c ****   while (((wIstr = hpcd->Instance->ISTR) & USB_ISTR_CTR) != 0)
 580              		.loc 1 337 0
 581 0010 25E3     		b	.L19
 582              	.L46:
 338:Drivers/STM32F3xx_HAL_Driver/Src/stm32f3xx_hal_pcd.c ****   {
 339:Drivers/STM32F3xx_HAL_Driver/Src/stm32f3xx_hal_pcd.c ****     /* extract highest priority endpoint number */
ARM GAS  /tmp/ccgaLh4p.s 			page 17


 340:Drivers/STM32F3xx_HAL_Driver/Src/stm32f3xx_hal_pcd.c ****     EPindex = (uint8_t)(wIstr & USB_ISTR_EP_ID);
 583              		.loc 1 340 0
 584 0012 FB89     		ldrh	r3, [r7, #14]	@ movhi
 585 0014 9BB2     		uxth	r3, r3
 586 0016 DBB2     		uxtb	r3, r3
 587 0018 03F00F03 		and	r3, r3, #15
 588 001c FB76     		strb	r3, [r7, #27]
 341:Drivers/STM32F3xx_HAL_Driver/Src/stm32f3xx_hal_pcd.c ****     
 342:Drivers/STM32F3xx_HAL_Driver/Src/stm32f3xx_hal_pcd.c ****     if (EPindex == 0)
 589              		.loc 1 342 0
 590 001e FB7E     		ldrb	r3, [r7, #27]	@ zero_extendqisi2
 591 0020 002B     		cmp	r3, #0
 592 0022 40F02D81 		bne	.L20
 343:Drivers/STM32F3xx_HAL_Driver/Src/stm32f3xx_hal_pcd.c ****     {
 344:Drivers/STM32F3xx_HAL_Driver/Src/stm32f3xx_hal_pcd.c ****       /* Decode and service control endpoint interrupt */
 345:Drivers/STM32F3xx_HAL_Driver/Src/stm32f3xx_hal_pcd.c ****       
 346:Drivers/STM32F3xx_HAL_Driver/Src/stm32f3xx_hal_pcd.c ****       /* DIR bit = origin of the interrupt */   
 347:Drivers/STM32F3xx_HAL_Driver/Src/stm32f3xx_hal_pcd.c ****       if ((wIstr & USB_ISTR_DIR) == 0)
 593              		.loc 1 347 0
 594 0026 FB89     		ldrh	r3, [r7, #14]	@ movhi
 595 0028 9BB2     		uxth	r3, r3
 596 002a 03F01003 		and	r3, r3, #16
 597 002e 002B     		cmp	r3, #0
 598 0030 4DD1     		bne	.L21
 348:Drivers/STM32F3xx_HAL_Driver/Src/stm32f3xx_hal_pcd.c ****       {
 349:Drivers/STM32F3xx_HAL_Driver/Src/stm32f3xx_hal_pcd.c ****         /* DIR = 0 */
 350:Drivers/STM32F3xx_HAL_Driver/Src/stm32f3xx_hal_pcd.c ****         
 351:Drivers/STM32F3xx_HAL_Driver/Src/stm32f3xx_hal_pcd.c ****         /* DIR = 0      => IN  int */
 352:Drivers/STM32F3xx_HAL_Driver/Src/stm32f3xx_hal_pcd.c ****         /* DIR = 0 implies that (EP_CTR_TX = 1) always  */
 353:Drivers/STM32F3xx_HAL_Driver/Src/stm32f3xx_hal_pcd.c ****         PCD_CLEAR_TX_EP_CTR(hpcd->Instance, PCD_ENDP0);
 599              		.loc 1 353 0
 600 0032 7B68     		ldr	r3, [r7, #4]
 601 0034 1A68     		ldr	r2, [r3]
 602 0036 7B68     		ldr	r3, [r7, #4]
 603 0038 1B68     		ldr	r3, [r3]
 604 003a 1B88     		ldrh	r3, [r3]	@ movhi
 605 003c 9BB2     		uxth	r3, r3
 606 003e 23F4E143 		bic	r3, r3, #28800
 607 0042 23F07003 		bic	r3, r3, #112
 608 0046 9BB2     		uxth	r3, r3
 609 0048 1380     		strh	r3, [r2]	@ movhi
 354:Drivers/STM32F3xx_HAL_Driver/Src/stm32f3xx_hal_pcd.c ****         ep = &hpcd->IN_ep[0];
 610              		.loc 1 354 0
 611 004a 7B68     		ldr	r3, [r7, #4]
 612 004c 2833     		adds	r3, r3, #40
 613 004e 7B61     		str	r3, [r7, #20]
 355:Drivers/STM32F3xx_HAL_Driver/Src/stm32f3xx_hal_pcd.c ****         
 356:Drivers/STM32F3xx_HAL_Driver/Src/stm32f3xx_hal_pcd.c ****         ep->xfer_count = PCD_GET_EP_TX_CNT(hpcd->Instance, ep->num);
 614              		.loc 1 356 0
 615 0050 7B68     		ldr	r3, [r7, #4]
 616 0052 1B68     		ldr	r3, [r3]
 617 0054 B3F85030 		ldrh	r3, [r3, #80]	@ movhi
 618 0058 9BB2     		uxth	r3, r3
 619 005a 1A46     		mov	r2, r3
 620 005c 7B69     		ldr	r3, [r7, #20]
 621 005e 1B78     		ldrb	r3, [r3]	@ zero_extendqisi2
 622 0060 DB00     		lsls	r3, r3, #3
ARM GAS  /tmp/ccgaLh4p.s 			page 18


 623 0062 1344     		add	r3, r3, r2
 624 0064 0233     		adds	r3, r3, #2
 625 0066 5B00     		lsls	r3, r3, #1
 626 0068 1A46     		mov	r2, r3
 627 006a 7B68     		ldr	r3, [r7, #4]
 628 006c 1B68     		ldr	r3, [r3]
 629 006e 1344     		add	r3, r3, r2
 630 0070 03F58063 		add	r3, r3, #1024
 631 0074 1B68     		ldr	r3, [r3]
 632 0076 C3F30902 		ubfx	r2, r3, #0, #10
 633 007a 7B69     		ldr	r3, [r7, #20]
 634 007c 9A61     		str	r2, [r3, #24]
 357:Drivers/STM32F3xx_HAL_Driver/Src/stm32f3xx_hal_pcd.c ****         ep->xfer_buff += ep->xfer_count;
 635              		.loc 1 357 0
 636 007e 7B69     		ldr	r3, [r7, #20]
 637 0080 1A69     		ldr	r2, [r3, #16]
 638 0082 7B69     		ldr	r3, [r7, #20]
 639 0084 9B69     		ldr	r3, [r3, #24]
 640 0086 1A44     		add	r2, r2, r3
 641 0088 7B69     		ldr	r3, [r7, #20]
 642 008a 1A61     		str	r2, [r3, #16]
 358:Drivers/STM32F3xx_HAL_Driver/Src/stm32f3xx_hal_pcd.c ****  
 359:Drivers/STM32F3xx_HAL_Driver/Src/stm32f3xx_hal_pcd.c ****         /* TX COMPLETE */
 360:Drivers/STM32F3xx_HAL_Driver/Src/stm32f3xx_hal_pcd.c ****         HAL_PCD_DataInStageCallback(hpcd, 0);
 643              		.loc 1 360 0
 644 008c 0021     		movs	r1, #0
 645 008e 7868     		ldr	r0, [r7, #4]
 646 0090 FFF7FEFF 		bl	HAL_PCD_DataInStageCallback
 361:Drivers/STM32F3xx_HAL_Driver/Src/stm32f3xx_hal_pcd.c ****         
 362:Drivers/STM32F3xx_HAL_Driver/Src/stm32f3xx_hal_pcd.c ****         
 363:Drivers/STM32F3xx_HAL_Driver/Src/stm32f3xx_hal_pcd.c ****         if((hpcd->USB_Address > 0)&& ( ep->xfer_len == 0))
 647              		.loc 1 363 0
 648 0094 7B68     		ldr	r3, [r7, #4]
 649 0096 93F82430 		ldrb	r3, [r3, #36]
 650 009a DBB2     		uxtb	r3, r3
 651 009c 002B     		cmp	r3, #0
 652 009e 00F0DE82 		beq	.L19
 653              		.loc 1 363 0 is_stmt 0 discriminator 1
 654 00a2 7B69     		ldr	r3, [r7, #20]
 655 00a4 5B69     		ldr	r3, [r3, #20]
 656 00a6 002B     		cmp	r3, #0
 657 00a8 40F0D982 		bne	.L19
 364:Drivers/STM32F3xx_HAL_Driver/Src/stm32f3xx_hal_pcd.c ****         {
 365:Drivers/STM32F3xx_HAL_Driver/Src/stm32f3xx_hal_pcd.c ****           hpcd->Instance->DADDR = (hpcd->USB_Address | USB_DADDR_EF);
 658              		.loc 1 365 0 is_stmt 1
 659 00ac 7B68     		ldr	r3, [r7, #4]
 660 00ae 1B68     		ldr	r3, [r3]
 661 00b0 7A68     		ldr	r2, [r7, #4]
 662 00b2 92F82420 		ldrb	r2, [r2, #36]
 663 00b6 D2B2     		uxtb	r2, r2
 664 00b8 62F07F02 		orn	r2, r2, #127
 665 00bc D2B2     		uxtb	r2, r2
 666 00be 92B2     		uxth	r2, r2
 667 00c0 A3F84C20 		strh	r2, [r3, #76]	@ movhi
 366:Drivers/STM32F3xx_HAL_Driver/Src/stm32f3xx_hal_pcd.c ****           hpcd->USB_Address = 0;
 668              		.loc 1 366 0
 669 00c4 7B68     		ldr	r3, [r7, #4]
ARM GAS  /tmp/ccgaLh4p.s 			page 19


 670 00c6 0022     		movs	r2, #0
 671 00c8 83F82420 		strb	r2, [r3, #36]
 672 00cc C7E2     		b	.L19
 673              	.L21:
 367:Drivers/STM32F3xx_HAL_Driver/Src/stm32f3xx_hal_pcd.c ****         }
 368:Drivers/STM32F3xx_HAL_Driver/Src/stm32f3xx_hal_pcd.c ****         
 369:Drivers/STM32F3xx_HAL_Driver/Src/stm32f3xx_hal_pcd.c ****       }
 370:Drivers/STM32F3xx_HAL_Driver/Src/stm32f3xx_hal_pcd.c ****       else
 371:Drivers/STM32F3xx_HAL_Driver/Src/stm32f3xx_hal_pcd.c ****       {
 372:Drivers/STM32F3xx_HAL_Driver/Src/stm32f3xx_hal_pcd.c ****         /* DIR = 1 */
 373:Drivers/STM32F3xx_HAL_Driver/Src/stm32f3xx_hal_pcd.c ****         
 374:Drivers/STM32F3xx_HAL_Driver/Src/stm32f3xx_hal_pcd.c ****         /* DIR = 1 & CTR_RX       => SETUP or OUT int */
 375:Drivers/STM32F3xx_HAL_Driver/Src/stm32f3xx_hal_pcd.c ****         /* DIR = 1 & (CTR_TX | CTR_RX) => 2 int pending */
 376:Drivers/STM32F3xx_HAL_Driver/Src/stm32f3xx_hal_pcd.c ****         ep = &hpcd->OUT_ep[0];
 674              		.loc 1 376 0
 675 00ce 7B68     		ldr	r3, [r7, #4]
 676 00d0 03F58473 		add	r3, r3, #264
 677 00d4 7B61     		str	r3, [r7, #20]
 377:Drivers/STM32F3xx_HAL_Driver/Src/stm32f3xx_hal_pcd.c ****         wEPVal = PCD_GET_ENDPOINT(hpcd->Instance, PCD_ENDP0);
 678              		.loc 1 377 0
 679 00d6 7B68     		ldr	r3, [r7, #4]
 680 00d8 1B68     		ldr	r3, [r3]
 681 00da 1B88     		ldrh	r3, [r3]	@ movhi
 682 00dc 9BB2     		uxth	r3, r3
 683 00de BB81     		strh	r3, [r7, #12]	@ movhi
 378:Drivers/STM32F3xx_HAL_Driver/Src/stm32f3xx_hal_pcd.c ****         
 379:Drivers/STM32F3xx_HAL_Driver/Src/stm32f3xx_hal_pcd.c ****         if ((wEPVal & USB_EP_SETUP) != 0)
 684              		.loc 1 379 0
 685 00e0 BB89     		ldrh	r3, [r7, #12]	@ movhi
 686 00e2 9BB2     		uxth	r3, r3
 687 00e4 03F40063 		and	r3, r3, #2048
 688 00e8 002B     		cmp	r3, #0
 689 00ea 31D0     		beq	.L24
 380:Drivers/STM32F3xx_HAL_Driver/Src/stm32f3xx_hal_pcd.c ****         {
 381:Drivers/STM32F3xx_HAL_Driver/Src/stm32f3xx_hal_pcd.c ****           /* Get SETUP Packet*/
 382:Drivers/STM32F3xx_HAL_Driver/Src/stm32f3xx_hal_pcd.c ****           ep->xfer_count = PCD_GET_EP_RX_CNT(hpcd->Instance, ep->num);
 690              		.loc 1 382 0
 691 00ec 7B68     		ldr	r3, [r7, #4]
 692 00ee 1B68     		ldr	r3, [r3]
 693 00f0 B3F85030 		ldrh	r3, [r3, #80]	@ movhi
 694 00f4 9BB2     		uxth	r3, r3
 695 00f6 1A46     		mov	r2, r3
 696 00f8 7B69     		ldr	r3, [r7, #20]
 697 00fa 1B78     		ldrb	r3, [r3]	@ zero_extendqisi2
 698 00fc DB00     		lsls	r3, r3, #3
 699 00fe 1344     		add	r3, r3, r2
 700 0100 0633     		adds	r3, r3, #6
 701 0102 5B00     		lsls	r3, r3, #1
 702 0104 1A46     		mov	r2, r3
 703 0106 7B68     		ldr	r3, [r7, #4]
 704 0108 1B68     		ldr	r3, [r3]
 705 010a 1344     		add	r3, r3, r2
 706 010c 03F58063 		add	r3, r3, #1024
 707 0110 1B68     		ldr	r3, [r3]
 708 0112 C3F30902 		ubfx	r2, r3, #0, #10
 709 0116 7B69     		ldr	r3, [r7, #20]
 710 0118 9A61     		str	r2, [r3, #24]
ARM GAS  /tmp/ccgaLh4p.s 			page 20


 383:Drivers/STM32F3xx_HAL_Driver/Src/stm32f3xx_hal_pcd.c ****           PCD_ReadPMA(hpcd->Instance, (uint8_t*)hpcd->Setup ,ep->pmaadress , ep->xfer_count);      
 711              		.loc 1 383 0
 712 011a 7B68     		ldr	r3, [r7, #4]
 713 011c 1868     		ldr	r0, [r3]
 714 011e 7B68     		ldr	r3, [r7, #4]
 715 0120 03F5F671 		add	r1, r3, #492
 716 0124 7B69     		ldr	r3, [r7, #20]
 717 0126 9A88     		ldrh	r2, [r3, #4]
 718 0128 7B69     		ldr	r3, [r7, #20]
 719 012a 9B69     		ldr	r3, [r3, #24]
 720 012c 9BB2     		uxth	r3, r3
 721 012e FFF7FEFF 		bl	PCD_ReadPMA
 384:Drivers/STM32F3xx_HAL_Driver/Src/stm32f3xx_hal_pcd.c ****           /* SETUP bit kept frozen while CTR_RX = 1*/ 
 385:Drivers/STM32F3xx_HAL_Driver/Src/stm32f3xx_hal_pcd.c ****           PCD_CLEAR_RX_EP_CTR(hpcd->Instance, PCD_ENDP0); 
 722              		.loc 1 385 0
 723 0132 7B68     		ldr	r3, [r7, #4]
 724 0134 1A68     		ldr	r2, [r3]
 725 0136 7B68     		ldr	r3, [r7, #4]
 726 0138 1B68     		ldr	r3, [r3]
 727 013a 1B88     		ldrh	r3, [r3]	@ movhi
 728 013c 99B2     		uxth	r1, r3
 729 013e 40F68F73 		movw	r3, #3983
 730 0142 0B40     		ands	r3, r3, r1
 731 0144 9BB2     		uxth	r3, r3
 732 0146 1380     		strh	r3, [r2]	@ movhi
 386:Drivers/STM32F3xx_HAL_Driver/Src/stm32f3xx_hal_pcd.c ****           
 387:Drivers/STM32F3xx_HAL_Driver/Src/stm32f3xx_hal_pcd.c ****           /* Process SETUP Packet*/
 388:Drivers/STM32F3xx_HAL_Driver/Src/stm32f3xx_hal_pcd.c ****           HAL_PCD_SetupStageCallback(hpcd);
 733              		.loc 1 388 0
 734 0148 7868     		ldr	r0, [r7, #4]
 735 014a FFF7FEFF 		bl	HAL_PCD_SetupStageCallback
 736 014e 86E2     		b	.L19
 737              	.L24:
 389:Drivers/STM32F3xx_HAL_Driver/Src/stm32f3xx_hal_pcd.c ****         }
 390:Drivers/STM32F3xx_HAL_Driver/Src/stm32f3xx_hal_pcd.c ****         
 391:Drivers/STM32F3xx_HAL_Driver/Src/stm32f3xx_hal_pcd.c ****         else if ((wEPVal & USB_EP_CTR_RX) != 0)
 738              		.loc 1 391 0
 739 0150 BB89     		ldrh	r3, [r7, #12]	@ movhi
 740 0152 9BB2     		uxth	r3, r3
 741 0154 9BB2     		uxth	r3, r3
 742 0156 1BB2     		sxth	r3, r3
 743 0158 002B     		cmp	r3, #0
 744 015a 80F28082 		bge	.L19
 392:Drivers/STM32F3xx_HAL_Driver/Src/stm32f3xx_hal_pcd.c ****         {
 393:Drivers/STM32F3xx_HAL_Driver/Src/stm32f3xx_hal_pcd.c ****           PCD_CLEAR_RX_EP_CTR(hpcd->Instance, PCD_ENDP0);
 745              		.loc 1 393 0
 746 015e 7B68     		ldr	r3, [r7, #4]
 747 0160 1A68     		ldr	r2, [r3]
 748 0162 7B68     		ldr	r3, [r7, #4]
 749 0164 1B68     		ldr	r3, [r3]
 750 0166 1B88     		ldrh	r3, [r3]	@ movhi
 751 0168 99B2     		uxth	r1, r3
 752 016a 40F68F73 		movw	r3, #3983
 753 016e 0B40     		ands	r3, r3, r1
 754 0170 9BB2     		uxth	r3, r3
 755 0172 1380     		strh	r3, [r2]	@ movhi
 394:Drivers/STM32F3xx_HAL_Driver/Src/stm32f3xx_hal_pcd.c ****           /* Get Control Data OUT Packet*/
ARM GAS  /tmp/ccgaLh4p.s 			page 21


 395:Drivers/STM32F3xx_HAL_Driver/Src/stm32f3xx_hal_pcd.c ****           ep->xfer_count = PCD_GET_EP_RX_CNT(hpcd->Instance, ep->num);
 756              		.loc 1 395 0
 757 0174 7B68     		ldr	r3, [r7, #4]
 758 0176 1B68     		ldr	r3, [r3]
 759 0178 B3F85030 		ldrh	r3, [r3, #80]	@ movhi
 760 017c 9BB2     		uxth	r3, r3
 761 017e 1A46     		mov	r2, r3
 762 0180 7B69     		ldr	r3, [r7, #20]
 763 0182 1B78     		ldrb	r3, [r3]	@ zero_extendqisi2
 764 0184 DB00     		lsls	r3, r3, #3
 765 0186 1344     		add	r3, r3, r2
 766 0188 0633     		adds	r3, r3, #6
 767 018a 5B00     		lsls	r3, r3, #1
 768 018c 1A46     		mov	r2, r3
 769 018e 7B68     		ldr	r3, [r7, #4]
 770 0190 1B68     		ldr	r3, [r3]
 771 0192 1344     		add	r3, r3, r2
 772 0194 03F58063 		add	r3, r3, #1024
 773 0198 1B68     		ldr	r3, [r3]
 774 019a C3F30902 		ubfx	r2, r3, #0, #10
 775 019e 7B69     		ldr	r3, [r7, #20]
 776 01a0 9A61     		str	r2, [r3, #24]
 396:Drivers/STM32F3xx_HAL_Driver/Src/stm32f3xx_hal_pcd.c ****           
 397:Drivers/STM32F3xx_HAL_Driver/Src/stm32f3xx_hal_pcd.c ****           if (ep->xfer_count != 0)
 777              		.loc 1 397 0
 778 01a2 7B69     		ldr	r3, [r7, #20]
 779 01a4 9B69     		ldr	r3, [r3, #24]
 780 01a6 002B     		cmp	r3, #0
 781 01a8 11D0     		beq	.L25
 398:Drivers/STM32F3xx_HAL_Driver/Src/stm32f3xx_hal_pcd.c ****           {
 399:Drivers/STM32F3xx_HAL_Driver/Src/stm32f3xx_hal_pcd.c ****             PCD_ReadPMA(hpcd->Instance, ep->xfer_buff, ep->pmaadress, ep->xfer_count);
 782              		.loc 1 399 0
 783 01aa 7B68     		ldr	r3, [r7, #4]
 784 01ac 1868     		ldr	r0, [r3]
 785 01ae 7B69     		ldr	r3, [r7, #20]
 786 01b0 1969     		ldr	r1, [r3, #16]
 787 01b2 7B69     		ldr	r3, [r7, #20]
 788 01b4 9A88     		ldrh	r2, [r3, #4]
 789 01b6 7B69     		ldr	r3, [r7, #20]
 790 01b8 9B69     		ldr	r3, [r3, #24]
 791 01ba 9BB2     		uxth	r3, r3
 792 01bc FFF7FEFF 		bl	PCD_ReadPMA
 400:Drivers/STM32F3xx_HAL_Driver/Src/stm32f3xx_hal_pcd.c ****             ep->xfer_buff+=ep->xfer_count;
 793              		.loc 1 400 0
 794 01c0 7B69     		ldr	r3, [r7, #20]
 795 01c2 1A69     		ldr	r2, [r3, #16]
 796 01c4 7B69     		ldr	r3, [r7, #20]
 797 01c6 9B69     		ldr	r3, [r3, #24]
 798 01c8 1A44     		add	r2, r2, r3
 799 01ca 7B69     		ldr	r3, [r7, #20]
 800 01cc 1A61     		str	r2, [r3, #16]
 801              	.L25:
 401:Drivers/STM32F3xx_HAL_Driver/Src/stm32f3xx_hal_pcd.c ****           }
 402:Drivers/STM32F3xx_HAL_Driver/Src/stm32f3xx_hal_pcd.c ****           
 403:Drivers/STM32F3xx_HAL_Driver/Src/stm32f3xx_hal_pcd.c ****           /* Process Control Data OUT Packet*/
 404:Drivers/STM32F3xx_HAL_Driver/Src/stm32f3xx_hal_pcd.c ****            HAL_PCD_DataOutStageCallback(hpcd, 0);
 802              		.loc 1 404 0
ARM GAS  /tmp/ccgaLh4p.s 			page 22


 803 01ce 0021     		movs	r1, #0
 804 01d0 7868     		ldr	r0, [r7, #4]
 805 01d2 FFF7FEFF 		bl	HAL_PCD_DataOutStageCallback
 806              	.LBB2:
 405:Drivers/STM32F3xx_HAL_Driver/Src/stm32f3xx_hal_pcd.c ****           
 406:Drivers/STM32F3xx_HAL_Driver/Src/stm32f3xx_hal_pcd.c ****           PCD_SET_EP_RX_CNT(hpcd->Instance, PCD_ENDP0, ep->maxpacket);
 807              		.loc 1 406 0
 808 01d6 7B68     		ldr	r3, [r7, #4]
 809 01d8 1B68     		ldr	r3, [r3]
 810 01da B3F85030 		ldrh	r3, [r3, #80]	@ movhi
 811 01de 9BB2     		uxth	r3, r3
 812 01e0 0633     		adds	r3, r3, #6
 813 01e2 5B00     		lsls	r3, r3, #1
 814 01e4 1A46     		mov	r2, r3
 815 01e6 7B68     		ldr	r3, [r7, #4]
 816 01e8 1B68     		ldr	r3, [r3]
 817 01ea 1344     		add	r3, r3, r2
 818 01ec 03F58063 		add	r3, r3, #1024
 819 01f0 3B61     		str	r3, [r7, #16]
 820              	.LBB3:
 821 01f2 7B69     		ldr	r3, [r7, #20]
 822 01f4 DB68     		ldr	r3, [r3, #12]
 823 01f6 3E2B     		cmp	r3, #62
 824 01f8 19D9     		bls	.L26
 825              		.loc 1 406 0 is_stmt 0 discriminator 1
 826 01fa 7B69     		ldr	r3, [r7, #20]
 827 01fc DB68     		ldr	r3, [r3, #12]
 828 01fe 5B09     		lsrs	r3, r3, #5
 829 0200 BB83     		strh	r3, [r7, #28]	@ movhi
 830 0202 7B69     		ldr	r3, [r7, #20]
 831 0204 DB68     		ldr	r3, [r3, #12]
 832 0206 03F01F03 		and	r3, r3, #31
 833 020a 002B     		cmp	r3, #0
 834 020c 02D1     		bne	.L27
 835              		.loc 1 406 0 discriminator 3
 836 020e BB8B     		ldrh	r3, [r7, #28]
 837 0210 013B     		subs	r3, r3, #1
 838 0212 BB83     		strh	r3, [r7, #28]	@ movhi
 839              	.L27:
 840              		.loc 1 406 0 discriminator 5
 841 0214 BB8B     		ldrh	r3, [r7, #28]
 842 0216 9B02     		lsls	r3, r3, #10
 843 0218 9BB2     		uxth	r3, r3
 844 021a 6FEA4343 		mvn	r3, r3, lsl #17
 845 021e 6FEA5343 		mvn	r3, r3, lsr #17
 846 0222 9BB2     		uxth	r3, r3
 847 0224 9BB2     		uxth	r3, r3
 848 0226 1A46     		mov	r2, r3
 849 0228 3B69     		ldr	r3, [r7, #16]
 850 022a 1A60     		str	r2, [r3]
 851 022c 12E0     		b	.L28
 852              	.L26:
 853              		.loc 1 406 0 discriminator 2
 854 022e 7B69     		ldr	r3, [r7, #20]
 855 0230 DB68     		ldr	r3, [r3, #12]
 856 0232 5B08     		lsrs	r3, r3, #1
 857 0234 BB83     		strh	r3, [r7, #28]	@ movhi
ARM GAS  /tmp/ccgaLh4p.s 			page 23


 858 0236 7B69     		ldr	r3, [r7, #20]
 859 0238 DB68     		ldr	r3, [r3, #12]
 860 023a 03F00103 		and	r3, r3, #1
 861 023e 002B     		cmp	r3, #0
 862 0240 02D0     		beq	.L29
 863              		.loc 1 406 0 discriminator 6
 864 0242 BB8B     		ldrh	r3, [r7, #28]
 865 0244 0133     		adds	r3, r3, #1
 866 0246 BB83     		strh	r3, [r7, #28]	@ movhi
 867              	.L29:
 868              		.loc 1 406 0 discriminator 8
 869 0248 BB8B     		ldrh	r3, [r7, #28]	@ movhi
 870 024a 9B02     		lsls	r3, r3, #10
 871 024c 9BB2     		uxth	r3, r3
 872 024e 1A46     		mov	r2, r3
 873 0250 3B69     		ldr	r3, [r7, #16]
 874 0252 1A60     		str	r2, [r3]
 875              	.L28:
 876              	.LBE3:
 877              	.LBE2:
 878              	.LBB4:
 407:Drivers/STM32F3xx_HAL_Driver/Src/stm32f3xx_hal_pcd.c ****           PCD_SET_EP_RX_STATUS(hpcd->Instance, PCD_ENDP0, USB_EP_RX_VALID);
 879              		.loc 1 407 0 is_stmt 1
 880 0254 7B68     		ldr	r3, [r7, #4]
 881 0256 1B68     		ldr	r3, [r3]
 882 0258 1B88     		ldrh	r3, [r3]	@ movhi
 883 025a 9BB2     		uxth	r3, r3
 884 025c 23F48043 		bic	r3, r3, #16384
 885 0260 23F07003 		bic	r3, r3, #112
 886 0264 9CB2     		uxth	r4, r3
 887 0266 84F48053 		eor	r3, r4, #4096
 888 026a 9CB2     		uxth	r4, r3
 889 026c 84F40053 		eor	r3, r4, #8192
 890 0270 9CB2     		uxth	r4, r3
 891 0272 7B68     		ldr	r3, [r7, #4]
 892 0274 1A68     		ldr	r2, [r3]
 893 0276 A24B     		ldr	r3, .L50
 894 0278 2343     		orrs	r3, r3, r4
 895 027a 9BB2     		uxth	r3, r3
 896 027c 1380     		strh	r3, [r2]	@ movhi
 897              	.LBE4:
 898 027e EEE1     		b	.L19
 899              	.L20:
 408:Drivers/STM32F3xx_HAL_Driver/Src/stm32f3xx_hal_pcd.c ****         }
 409:Drivers/STM32F3xx_HAL_Driver/Src/stm32f3xx_hal_pcd.c ****       }
 410:Drivers/STM32F3xx_HAL_Driver/Src/stm32f3xx_hal_pcd.c ****     }
 411:Drivers/STM32F3xx_HAL_Driver/Src/stm32f3xx_hal_pcd.c ****     else
 412:Drivers/STM32F3xx_HAL_Driver/Src/stm32f3xx_hal_pcd.c ****     {
 413:Drivers/STM32F3xx_HAL_Driver/Src/stm32f3xx_hal_pcd.c ****       
 414:Drivers/STM32F3xx_HAL_Driver/Src/stm32f3xx_hal_pcd.c ****       /* Decode and service non control endpoints interrupt  */
 415:Drivers/STM32F3xx_HAL_Driver/Src/stm32f3xx_hal_pcd.c ****       
 416:Drivers/STM32F3xx_HAL_Driver/Src/stm32f3xx_hal_pcd.c ****       /* process related endpoint register */
 417:Drivers/STM32F3xx_HAL_Driver/Src/stm32f3xx_hal_pcd.c ****       wEPVal = PCD_GET_ENDPOINT(hpcd->Instance, EPindex);
 900              		.loc 1 417 0
 901 0280 7B68     		ldr	r3, [r7, #4]
 902 0282 1B68     		ldr	r3, [r3]
 903 0284 1A46     		mov	r2, r3
ARM GAS  /tmp/ccgaLh4p.s 			page 24


 904 0286 FB7E     		ldrb	r3, [r7, #27]	@ zero_extendqisi2
 905 0288 9B00     		lsls	r3, r3, #2
 906 028a 1344     		add	r3, r3, r2
 907 028c 1B88     		ldrh	r3, [r3]	@ movhi
 908 028e 9BB2     		uxth	r3, r3
 909 0290 BB81     		strh	r3, [r7, #12]	@ movhi
 418:Drivers/STM32F3xx_HAL_Driver/Src/stm32f3xx_hal_pcd.c ****       if ((wEPVal & USB_EP_CTR_RX) != 0)
 910              		.loc 1 418 0
 911 0292 BB89     		ldrh	r3, [r7, #12]	@ movhi
 912 0294 9BB2     		uxth	r3, r3
 913 0296 9BB2     		uxth	r3, r3
 914 0298 1BB2     		sxth	r3, r3
 915 029a 002B     		cmp	r3, #0
 916 029c 80F2DF80 		bge	.L30
 419:Drivers/STM32F3xx_HAL_Driver/Src/stm32f3xx_hal_pcd.c ****       {  
 420:Drivers/STM32F3xx_HAL_Driver/Src/stm32f3xx_hal_pcd.c ****         /* clear int flag */
 421:Drivers/STM32F3xx_HAL_Driver/Src/stm32f3xx_hal_pcd.c ****         PCD_CLEAR_RX_EP_CTR(hpcd->Instance, EPindex);
 917              		.loc 1 421 0
 918 02a0 7B68     		ldr	r3, [r7, #4]
 919 02a2 1B68     		ldr	r3, [r3]
 920 02a4 1A46     		mov	r2, r3
 921 02a6 FB7E     		ldrb	r3, [r7, #27]	@ zero_extendqisi2
 922 02a8 9B00     		lsls	r3, r3, #2
 923 02aa 1A44     		add	r2, r2, r3
 924 02ac 7B68     		ldr	r3, [r7, #4]
 925 02ae 1B68     		ldr	r3, [r3]
 926 02b0 1946     		mov	r1, r3
 927 02b2 FB7E     		ldrb	r3, [r7, #27]	@ zero_extendqisi2
 928 02b4 9B00     		lsls	r3, r3, #2
 929 02b6 0B44     		add	r3, r3, r1
 930 02b8 1B88     		ldrh	r3, [r3]	@ movhi
 931 02ba 99B2     		uxth	r1, r3
 932 02bc 40F68F73 		movw	r3, #3983
 933 02c0 0B40     		ands	r3, r3, r1
 934 02c2 9BB2     		uxth	r3, r3
 935 02c4 1380     		strh	r3, [r2]	@ movhi
 422:Drivers/STM32F3xx_HAL_Driver/Src/stm32f3xx_hal_pcd.c ****         ep = &hpcd->OUT_ep[EPindex];
 936              		.loc 1 422 0
 937 02c6 FA7E     		ldrb	r2, [r7, #27]	@ zero_extendqisi2
 938 02c8 1346     		mov	r3, r2
 939 02ca DB00     		lsls	r3, r3, #3
 940 02cc 9B1A     		subs	r3, r3, r2
 941 02ce 9B00     		lsls	r3, r3, #2
 942 02d0 03F58473 		add	r3, r3, #264
 943 02d4 7A68     		ldr	r2, [r7, #4]
 944 02d6 1344     		add	r3, r3, r2
 945 02d8 7B61     		str	r3, [r7, #20]
 423:Drivers/STM32F3xx_HAL_Driver/Src/stm32f3xx_hal_pcd.c ****         
 424:Drivers/STM32F3xx_HAL_Driver/Src/stm32f3xx_hal_pcd.c ****         /* OUT double Buffering*/
 425:Drivers/STM32F3xx_HAL_Driver/Src/stm32f3xx_hal_pcd.c ****         if (ep->doublebuffer == 0)
 946              		.loc 1 425 0
 947 02da 7B69     		ldr	r3, [r7, #20]
 948 02dc 9B7A     		ldrb	r3, [r3, #10]	@ zero_extendqisi2
 949 02de 002B     		cmp	r3, #0
 950 02e0 23D1     		bne	.L31
 426:Drivers/STM32F3xx_HAL_Driver/Src/stm32f3xx_hal_pcd.c ****         {
 427:Drivers/STM32F3xx_HAL_Driver/Src/stm32f3xx_hal_pcd.c ****           count = PCD_GET_EP_RX_CNT(hpcd->Instance, ep->num);
ARM GAS  /tmp/ccgaLh4p.s 			page 25


 951              		.loc 1 427 0
 952 02e2 7B68     		ldr	r3, [r7, #4]
 953 02e4 1B68     		ldr	r3, [r3]
 954 02e6 B3F85030 		ldrh	r3, [r3, #80]	@ movhi
 955 02ea 9BB2     		uxth	r3, r3
 956 02ec 1A46     		mov	r2, r3
 957 02ee 7B69     		ldr	r3, [r7, #20]
 958 02f0 1B78     		ldrb	r3, [r3]	@ zero_extendqisi2
 959 02f2 DB00     		lsls	r3, r3, #3
 960 02f4 1344     		add	r3, r3, r2
 961 02f6 0633     		adds	r3, r3, #6
 962 02f8 5B00     		lsls	r3, r3, #1
 963 02fa 1A46     		mov	r2, r3
 964 02fc 7B68     		ldr	r3, [r7, #4]
 965 02fe 1B68     		ldr	r3, [r3]
 966 0300 1344     		add	r3, r3, r2
 967 0302 03F58063 		add	r3, r3, #1024
 968 0306 1B68     		ldr	r3, [r3]
 969 0308 9BB2     		uxth	r3, r3
 970 030a C3F30903 		ubfx	r3, r3, #0, #10
 971 030e FB83     		strh	r3, [r7, #30]	@ movhi
 428:Drivers/STM32F3xx_HAL_Driver/Src/stm32f3xx_hal_pcd.c ****           if (count != 0)
 972              		.loc 1 428 0
 973 0310 FB8B     		ldrh	r3, [r7, #30]
 974 0312 002B     		cmp	r3, #0
 975 0314 7ED0     		beq	.L33
 429:Drivers/STM32F3xx_HAL_Driver/Src/stm32f3xx_hal_pcd.c ****           {
 430:Drivers/STM32F3xx_HAL_Driver/Src/stm32f3xx_hal_pcd.c ****             PCD_ReadPMA(hpcd->Instance, ep->xfer_buff, ep->pmaadress, count);
 976              		.loc 1 430 0
 977 0316 7B68     		ldr	r3, [r7, #4]
 978 0318 1868     		ldr	r0, [r3]
 979 031a 7B69     		ldr	r3, [r7, #20]
 980 031c 1969     		ldr	r1, [r3, #16]
 981 031e 7B69     		ldr	r3, [r7, #20]
 982 0320 9A88     		ldrh	r2, [r3, #4]
 983 0322 FB8B     		ldrh	r3, [r7, #30]
 984 0324 FFF7FEFF 		bl	PCD_ReadPMA
 985 0328 74E0     		b	.L33
 986              	.L31:
 431:Drivers/STM32F3xx_HAL_Driver/Src/stm32f3xx_hal_pcd.c ****           }
 432:Drivers/STM32F3xx_HAL_Driver/Src/stm32f3xx_hal_pcd.c ****         }
 433:Drivers/STM32F3xx_HAL_Driver/Src/stm32f3xx_hal_pcd.c ****         else
 434:Drivers/STM32F3xx_HAL_Driver/Src/stm32f3xx_hal_pcd.c ****         {
 435:Drivers/STM32F3xx_HAL_Driver/Src/stm32f3xx_hal_pcd.c ****           if (PCD_GET_ENDPOINT(hpcd->Instance, ep->num) & USB_EP_DTOG_RX)
 987              		.loc 1 435 0
 988 032a 7B68     		ldr	r3, [r7, #4]
 989 032c 1B68     		ldr	r3, [r3]
 990 032e 1A46     		mov	r2, r3
 991 0330 7B69     		ldr	r3, [r7, #20]
 992 0332 1B78     		ldrb	r3, [r3]	@ zero_extendqisi2
 993 0334 9B00     		lsls	r3, r3, #2
 994 0336 1344     		add	r3, r3, r2
 995 0338 1B88     		ldrh	r3, [r3]	@ movhi
 996 033a 9BB2     		uxth	r3, r3
 997 033c 03F48043 		and	r3, r3, #16384
 998 0340 002B     		cmp	r3, #0
 999 0342 23D0     		beq	.L34
ARM GAS  /tmp/ccgaLh4p.s 			page 26


 436:Drivers/STM32F3xx_HAL_Driver/Src/stm32f3xx_hal_pcd.c ****           {
 437:Drivers/STM32F3xx_HAL_Driver/Src/stm32f3xx_hal_pcd.c ****             /*read from endpoint BUF0Addr buffer*/
 438:Drivers/STM32F3xx_HAL_Driver/Src/stm32f3xx_hal_pcd.c ****             count = PCD_GET_EP_DBUF0_CNT(hpcd->Instance, ep->num);
 1000              		.loc 1 438 0
 1001 0344 7B68     		ldr	r3, [r7, #4]
 1002 0346 1B68     		ldr	r3, [r3]
 1003 0348 B3F85030 		ldrh	r3, [r3, #80]	@ movhi
 1004 034c 9BB2     		uxth	r3, r3
 1005 034e 1A46     		mov	r2, r3
 1006 0350 7B69     		ldr	r3, [r7, #20]
 1007 0352 1B78     		ldrb	r3, [r3]	@ zero_extendqisi2
 1008 0354 DB00     		lsls	r3, r3, #3
 1009 0356 1344     		add	r3, r3, r2
 1010 0358 0233     		adds	r3, r3, #2
 1011 035a 5B00     		lsls	r3, r3, #1
 1012 035c 1A46     		mov	r2, r3
 1013 035e 7B68     		ldr	r3, [r7, #4]
 1014 0360 1B68     		ldr	r3, [r3]
 1015 0362 1344     		add	r3, r3, r2
 1016 0364 03F58063 		add	r3, r3, #1024
 1017 0368 1B68     		ldr	r3, [r3]
 1018 036a 9BB2     		uxth	r3, r3
 1019 036c C3F30903 		ubfx	r3, r3, #0, #10
 1020 0370 FB83     		strh	r3, [r7, #30]	@ movhi
 439:Drivers/STM32F3xx_HAL_Driver/Src/stm32f3xx_hal_pcd.c ****             if (count != 0)
 1021              		.loc 1 439 0
 1022 0372 FB8B     		ldrh	r3, [r7, #30]
 1023 0374 002B     		cmp	r3, #0
 1024 0376 2CD0     		beq	.L48
 440:Drivers/STM32F3xx_HAL_Driver/Src/stm32f3xx_hal_pcd.c ****             {
 441:Drivers/STM32F3xx_HAL_Driver/Src/stm32f3xx_hal_pcd.c ****               PCD_ReadPMA(hpcd->Instance, ep->xfer_buff, ep->pmaaddr0, count);
 1025              		.loc 1 441 0
 1026 0378 7B68     		ldr	r3, [r7, #4]
 1027 037a 1868     		ldr	r0, [r3]
 1028 037c 7B69     		ldr	r3, [r7, #20]
 1029 037e 1969     		ldr	r1, [r3, #16]
 1030 0380 7B69     		ldr	r3, [r7, #20]
 1031 0382 DA88     		ldrh	r2, [r3, #6]
 1032 0384 FB8B     		ldrh	r3, [r7, #30]
 1033 0386 FFF7FEFF 		bl	PCD_ReadPMA
 1034 038a 22E0     		b	.L48
 1035              	.L34:
 442:Drivers/STM32F3xx_HAL_Driver/Src/stm32f3xx_hal_pcd.c ****             }
 443:Drivers/STM32F3xx_HAL_Driver/Src/stm32f3xx_hal_pcd.c ****           }
 444:Drivers/STM32F3xx_HAL_Driver/Src/stm32f3xx_hal_pcd.c ****           else
 445:Drivers/STM32F3xx_HAL_Driver/Src/stm32f3xx_hal_pcd.c ****           {
 446:Drivers/STM32F3xx_HAL_Driver/Src/stm32f3xx_hal_pcd.c ****             /*read from endpoint BUF1Addr buffer*/
 447:Drivers/STM32F3xx_HAL_Driver/Src/stm32f3xx_hal_pcd.c ****             count = PCD_GET_EP_DBUF1_CNT(hpcd->Instance, ep->num);
 1036              		.loc 1 447 0
 1037 038c 7B68     		ldr	r3, [r7, #4]
 1038 038e 1B68     		ldr	r3, [r3]
 1039 0390 B3F85030 		ldrh	r3, [r3, #80]	@ movhi
 1040 0394 9BB2     		uxth	r3, r3
 1041 0396 1A46     		mov	r2, r3
 1042 0398 7B69     		ldr	r3, [r7, #20]
 1043 039a 1B78     		ldrb	r3, [r3]	@ zero_extendqisi2
 1044 039c DB00     		lsls	r3, r3, #3
ARM GAS  /tmp/ccgaLh4p.s 			page 27


 1045 039e 1344     		add	r3, r3, r2
 1046 03a0 0633     		adds	r3, r3, #6
 1047 03a2 5B00     		lsls	r3, r3, #1
 1048 03a4 1A46     		mov	r2, r3
 1049 03a6 7B68     		ldr	r3, [r7, #4]
 1050 03a8 1B68     		ldr	r3, [r3]
 1051 03aa 1344     		add	r3, r3, r2
 1052 03ac 03F58063 		add	r3, r3, #1024
 1053 03b0 1B68     		ldr	r3, [r3]
 1054 03b2 9BB2     		uxth	r3, r3
 1055 03b4 C3F30903 		ubfx	r3, r3, #0, #10
 1056 03b8 FB83     		strh	r3, [r7, #30]	@ movhi
 448:Drivers/STM32F3xx_HAL_Driver/Src/stm32f3xx_hal_pcd.c ****             if (count != 0)
 1057              		.loc 1 448 0
 1058 03ba FB8B     		ldrh	r3, [r7, #30]
 1059 03bc 002B     		cmp	r3, #0
 1060 03be 08D0     		beq	.L48
 449:Drivers/STM32F3xx_HAL_Driver/Src/stm32f3xx_hal_pcd.c ****             {
 450:Drivers/STM32F3xx_HAL_Driver/Src/stm32f3xx_hal_pcd.c ****               PCD_ReadPMA(hpcd->Instance, ep->xfer_buff, ep->pmaaddr1, count);
 1061              		.loc 1 450 0
 1062 03c0 7B68     		ldr	r3, [r7, #4]
 1063 03c2 1868     		ldr	r0, [r3]
 1064 03c4 7B69     		ldr	r3, [r7, #20]
 1065 03c6 1969     		ldr	r1, [r3, #16]
 1066 03c8 7B69     		ldr	r3, [r7, #20]
 1067 03ca 1A89     		ldrh	r2, [r3, #8]
 1068 03cc FB8B     		ldrh	r3, [r7, #30]
 1069 03ce FFF7FEFF 		bl	PCD_ReadPMA
 1070              	.L48:
 451:Drivers/STM32F3xx_HAL_Driver/Src/stm32f3xx_hal_pcd.c ****             }
 452:Drivers/STM32F3xx_HAL_Driver/Src/stm32f3xx_hal_pcd.c ****           }
 453:Drivers/STM32F3xx_HAL_Driver/Src/stm32f3xx_hal_pcd.c ****           PCD_FreeUserBuffer(hpcd->Instance, ep->num, PCD_EP_DBUF_OUT);  
 1071              		.loc 1 453 0 discriminator 1
 1072 03d2 7B68     		ldr	r3, [r7, #4]
 1073 03d4 1B68     		ldr	r3, [r3]
 1074 03d6 1A46     		mov	r2, r3
 1075 03d8 7B69     		ldr	r3, [r7, #20]
 1076 03da 1B78     		ldrb	r3, [r3]	@ zero_extendqisi2
 1077 03dc 9B00     		lsls	r3, r3, #2
 1078 03de 1A44     		add	r2, r2, r3
 1079 03e0 7B68     		ldr	r3, [r7, #4]
 1080 03e2 1B68     		ldr	r3, [r3]
 1081 03e4 1946     		mov	r1, r3
 1082 03e6 7B69     		ldr	r3, [r7, #20]
 1083 03e8 1B78     		ldrb	r3, [r3]	@ zero_extendqisi2
 1084 03ea 9B00     		lsls	r3, r3, #2
 1085 03ec 0B44     		add	r3, r3, r1
 1086 03ee 1B88     		ldrh	r3, [r3]	@ movhi
 1087 03f0 9BB2     		uxth	r3, r3
 1088 03f2 9BB2     		uxth	r3, r3
 1089 03f4 23F0F003 		bic	r3, r3, #240
 1090 03f8 1B05     		lsls	r3, r3, #20
 1091 03fa 1B0D     		lsrs	r3, r3, #20
 1092 03fc 9BB2     		uxth	r3, r3
 1093 03fe 43F07F43 		orr	r3, r3, #-16777216
 1094 0402 43F47F03 		orr	r3, r3, #16711680
 1095 0406 43F40043 		orr	r3, r3, #32768
ARM GAS  /tmp/ccgaLh4p.s 			page 28


 1096 040a 43F0C003 		orr	r3, r3, #192
 1097 040e 9BB2     		uxth	r3, r3
 1098 0410 9BB2     		uxth	r3, r3
 1099 0412 1380     		strh	r3, [r2]	@ movhi
 1100              	.L33:
 454:Drivers/STM32F3xx_HAL_Driver/Src/stm32f3xx_hal_pcd.c ****         }
 455:Drivers/STM32F3xx_HAL_Driver/Src/stm32f3xx_hal_pcd.c ****         /*multi-packet on the NON control OUT endpoint*/
 456:Drivers/STM32F3xx_HAL_Driver/Src/stm32f3xx_hal_pcd.c ****         ep->xfer_count+=count;
 1101              		.loc 1 456 0
 1102 0414 7B69     		ldr	r3, [r7, #20]
 1103 0416 9A69     		ldr	r2, [r3, #24]
 1104 0418 FB8B     		ldrh	r3, [r7, #30]
 1105 041a 1A44     		add	r2, r2, r3
 1106 041c 7B69     		ldr	r3, [r7, #20]
 1107 041e 9A61     		str	r2, [r3, #24]
 457:Drivers/STM32F3xx_HAL_Driver/Src/stm32f3xx_hal_pcd.c ****         ep->xfer_buff+=count;
 1108              		.loc 1 457 0
 1109 0420 7B69     		ldr	r3, [r7, #20]
 1110 0422 1A69     		ldr	r2, [r3, #16]
 1111 0424 FB8B     		ldrh	r3, [r7, #30]
 1112 0426 1A44     		add	r2, r2, r3
 1113 0428 7B69     		ldr	r3, [r7, #20]
 1114 042a 1A61     		str	r2, [r3, #16]
 458:Drivers/STM32F3xx_HAL_Driver/Src/stm32f3xx_hal_pcd.c ****        
 459:Drivers/STM32F3xx_HAL_Driver/Src/stm32f3xx_hal_pcd.c ****         if ((ep->xfer_len == 0) || (count < ep->maxpacket))
 1115              		.loc 1 459 0
 1116 042c 7B69     		ldr	r3, [r7, #20]
 1117 042e 5B69     		ldr	r3, [r3, #20]
 1118 0430 002B     		cmp	r3, #0
 1119 0432 04D0     		beq	.L37
 1120              		.loc 1 459 0 is_stmt 0 discriminator 1
 1121 0434 FA8B     		ldrh	r2, [r7, #30]
 1122 0436 7B69     		ldr	r3, [r7, #20]
 1123 0438 DB68     		ldr	r3, [r3, #12]
 1124 043a 9A42     		cmp	r2, r3
 1125 043c 06D2     		bcs	.L38
 1126              	.L37:
 460:Drivers/STM32F3xx_HAL_Driver/Src/stm32f3xx_hal_pcd.c ****         {
 461:Drivers/STM32F3xx_HAL_Driver/Src/stm32f3xx_hal_pcd.c ****           /* RX COMPLETE */
 462:Drivers/STM32F3xx_HAL_Driver/Src/stm32f3xx_hal_pcd.c ****           HAL_PCD_DataOutStageCallback(hpcd, ep->num);
 1127              		.loc 1 462 0 is_stmt 1
 1128 043e 7B69     		ldr	r3, [r7, #20]
 1129 0440 1B78     		ldrb	r3, [r3]	@ zero_extendqisi2
 1130 0442 1946     		mov	r1, r3
 1131 0444 7868     		ldr	r0, [r7, #4]
 1132 0446 FFF7FEFF 		bl	HAL_PCD_DataOutStageCallback
 1133 044a 08E0     		b	.L30
 1134              	.L38:
 463:Drivers/STM32F3xx_HAL_Driver/Src/stm32f3xx_hal_pcd.c ****         }
 464:Drivers/STM32F3xx_HAL_Driver/Src/stm32f3xx_hal_pcd.c ****         else
 465:Drivers/STM32F3xx_HAL_Driver/Src/stm32f3xx_hal_pcd.c ****         {
 466:Drivers/STM32F3xx_HAL_Driver/Src/stm32f3xx_hal_pcd.c ****           HAL_PCD_EP_Receive(hpcd, ep->num, ep->xfer_buff, ep->xfer_len);
 1135              		.loc 1 466 0
 1136 044c 7B69     		ldr	r3, [r7, #20]
 1137 044e 1978     		ldrb	r1, [r3]	@ zero_extendqisi2
 1138 0450 7B69     		ldr	r3, [r7, #20]
 1139 0452 1A69     		ldr	r2, [r3, #16]
ARM GAS  /tmp/ccgaLh4p.s 			page 29


 1140 0454 7B69     		ldr	r3, [r7, #20]
 1141 0456 5B69     		ldr	r3, [r3, #20]
 1142 0458 7868     		ldr	r0, [r7, #4]
 1143 045a FFF7FEFF 		bl	HAL_PCD_EP_Receive
 1144              	.L30:
 467:Drivers/STM32F3xx_HAL_Driver/Src/stm32f3xx_hal_pcd.c ****         }
 468:Drivers/STM32F3xx_HAL_Driver/Src/stm32f3xx_hal_pcd.c ****         
 469:Drivers/STM32F3xx_HAL_Driver/Src/stm32f3xx_hal_pcd.c ****       } /* if((wEPVal & EP_CTR_RX) */
 470:Drivers/STM32F3xx_HAL_Driver/Src/stm32f3xx_hal_pcd.c ****       
 471:Drivers/STM32F3xx_HAL_Driver/Src/stm32f3xx_hal_pcd.c ****       if ((wEPVal & USB_EP_CTR_TX) != 0)
 1145              		.loc 1 471 0
 1146 045e BB89     		ldrh	r3, [r7, #12]	@ movhi
 1147 0460 9BB2     		uxth	r3, r3
 1148 0462 03F08003 		and	r3, r3, #128
 1149 0466 002B     		cmp	r3, #0
 1150 0468 00F0F980 		beq	.L19
 472:Drivers/STM32F3xx_HAL_Driver/Src/stm32f3xx_hal_pcd.c ****       {
 473:Drivers/STM32F3xx_HAL_Driver/Src/stm32f3xx_hal_pcd.c ****         ep = &hpcd->IN_ep[EPindex];
 1151              		.loc 1 473 0
 1152 046c FA7E     		ldrb	r2, [r7, #27]	@ zero_extendqisi2
 1153 046e 1346     		mov	r3, r2
 1154 0470 DB00     		lsls	r3, r3, #3
 1155 0472 9B1A     		subs	r3, r3, r2
 1156 0474 9B00     		lsls	r3, r3, #2
 1157 0476 2833     		adds	r3, r3, #40
 1158 0478 7A68     		ldr	r2, [r7, #4]
 1159 047a 1344     		add	r3, r3, r2
 1160 047c 7B61     		str	r3, [r7, #20]
 474:Drivers/STM32F3xx_HAL_Driver/Src/stm32f3xx_hal_pcd.c ****         
 475:Drivers/STM32F3xx_HAL_Driver/Src/stm32f3xx_hal_pcd.c ****         /* clear int flag */
 476:Drivers/STM32F3xx_HAL_Driver/Src/stm32f3xx_hal_pcd.c ****         PCD_CLEAR_TX_EP_CTR(hpcd->Instance, EPindex);
 1161              		.loc 1 476 0
 1162 047e 7B68     		ldr	r3, [r7, #4]
 1163 0480 1B68     		ldr	r3, [r3]
 1164 0482 1A46     		mov	r2, r3
 1165 0484 FB7E     		ldrb	r3, [r7, #27]	@ zero_extendqisi2
 1166 0486 9B00     		lsls	r3, r3, #2
 1167 0488 1A44     		add	r2, r2, r3
 1168 048a 7B68     		ldr	r3, [r7, #4]
 1169 048c 1B68     		ldr	r3, [r3]
 1170 048e 1946     		mov	r1, r3
 1171 0490 FB7E     		ldrb	r3, [r7, #27]	@ zero_extendqisi2
 1172 0492 9B00     		lsls	r3, r3, #2
 1173 0494 0B44     		add	r3, r3, r1
 1174 0496 1B88     		ldrh	r3, [r3]	@ movhi
 1175 0498 9BB2     		uxth	r3, r3
 1176 049a 23F4E143 		bic	r3, r3, #28800
 1177 049e 23F07003 		bic	r3, r3, #112
 1178 04a2 9BB2     		uxth	r3, r3
 1179 04a4 1380     		strh	r3, [r2]	@ movhi
 477:Drivers/STM32F3xx_HAL_Driver/Src/stm32f3xx_hal_pcd.c ****         
 478:Drivers/STM32F3xx_HAL_Driver/Src/stm32f3xx_hal_pcd.c ****         /* IN double Buffering*/
 479:Drivers/STM32F3xx_HAL_Driver/Src/stm32f3xx_hal_pcd.c ****         if (ep->doublebuffer == 0)
 1180              		.loc 1 479 0
 1181 04a6 7B69     		ldr	r3, [r7, #20]
 1182 04a8 9B7A     		ldrb	r3, [r3, #10]	@ zero_extendqisi2
 1183 04aa 002B     		cmp	r3, #0
ARM GAS  /tmp/ccgaLh4p.s 			page 30


 1184 04ac 2AD1     		bne	.L39
 480:Drivers/STM32F3xx_HAL_Driver/Src/stm32f3xx_hal_pcd.c ****         {
 481:Drivers/STM32F3xx_HAL_Driver/Src/stm32f3xx_hal_pcd.c ****           ep->xfer_count = PCD_GET_EP_TX_CNT(hpcd->Instance, ep->num);
 1185              		.loc 1 481 0
 1186 04ae 7B68     		ldr	r3, [r7, #4]
 1187 04b0 1B68     		ldr	r3, [r3]
 1188 04b2 B3F85030 		ldrh	r3, [r3, #80]	@ movhi
 1189 04b6 9BB2     		uxth	r3, r3
 1190 04b8 1A46     		mov	r2, r3
 1191 04ba 7B69     		ldr	r3, [r7, #20]
 1192 04bc 1B78     		ldrb	r3, [r3]	@ zero_extendqisi2
 1193 04be DB00     		lsls	r3, r3, #3
 1194 04c0 1344     		add	r3, r3, r2
 1195 04c2 0233     		adds	r3, r3, #2
 1196 04c4 5B00     		lsls	r3, r3, #1
 1197 04c6 1A46     		mov	r2, r3
 1198 04c8 7B68     		ldr	r3, [r7, #4]
 1199 04ca 1B68     		ldr	r3, [r3]
 1200 04cc 1344     		add	r3, r3, r2
 1201 04ce 03F58063 		add	r3, r3, #1024
 1202 04d2 1B68     		ldr	r3, [r3]
 1203 04d4 C3F30902 		ubfx	r2, r3, #0, #10
 1204 04d8 7B69     		ldr	r3, [r7, #20]
 1205 04da 9A61     		str	r2, [r3, #24]
 482:Drivers/STM32F3xx_HAL_Driver/Src/stm32f3xx_hal_pcd.c ****           if (ep->xfer_count != 0)
 1206              		.loc 1 482 0
 1207 04dc 7B69     		ldr	r3, [r7, #20]
 1208 04de 9B69     		ldr	r3, [r3, #24]
 1209 04e0 002B     		cmp	r3, #0
 1210 04e2 00F08A80 		beq	.L41
 483:Drivers/STM32F3xx_HAL_Driver/Src/stm32f3xx_hal_pcd.c ****           {
 484:Drivers/STM32F3xx_HAL_Driver/Src/stm32f3xx_hal_pcd.c ****             PCD_WritePMA(hpcd->Instance, ep->xfer_buff, ep->pmaadress, ep->xfer_count);
 1211              		.loc 1 484 0
 1212 04e6 7B68     		ldr	r3, [r7, #4]
 1213 04e8 1868     		ldr	r0, [r3]
 1214 04ea 7B69     		ldr	r3, [r7, #20]
 1215 04ec 1969     		ldr	r1, [r3, #16]
 1216 04ee 7B69     		ldr	r3, [r7, #20]
 1217 04f0 9A88     		ldrh	r2, [r3, #4]
 1218 04f2 7B69     		ldr	r3, [r7, #20]
 1219 04f4 9B69     		ldr	r3, [r3, #24]
 1220 04f6 9BB2     		uxth	r3, r3
 1221 04f8 FFF7FEFF 		bl	PCD_WritePMA
 1222 04fc 7DE0     		b	.L41
 1223              	.L51:
 1224 04fe 00BF     		.align	2
 1225              	.L50:
 1226 0500 8080FFFF 		.word	-32640
 1227              	.L39:
 485:Drivers/STM32F3xx_HAL_Driver/Src/stm32f3xx_hal_pcd.c ****           }
 486:Drivers/STM32F3xx_HAL_Driver/Src/stm32f3xx_hal_pcd.c ****         }
 487:Drivers/STM32F3xx_HAL_Driver/Src/stm32f3xx_hal_pcd.c ****         else
 488:Drivers/STM32F3xx_HAL_Driver/Src/stm32f3xx_hal_pcd.c ****         {
 489:Drivers/STM32F3xx_HAL_Driver/Src/stm32f3xx_hal_pcd.c ****           if (PCD_GET_ENDPOINT(hpcd->Instance, ep->num) & USB_EP_DTOG_TX)
 1228              		.loc 1 489 0
 1229 0504 7B68     		ldr	r3, [r7, #4]
 1230 0506 1B68     		ldr	r3, [r3]
ARM GAS  /tmp/ccgaLh4p.s 			page 31


 1231 0508 1A46     		mov	r2, r3
 1232 050a 7B69     		ldr	r3, [r7, #20]
 1233 050c 1B78     		ldrb	r3, [r3]	@ zero_extendqisi2
 1234 050e 9B00     		lsls	r3, r3, #2
 1235 0510 1344     		add	r3, r3, r2
 1236 0512 1B88     		ldrh	r3, [r3]	@ movhi
 1237 0514 9BB2     		uxth	r3, r3
 1238 0516 03F04003 		and	r3, r3, #64
 1239 051a 002B     		cmp	r3, #0
 1240 051c 26D0     		beq	.L42
 490:Drivers/STM32F3xx_HAL_Driver/Src/stm32f3xx_hal_pcd.c ****           {
 491:Drivers/STM32F3xx_HAL_Driver/Src/stm32f3xx_hal_pcd.c ****             /*read from endpoint BUF0Addr buffer*/
 492:Drivers/STM32F3xx_HAL_Driver/Src/stm32f3xx_hal_pcd.c ****             ep->xfer_count = PCD_GET_EP_DBUF0_CNT(hpcd->Instance, ep->num);
 1241              		.loc 1 492 0
 1242 051e 7B68     		ldr	r3, [r7, #4]
 1243 0520 1B68     		ldr	r3, [r3]
 1244 0522 B3F85030 		ldrh	r3, [r3, #80]	@ movhi
 1245 0526 9BB2     		uxth	r3, r3
 1246 0528 1A46     		mov	r2, r3
 1247 052a 7B69     		ldr	r3, [r7, #20]
 1248 052c 1B78     		ldrb	r3, [r3]	@ zero_extendqisi2
 1249 052e DB00     		lsls	r3, r3, #3
 1250 0530 1344     		add	r3, r3, r2
 1251 0532 0233     		adds	r3, r3, #2
 1252 0534 5B00     		lsls	r3, r3, #1
 1253 0536 1A46     		mov	r2, r3
 1254 0538 7B68     		ldr	r3, [r7, #4]
 1255 053a 1B68     		ldr	r3, [r3]
 1256 053c 1344     		add	r3, r3, r2
 1257 053e 03F58063 		add	r3, r3, #1024
 1258 0542 1B68     		ldr	r3, [r3]
 1259 0544 C3F30902 		ubfx	r2, r3, #0, #10
 1260 0548 7B69     		ldr	r3, [r7, #20]
 1261 054a 9A61     		str	r2, [r3, #24]
 493:Drivers/STM32F3xx_HAL_Driver/Src/stm32f3xx_hal_pcd.c ****             if (ep->xfer_count != 0)
 1262              		.loc 1 493 0
 1263 054c 7B69     		ldr	r3, [r7, #20]
 1264 054e 9B69     		ldr	r3, [r3, #24]
 1265 0550 002B     		cmp	r3, #0
 1266 0552 31D0     		beq	.L49
 494:Drivers/STM32F3xx_HAL_Driver/Src/stm32f3xx_hal_pcd.c ****             {
 495:Drivers/STM32F3xx_HAL_Driver/Src/stm32f3xx_hal_pcd.c ****               PCD_WritePMA(hpcd->Instance, ep->xfer_buff, ep->pmaaddr0, ep->xfer_count);
 1267              		.loc 1 495 0
 1268 0554 7B68     		ldr	r3, [r7, #4]
 1269 0556 1868     		ldr	r0, [r3]
 1270 0558 7B69     		ldr	r3, [r7, #20]
 1271 055a 1969     		ldr	r1, [r3, #16]
 1272 055c 7B69     		ldr	r3, [r7, #20]
 1273 055e DA88     		ldrh	r2, [r3, #6]
 1274 0560 7B69     		ldr	r3, [r7, #20]
 1275 0562 9B69     		ldr	r3, [r3, #24]
 1276 0564 9BB2     		uxth	r3, r3
 1277 0566 FFF7FEFF 		bl	PCD_WritePMA
 1278 056a 25E0     		b	.L49
 1279              	.L42:
 496:Drivers/STM32F3xx_HAL_Driver/Src/stm32f3xx_hal_pcd.c ****             }
 497:Drivers/STM32F3xx_HAL_Driver/Src/stm32f3xx_hal_pcd.c ****           }
ARM GAS  /tmp/ccgaLh4p.s 			page 32


 498:Drivers/STM32F3xx_HAL_Driver/Src/stm32f3xx_hal_pcd.c ****           else
 499:Drivers/STM32F3xx_HAL_Driver/Src/stm32f3xx_hal_pcd.c ****           {
 500:Drivers/STM32F3xx_HAL_Driver/Src/stm32f3xx_hal_pcd.c ****             /*read from endpoint BUF1Addr buffer*/
 501:Drivers/STM32F3xx_HAL_Driver/Src/stm32f3xx_hal_pcd.c ****             ep->xfer_count = PCD_GET_EP_DBUF1_CNT(hpcd->Instance, ep->num);
 1280              		.loc 1 501 0
 1281 056c 7B68     		ldr	r3, [r7, #4]
 1282 056e 1B68     		ldr	r3, [r3]
 1283 0570 B3F85030 		ldrh	r3, [r3, #80]	@ movhi
 1284 0574 9BB2     		uxth	r3, r3
 1285 0576 1A46     		mov	r2, r3
 1286 0578 7B69     		ldr	r3, [r7, #20]
 1287 057a 1B78     		ldrb	r3, [r3]	@ zero_extendqisi2
 1288 057c DB00     		lsls	r3, r3, #3
 1289 057e 1344     		add	r3, r3, r2
 1290 0580 0633     		adds	r3, r3, #6
 1291 0582 5B00     		lsls	r3, r3, #1
 1292 0584 1A46     		mov	r2, r3
 1293 0586 7B68     		ldr	r3, [r7, #4]
 1294 0588 1B68     		ldr	r3, [r3]
 1295 058a 1344     		add	r3, r3, r2
 1296 058c 03F58063 		add	r3, r3, #1024
 1297 0590 1B68     		ldr	r3, [r3]
 1298 0592 C3F30902 		ubfx	r2, r3, #0, #10
 1299 0596 7B69     		ldr	r3, [r7, #20]
 1300 0598 9A61     		str	r2, [r3, #24]
 502:Drivers/STM32F3xx_HAL_Driver/Src/stm32f3xx_hal_pcd.c ****             if (ep->xfer_count != 0)
 1301              		.loc 1 502 0
 1302 059a 7B69     		ldr	r3, [r7, #20]
 1303 059c 9B69     		ldr	r3, [r3, #24]
 1304 059e 002B     		cmp	r3, #0
 1305 05a0 0AD0     		beq	.L49
 503:Drivers/STM32F3xx_HAL_Driver/Src/stm32f3xx_hal_pcd.c ****             {
 504:Drivers/STM32F3xx_HAL_Driver/Src/stm32f3xx_hal_pcd.c ****               PCD_WritePMA(hpcd->Instance, ep->xfer_buff, ep->pmaaddr1, ep->xfer_count);
 1306              		.loc 1 504 0
 1307 05a2 7B68     		ldr	r3, [r7, #4]
 1308 05a4 1868     		ldr	r0, [r3]
 1309 05a6 7B69     		ldr	r3, [r7, #20]
 1310 05a8 1969     		ldr	r1, [r3, #16]
 1311 05aa 7B69     		ldr	r3, [r7, #20]
 1312 05ac 1A89     		ldrh	r2, [r3, #8]
 1313 05ae 7B69     		ldr	r3, [r7, #20]
 1314 05b0 9B69     		ldr	r3, [r3, #24]
 1315 05b2 9BB2     		uxth	r3, r3
 1316 05b4 FFF7FEFF 		bl	PCD_WritePMA
 1317              	.L49:
 505:Drivers/STM32F3xx_HAL_Driver/Src/stm32f3xx_hal_pcd.c ****             }
 506:Drivers/STM32F3xx_HAL_Driver/Src/stm32f3xx_hal_pcd.c ****           }
 507:Drivers/STM32F3xx_HAL_Driver/Src/stm32f3xx_hal_pcd.c ****           PCD_FreeUserBuffer(hpcd->Instance, ep->num, PCD_EP_DBUF_IN);  
 1318              		.loc 1 507 0 discriminator 3
 1319 05b8 7B68     		ldr	r3, [r7, #4]
 1320 05ba 1B68     		ldr	r3, [r3]
 1321 05bc 1A46     		mov	r2, r3
 1322 05be 7B69     		ldr	r3, [r7, #20]
 1323 05c0 1B78     		ldrb	r3, [r3]	@ zero_extendqisi2
 1324 05c2 9B00     		lsls	r3, r3, #2
 1325 05c4 1A44     		add	r2, r2, r3
 1326 05c6 7B68     		ldr	r3, [r7, #4]
ARM GAS  /tmp/ccgaLh4p.s 			page 33


 1327 05c8 1B68     		ldr	r3, [r3]
 1328 05ca 1946     		mov	r1, r3
 1329 05cc 7B69     		ldr	r3, [r7, #20]
 1330 05ce 1B78     		ldrb	r3, [r3]	@ zero_extendqisi2
 1331 05d0 9B00     		lsls	r3, r3, #2
 1332 05d2 0B44     		add	r3, r3, r1
 1333 05d4 1B88     		ldrh	r3, [r3]	@ movhi
 1334 05d6 9BB2     		uxth	r3, r3
 1335 05d8 9BB2     		uxth	r3, r3
 1336 05da 23F0F003 		bic	r3, r3, #240
 1337 05de 1B05     		lsls	r3, r3, #20
 1338 05e0 1B0D     		lsrs	r3, r3, #20
 1339 05e2 9BB2     		uxth	r3, r3
 1340 05e4 43F07F43 		orr	r3, r3, #-16777216
 1341 05e8 43F47F03 		orr	r3, r3, #16711680
 1342 05ec 43F44043 		orr	r3, r3, #49152
 1343 05f0 43F08003 		orr	r3, r3, #128
 1344 05f4 9BB2     		uxth	r3, r3
 1345 05f6 9BB2     		uxth	r3, r3
 1346 05f8 1380     		strh	r3, [r2]	@ movhi
 1347              	.L41:
 508:Drivers/STM32F3xx_HAL_Driver/Src/stm32f3xx_hal_pcd.c ****         }
 509:Drivers/STM32F3xx_HAL_Driver/Src/stm32f3xx_hal_pcd.c ****         /*multi-packet on the NON control IN endpoint*/
 510:Drivers/STM32F3xx_HAL_Driver/Src/stm32f3xx_hal_pcd.c ****         ep->xfer_count = PCD_GET_EP_TX_CNT(hpcd->Instance, ep->num);
 1348              		.loc 1 510 0
 1349 05fa 7B68     		ldr	r3, [r7, #4]
 1350 05fc 1B68     		ldr	r3, [r3]
 1351 05fe B3F85030 		ldrh	r3, [r3, #80]	@ movhi
 1352 0602 9BB2     		uxth	r3, r3
 1353 0604 1A46     		mov	r2, r3
 1354 0606 7B69     		ldr	r3, [r7, #20]
 1355 0608 1B78     		ldrb	r3, [r3]	@ zero_extendqisi2
 1356 060a DB00     		lsls	r3, r3, #3
 1357 060c 1344     		add	r3, r3, r2
 1358 060e 0233     		adds	r3, r3, #2
 1359 0610 5B00     		lsls	r3, r3, #1
 1360 0612 1A46     		mov	r2, r3
 1361 0614 7B68     		ldr	r3, [r7, #4]
 1362 0616 1B68     		ldr	r3, [r3]
 1363 0618 1344     		add	r3, r3, r2
 1364 061a 03F58063 		add	r3, r3, #1024
 1365 061e 1B68     		ldr	r3, [r3]
 1366 0620 C3F30902 		ubfx	r2, r3, #0, #10
 1367 0624 7B69     		ldr	r3, [r7, #20]
 1368 0626 9A61     		str	r2, [r3, #24]
 511:Drivers/STM32F3xx_HAL_Driver/Src/stm32f3xx_hal_pcd.c ****         ep->xfer_buff+=ep->xfer_count;
 1369              		.loc 1 511 0
 1370 0628 7B69     		ldr	r3, [r7, #20]
 1371 062a 1A69     		ldr	r2, [r3, #16]
 1372 062c 7B69     		ldr	r3, [r7, #20]
 1373 062e 9B69     		ldr	r3, [r3, #24]
 1374 0630 1A44     		add	r2, r2, r3
 1375 0632 7B69     		ldr	r3, [r7, #20]
 1376 0634 1A61     		str	r2, [r3, #16]
 512:Drivers/STM32F3xx_HAL_Driver/Src/stm32f3xx_hal_pcd.c ****        
 513:Drivers/STM32F3xx_HAL_Driver/Src/stm32f3xx_hal_pcd.c ****         /* Zero Length Packet? */
 514:Drivers/STM32F3xx_HAL_Driver/Src/stm32f3xx_hal_pcd.c ****         if (ep->xfer_len == 0)
ARM GAS  /tmp/ccgaLh4p.s 			page 34


 1377              		.loc 1 514 0
 1378 0636 7B69     		ldr	r3, [r7, #20]
 1379 0638 5B69     		ldr	r3, [r3, #20]
 1380 063a 002B     		cmp	r3, #0
 1381 063c 06D1     		bne	.L45
 515:Drivers/STM32F3xx_HAL_Driver/Src/stm32f3xx_hal_pcd.c ****         {
 516:Drivers/STM32F3xx_HAL_Driver/Src/stm32f3xx_hal_pcd.c ****           /* TX COMPLETE */
 517:Drivers/STM32F3xx_HAL_Driver/Src/stm32f3xx_hal_pcd.c ****           HAL_PCD_DataInStageCallback(hpcd, ep->num);
 1382              		.loc 1 517 0
 1383 063e 7B69     		ldr	r3, [r7, #20]
 1384 0640 1B78     		ldrb	r3, [r3]	@ zero_extendqisi2
 1385 0642 1946     		mov	r1, r3
 1386 0644 7868     		ldr	r0, [r7, #4]
 1387 0646 FFF7FEFF 		bl	HAL_PCD_DataInStageCallback
 1388 064a 08E0     		b	.L19
 1389              	.L45:
 518:Drivers/STM32F3xx_HAL_Driver/Src/stm32f3xx_hal_pcd.c ****         }
 519:Drivers/STM32F3xx_HAL_Driver/Src/stm32f3xx_hal_pcd.c ****         else
 520:Drivers/STM32F3xx_HAL_Driver/Src/stm32f3xx_hal_pcd.c ****         {
 521:Drivers/STM32F3xx_HAL_Driver/Src/stm32f3xx_hal_pcd.c ****           HAL_PCD_EP_Transmit(hpcd, ep->num, ep->xfer_buff, ep->xfer_len);
 1390              		.loc 1 521 0
 1391 064c 7B69     		ldr	r3, [r7, #20]
 1392 064e 1978     		ldrb	r1, [r3]	@ zero_extendqisi2
 1393 0650 7B69     		ldr	r3, [r7, #20]
 1394 0652 1A69     		ldr	r2, [r3, #16]
 1395 0654 7B69     		ldr	r3, [r7, #20]
 1396 0656 5B69     		ldr	r3, [r3, #20]
 1397 0658 7868     		ldr	r0, [r7, #4]
 1398 065a FFF7FEFF 		bl	HAL_PCD_EP_Transmit
 1399              	.L19:
 337:Drivers/STM32F3xx_HAL_Driver/Src/stm32f3xx_hal_pcd.c ****   {
 1400              		.loc 1 337 0
 1401 065e 7B68     		ldr	r3, [r7, #4]
 1402 0660 1B68     		ldr	r3, [r3]
 1403 0662 B3F84430 		ldrh	r3, [r3, #68]	@ movhi
 1404 0666 9BB2     		uxth	r3, r3
 1405 0668 1A46     		mov	r2, r3	@ movhi
 1406 066a FA81     		strh	r2, [r7, #14]	@ movhi
 1407 066c 9BB2     		uxth	r3, r3
 1408 066e 1BB2     		sxth	r3, r3
 1409 0670 002B     		cmp	r3, #0
 1410 0672 FFF6CEAC 		blt	.L46
 522:Drivers/STM32F3xx_HAL_Driver/Src/stm32f3xx_hal_pcd.c ****         }
 523:Drivers/STM32F3xx_HAL_Driver/Src/stm32f3xx_hal_pcd.c ****       } 
 524:Drivers/STM32F3xx_HAL_Driver/Src/stm32f3xx_hal_pcd.c ****     }
 525:Drivers/STM32F3xx_HAL_Driver/Src/stm32f3xx_hal_pcd.c ****   }
 526:Drivers/STM32F3xx_HAL_Driver/Src/stm32f3xx_hal_pcd.c ****   return HAL_OK;
 1411              		.loc 1 526 0
 1412 0676 0023     		movs	r3, #0
 527:Drivers/STM32F3xx_HAL_Driver/Src/stm32f3xx_hal_pcd.c **** }
 1413              		.loc 1 527 0
 1414 0678 1846     		mov	r0, r3
 1415 067a 2437     		adds	r7, r7, #36
 1416              	.LCFI36:
 1417              		.cfi_def_cfa_offset 12
 1418 067c BD46     		mov	sp, r7
 1419              	.LCFI37:
ARM GAS  /tmp/ccgaLh4p.s 			page 35


 1420              		.cfi_def_cfa_register 13
 1421              		@ sp needed
 1422 067e 90BD     		pop	{r4, r7, pc}
 1423              		.cfi_endproc
 1424              	.LFE118:
 1426              		.section	.text.HAL_PCD_IRQHandler,"ax",%progbits
 1427              		.align	2
 1428              		.global	HAL_PCD_IRQHandler
 1429              		.thumb
 1430              		.thumb_func
 1432              	HAL_PCD_IRQHandler:
 1433              	.LFB119:
 528:Drivers/STM32F3xx_HAL_Driver/Src/stm32f3xx_hal_pcd.c **** /**
 529:Drivers/STM32F3xx_HAL_Driver/Src/stm32f3xx_hal_pcd.c ****   * @}
 530:Drivers/STM32F3xx_HAL_Driver/Src/stm32f3xx_hal_pcd.c ****   */
 531:Drivers/STM32F3xx_HAL_Driver/Src/stm32f3xx_hal_pcd.c **** 
 532:Drivers/STM32F3xx_HAL_Driver/Src/stm32f3xx_hal_pcd.c **** /** @addtogroup PCD_Exported_Functions
 533:Drivers/STM32F3xx_HAL_Driver/Src/stm32f3xx_hal_pcd.c ****   * @{
 534:Drivers/STM32F3xx_HAL_Driver/Src/stm32f3xx_hal_pcd.c ****   */
 535:Drivers/STM32F3xx_HAL_Driver/Src/stm32f3xx_hal_pcd.c **** 
 536:Drivers/STM32F3xx_HAL_Driver/Src/stm32f3xx_hal_pcd.c **** /** @defgroup PCD_Exported_Functions_Group2 Input and Output operation functions 
 537:Drivers/STM32F3xx_HAL_Driver/Src/stm32f3xx_hal_pcd.c ****  * @{
 538:Drivers/STM32F3xx_HAL_Driver/Src/stm32f3xx_hal_pcd.c ****  */    
 539:Drivers/STM32F3xx_HAL_Driver/Src/stm32f3xx_hal_pcd.c ****  
 540:Drivers/STM32F3xx_HAL_Driver/Src/stm32f3xx_hal_pcd.c **** /**
 541:Drivers/STM32F3xx_HAL_Driver/Src/stm32f3xx_hal_pcd.c ****   * @brief  This function handles PCD interrupt request.
 542:Drivers/STM32F3xx_HAL_Driver/Src/stm32f3xx_hal_pcd.c ****   * @param  hpcd: PCD handle
 543:Drivers/STM32F3xx_HAL_Driver/Src/stm32f3xx_hal_pcd.c ****   * @retval HAL status
 544:Drivers/STM32F3xx_HAL_Driver/Src/stm32f3xx_hal_pcd.c ****   */
 545:Drivers/STM32F3xx_HAL_Driver/Src/stm32f3xx_hal_pcd.c **** void HAL_PCD_IRQHandler(PCD_HandleTypeDef *hpcd)
 546:Drivers/STM32F3xx_HAL_Driver/Src/stm32f3xx_hal_pcd.c **** {
 1434              		.loc 1 546 0
 1435              		.cfi_startproc
 1436              		@ args = 0, pretend = 0, frame = 16
 1437              		@ frame_needed = 1, uses_anonymous_args = 0
 1438 0000 80B5     		push	{r7, lr}
 1439              	.LCFI38:
 1440              		.cfi_def_cfa_offset 8
 1441              		.cfi_offset 7, -8
 1442              		.cfi_offset 14, -4
 1443 0002 84B0     		sub	sp, sp, #16
 1444              	.LCFI39:
 1445              		.cfi_def_cfa_offset 24
 1446 0004 00AF     		add	r7, sp, #0
 1447              	.LCFI40:
 1448              		.cfi_def_cfa_register 7
 1449 0006 7860     		str	r0, [r7, #4]
 547:Drivers/STM32F3xx_HAL_Driver/Src/stm32f3xx_hal_pcd.c ****   uint32_t wInterrupt_Mask = 0;
 1450              		.loc 1 547 0
 1451 0008 0023     		movs	r3, #0
 1452 000a FB60     		str	r3, [r7, #12]
 548:Drivers/STM32F3xx_HAL_Driver/Src/stm32f3xx_hal_pcd.c ****   
 549:Drivers/STM32F3xx_HAL_Driver/Src/stm32f3xx_hal_pcd.c ****   if (__HAL_PCD_GET_FLAG (hpcd, USB_ISTR_CTR))
 1453              		.loc 1 549 0
 1454 000c 7B68     		ldr	r3, [r7, #4]
 1455 000e 1B68     		ldr	r3, [r3]
 1456 0010 B3F84430 		ldrh	r3, [r3, #68]	@ movhi
ARM GAS  /tmp/ccgaLh4p.s 			page 36


 1457 0014 9BB2     		uxth	r3, r3
 1458 0016 9BB2     		uxth	r3, r3
 1459 0018 1BB2     		sxth	r3, r3
 1460 001a 002B     		cmp	r3, #0
 1461 001c 02DA     		bge	.L53
 550:Drivers/STM32F3xx_HAL_Driver/Src/stm32f3xx_hal_pcd.c ****   {
 551:Drivers/STM32F3xx_HAL_Driver/Src/stm32f3xx_hal_pcd.c ****     /* servicing of the endpoint correct transfer interrupt */
 552:Drivers/STM32F3xx_HAL_Driver/Src/stm32f3xx_hal_pcd.c ****     /* clear of the CTR flag into the sub */
 553:Drivers/STM32F3xx_HAL_Driver/Src/stm32f3xx_hal_pcd.c ****     PCD_EP_ISR_Handler(hpcd);
 1462              		.loc 1 553 0
 1463 001e 7868     		ldr	r0, [r7, #4]
 1464 0020 FFF7FEFF 		bl	PCD_EP_ISR_Handler
 1465              	.L53:
 554:Drivers/STM32F3xx_HAL_Driver/Src/stm32f3xx_hal_pcd.c ****   }
 555:Drivers/STM32F3xx_HAL_Driver/Src/stm32f3xx_hal_pcd.c **** 
 556:Drivers/STM32F3xx_HAL_Driver/Src/stm32f3xx_hal_pcd.c ****   if (__HAL_PCD_GET_FLAG (hpcd, USB_ISTR_RESET))
 1466              		.loc 1 556 0
 1467 0024 7B68     		ldr	r3, [r7, #4]
 1468 0026 1B68     		ldr	r3, [r3]
 1469 0028 B3F84430 		ldrh	r3, [r3, #68]	@ movhi
 1470 002c 9BB2     		uxth	r3, r3
 1471 002e 03F48063 		and	r3, r3, #1024
 1472 0032 002B     		cmp	r3, #0
 1473 0034 0CD0     		beq	.L54
 557:Drivers/STM32F3xx_HAL_Driver/Src/stm32f3xx_hal_pcd.c ****   {
 558:Drivers/STM32F3xx_HAL_Driver/Src/stm32f3xx_hal_pcd.c ****     __HAL_PCD_CLEAR_FLAG(hpcd, USB_ISTR_RESET);
 1474              		.loc 1 558 0
 1475 0036 7B68     		ldr	r3, [r7, #4]
 1476 0038 1B68     		ldr	r3, [r3]
 1477 003a 4FF6FF32 		movw	r2, #64511
 1478 003e A3F84420 		strh	r2, [r3, #68]	@ movhi
 559:Drivers/STM32F3xx_HAL_Driver/Src/stm32f3xx_hal_pcd.c ****     HAL_PCD_ResetCallback(hpcd);
 1479              		.loc 1 559 0
 1480 0042 7868     		ldr	r0, [r7, #4]
 1481 0044 FFF7FEFF 		bl	HAL_PCD_ResetCallback
 560:Drivers/STM32F3xx_HAL_Driver/Src/stm32f3xx_hal_pcd.c ****     HAL_PCD_SetAddress(hpcd, 0);
 1482              		.loc 1 560 0
 1483 0048 0021     		movs	r1, #0
 1484 004a 7868     		ldr	r0, [r7, #4]
 1485 004c FFF7FEFF 		bl	HAL_PCD_SetAddress
 1486              	.L54:
 561:Drivers/STM32F3xx_HAL_Driver/Src/stm32f3xx_hal_pcd.c ****   }
 562:Drivers/STM32F3xx_HAL_Driver/Src/stm32f3xx_hal_pcd.c **** 
 563:Drivers/STM32F3xx_HAL_Driver/Src/stm32f3xx_hal_pcd.c ****   if (__HAL_PCD_GET_FLAG (hpcd, USB_ISTR_PMAOVRM))
 1487              		.loc 1 563 0
 1488 0050 7B68     		ldr	r3, [r7, #4]
 1489 0052 1B68     		ldr	r3, [r3]
 1490 0054 B3F84430 		ldrh	r3, [r3, #68]	@ movhi
 1491 0058 9BB2     		uxth	r3, r3
 1492 005a 03F48043 		and	r3, r3, #16384
 1493 005e 002B     		cmp	r3, #0
 1494 0060 05D0     		beq	.L55
 564:Drivers/STM32F3xx_HAL_Driver/Src/stm32f3xx_hal_pcd.c ****   {
 565:Drivers/STM32F3xx_HAL_Driver/Src/stm32f3xx_hal_pcd.c ****     __HAL_PCD_CLEAR_FLAG(hpcd, USB_ISTR_PMAOVRM);    
 1495              		.loc 1 565 0
 1496 0062 7B68     		ldr	r3, [r7, #4]
 1497 0064 1B68     		ldr	r3, [r3]
ARM GAS  /tmp/ccgaLh4p.s 			page 37


 1498 0066 4BF6FF72 		movw	r2, #49151
 1499 006a A3F84420 		strh	r2, [r3, #68]	@ movhi
 1500              	.L55:
 566:Drivers/STM32F3xx_HAL_Driver/Src/stm32f3xx_hal_pcd.c ****   }
 567:Drivers/STM32F3xx_HAL_Driver/Src/stm32f3xx_hal_pcd.c ****   if (__HAL_PCD_GET_FLAG (hpcd, USB_ISTR_ERR))
 1501              		.loc 1 567 0
 1502 006e 7B68     		ldr	r3, [r7, #4]
 1503 0070 1B68     		ldr	r3, [r3]
 1504 0072 B3F84430 		ldrh	r3, [r3, #68]	@ movhi
 1505 0076 9BB2     		uxth	r3, r3
 1506 0078 03F40053 		and	r3, r3, #8192
 1507 007c 002B     		cmp	r3, #0
 1508 007e 05D0     		beq	.L56
 568:Drivers/STM32F3xx_HAL_Driver/Src/stm32f3xx_hal_pcd.c ****   {
 569:Drivers/STM32F3xx_HAL_Driver/Src/stm32f3xx_hal_pcd.c ****     __HAL_PCD_CLEAR_FLAG(hpcd, USB_ISTR_ERR); 
 1509              		.loc 1 569 0
 1510 0080 7B68     		ldr	r3, [r7, #4]
 1511 0082 1B68     		ldr	r3, [r3]
 1512 0084 4DF6FF72 		movw	r2, #57343
 1513 0088 A3F84420 		strh	r2, [r3, #68]	@ movhi
 1514              	.L56:
 570:Drivers/STM32F3xx_HAL_Driver/Src/stm32f3xx_hal_pcd.c ****   }
 571:Drivers/STM32F3xx_HAL_Driver/Src/stm32f3xx_hal_pcd.c **** 
 572:Drivers/STM32F3xx_HAL_Driver/Src/stm32f3xx_hal_pcd.c ****   if (__HAL_PCD_GET_FLAG (hpcd, USB_ISTR_WKUP))
 1515              		.loc 1 572 0
 1516 008c 7B68     		ldr	r3, [r7, #4]
 1517 008e 1B68     		ldr	r3, [r3]
 1518 0090 B3F84430 		ldrh	r3, [r3, #68]	@ movhi
 1519 0094 9BB2     		uxth	r3, r3
 1520 0096 03F48053 		and	r3, r3, #4096
 1521 009a 002B     		cmp	r3, #0
 1522 009c 1DD0     		beq	.L57
 573:Drivers/STM32F3xx_HAL_Driver/Src/stm32f3xx_hal_pcd.c ****   {  
 574:Drivers/STM32F3xx_HAL_Driver/Src/stm32f3xx_hal_pcd.c ****     hpcd->Instance->CNTR &= ~(USB_CNTR_LP_MODE);
 1523              		.loc 1 574 0
 1524 009e 7B68     		ldr	r3, [r7, #4]
 1525 00a0 1B68     		ldr	r3, [r3]
 1526 00a2 7A68     		ldr	r2, [r7, #4]
 1527 00a4 1268     		ldr	r2, [r2]
 1528 00a6 B2F84020 		ldrh	r2, [r2, #64]	@ movhi
 1529 00aa 92B2     		uxth	r2, r2
 1530 00ac 22F00402 		bic	r2, r2, #4
 1531 00b0 92B2     		uxth	r2, r2
 1532 00b2 A3F84020 		strh	r2, [r3, #64]	@ movhi
 575:Drivers/STM32F3xx_HAL_Driver/Src/stm32f3xx_hal_pcd.c ****     
 576:Drivers/STM32F3xx_HAL_Driver/Src/stm32f3xx_hal_pcd.c ****     /*set wInterrupt_Mask global variable*/
 577:Drivers/STM32F3xx_HAL_Driver/Src/stm32f3xx_hal_pcd.c ****     wInterrupt_Mask = USB_CNTR_CTRM  | USB_CNTR_WKUPM | USB_CNTR_SUSPM | USB_CNTR_ERRM \
 1533              		.loc 1 577 0
 1534 00b6 4FF43D43 		mov	r3, #48384
 1535 00ba FB60     		str	r3, [r7, #12]
 578:Drivers/STM32F3xx_HAL_Driver/Src/stm32f3xx_hal_pcd.c ****       | USB_CNTR_ESOFM | USB_CNTR_RESETM;
 579:Drivers/STM32F3xx_HAL_Driver/Src/stm32f3xx_hal_pcd.c ****     
 580:Drivers/STM32F3xx_HAL_Driver/Src/stm32f3xx_hal_pcd.c ****     /*Set interrupt mask*/
 581:Drivers/STM32F3xx_HAL_Driver/Src/stm32f3xx_hal_pcd.c ****     hpcd->Instance->CNTR = wInterrupt_Mask;
 1536              		.loc 1 581 0
 1537 00bc 7B68     		ldr	r3, [r7, #4]
 1538 00be 1B68     		ldr	r3, [r3]
ARM GAS  /tmp/ccgaLh4p.s 			page 38


 1539 00c0 FA68     		ldr	r2, [r7, #12]
 1540 00c2 92B2     		uxth	r2, r2
 1541 00c4 A3F84020 		strh	r2, [r3, #64]	@ movhi
 582:Drivers/STM32F3xx_HAL_Driver/Src/stm32f3xx_hal_pcd.c ****     
 583:Drivers/STM32F3xx_HAL_Driver/Src/stm32f3xx_hal_pcd.c ****     HAL_PCD_ResumeCallback(hpcd);
 1542              		.loc 1 583 0
 1543 00c8 7868     		ldr	r0, [r7, #4]
 1544 00ca FFF7FEFF 		bl	HAL_PCD_ResumeCallback
 584:Drivers/STM32F3xx_HAL_Driver/Src/stm32f3xx_hal_pcd.c ****     
 585:Drivers/STM32F3xx_HAL_Driver/Src/stm32f3xx_hal_pcd.c ****     __HAL_PCD_CLEAR_FLAG(hpcd, USB_ISTR_WKUP);     
 1545              		.loc 1 585 0
 1546 00ce 7B68     		ldr	r3, [r7, #4]
 1547 00d0 1B68     		ldr	r3, [r3]
 1548 00d2 4EF6FF72 		movw	r2, #61439
 1549 00d6 A3F84420 		strh	r2, [r3, #68]	@ movhi
 1550              	.L57:
 586:Drivers/STM32F3xx_HAL_Driver/Src/stm32f3xx_hal_pcd.c ****   }
 587:Drivers/STM32F3xx_HAL_Driver/Src/stm32f3xx_hal_pcd.c **** 
 588:Drivers/STM32F3xx_HAL_Driver/Src/stm32f3xx_hal_pcd.c ****   if (__HAL_PCD_GET_FLAG (hpcd, USB_ISTR_SUSP))
 1551              		.loc 1 588 0
 1552 00da 7B68     		ldr	r3, [r7, #4]
 1553 00dc 1B68     		ldr	r3, [r3]
 1554 00de B3F84430 		ldrh	r3, [r3, #68]	@ movhi
 1555 00e2 9BB2     		uxth	r3, r3
 1556 00e4 03F40063 		and	r3, r3, #2048
 1557 00e8 002B     		cmp	r3, #0
 1558 00ea 29D0     		beq	.L58
 589:Drivers/STM32F3xx_HAL_Driver/Src/stm32f3xx_hal_pcd.c ****   {    
 590:Drivers/STM32F3xx_HAL_Driver/Src/stm32f3xx_hal_pcd.c ****     /* clear of the ISTR bit must be done after setting of CNTR_FSUSP */
 591:Drivers/STM32F3xx_HAL_Driver/Src/stm32f3xx_hal_pcd.c ****     __HAL_PCD_CLEAR_FLAG(hpcd, USB_ISTR_SUSP);  
 1559              		.loc 1 591 0
 1560 00ec 7B68     		ldr	r3, [r7, #4]
 1561 00ee 1B68     		ldr	r3, [r3]
 1562 00f0 4FF2FF72 		movw	r2, #63487
 1563 00f4 A3F84420 		strh	r2, [r3, #68]	@ movhi
 592:Drivers/STM32F3xx_HAL_Driver/Src/stm32f3xx_hal_pcd.c ****     
 593:Drivers/STM32F3xx_HAL_Driver/Src/stm32f3xx_hal_pcd.c ****     /* Force low-power mode in the macrocell */
 594:Drivers/STM32F3xx_HAL_Driver/Src/stm32f3xx_hal_pcd.c ****     hpcd->Instance->CNTR |= USB_CNTR_FSUSP;
 1564              		.loc 1 594 0
 1565 00f8 7B68     		ldr	r3, [r7, #4]
 1566 00fa 1B68     		ldr	r3, [r3]
 1567 00fc 7A68     		ldr	r2, [r7, #4]
 1568 00fe 1268     		ldr	r2, [r2]
 1569 0100 B2F84020 		ldrh	r2, [r2, #64]	@ movhi
 1570 0104 92B2     		uxth	r2, r2
 1571 0106 42F00802 		orr	r2, r2, #8
 1572 010a 92B2     		uxth	r2, r2
 1573 010c A3F84020 		strh	r2, [r3, #64]	@ movhi
 595:Drivers/STM32F3xx_HAL_Driver/Src/stm32f3xx_hal_pcd.c ****     hpcd->Instance->CNTR |= USB_CNTR_LP_MODE;
 1574              		.loc 1 595 0
 1575 0110 7B68     		ldr	r3, [r7, #4]
 1576 0112 1B68     		ldr	r3, [r3]
 1577 0114 7A68     		ldr	r2, [r7, #4]
 1578 0116 1268     		ldr	r2, [r2]
 1579 0118 B2F84020 		ldrh	r2, [r2, #64]	@ movhi
 1580 011c 92B2     		uxth	r2, r2
 1581 011e 42F00402 		orr	r2, r2, #4
ARM GAS  /tmp/ccgaLh4p.s 			page 39


 1582 0122 92B2     		uxth	r2, r2
 1583 0124 A3F84020 		strh	r2, [r3, #64]	@ movhi
 596:Drivers/STM32F3xx_HAL_Driver/Src/stm32f3xx_hal_pcd.c ****     if (__HAL_PCD_GET_FLAG (hpcd, USB_ISTR_WKUP) == 0)
 1584              		.loc 1 596 0
 1585 0128 7B68     		ldr	r3, [r7, #4]
 1586 012a 1B68     		ldr	r3, [r3]
 1587 012c B3F84430 		ldrh	r3, [r3, #68]	@ movhi
 1588 0130 9BB2     		uxth	r3, r3
 1589 0132 03F48053 		and	r3, r3, #4096
 1590 0136 002B     		cmp	r3, #0
 1591 0138 02D1     		bne	.L58
 597:Drivers/STM32F3xx_HAL_Driver/Src/stm32f3xx_hal_pcd.c ****     {
 598:Drivers/STM32F3xx_HAL_Driver/Src/stm32f3xx_hal_pcd.c ****       HAL_PCD_SuspendCallback(hpcd);
 1592              		.loc 1 598 0
 1593 013a 7868     		ldr	r0, [r7, #4]
 1594 013c FFF7FEFF 		bl	HAL_PCD_SuspendCallback
 1595              	.L58:
 599:Drivers/STM32F3xx_HAL_Driver/Src/stm32f3xx_hal_pcd.c ****     }
 600:Drivers/STM32F3xx_HAL_Driver/Src/stm32f3xx_hal_pcd.c ****   }
 601:Drivers/STM32F3xx_HAL_Driver/Src/stm32f3xx_hal_pcd.c **** 
 602:Drivers/STM32F3xx_HAL_Driver/Src/stm32f3xx_hal_pcd.c ****   if (__HAL_PCD_GET_FLAG (hpcd, USB_ISTR_SOF))
 1596              		.loc 1 602 0
 1597 0140 7B68     		ldr	r3, [r7, #4]
 1598 0142 1B68     		ldr	r3, [r3]
 1599 0144 B3F84430 		ldrh	r3, [r3, #68]	@ movhi
 1600 0148 9BB2     		uxth	r3, r3
 1601 014a 03F40073 		and	r3, r3, #512
 1602 014e 002B     		cmp	r3, #0
 1603 0150 08D0     		beq	.L59
 603:Drivers/STM32F3xx_HAL_Driver/Src/stm32f3xx_hal_pcd.c ****   {
 604:Drivers/STM32F3xx_HAL_Driver/Src/stm32f3xx_hal_pcd.c ****     __HAL_PCD_CLEAR_FLAG(hpcd, USB_ISTR_SOF); 
 1604              		.loc 1 604 0
 1605 0152 7B68     		ldr	r3, [r7, #4]
 1606 0154 1B68     		ldr	r3, [r3]
 1607 0156 4FF6FF52 		movw	r2, #65023
 1608 015a A3F84420 		strh	r2, [r3, #68]	@ movhi
 605:Drivers/STM32F3xx_HAL_Driver/Src/stm32f3xx_hal_pcd.c ****     HAL_PCD_SOFCallback(hpcd);
 1609              		.loc 1 605 0
 1610 015e 7868     		ldr	r0, [r7, #4]
 1611 0160 FFF7FEFF 		bl	HAL_PCD_SOFCallback
 1612              	.L59:
 606:Drivers/STM32F3xx_HAL_Driver/Src/stm32f3xx_hal_pcd.c ****   }
 607:Drivers/STM32F3xx_HAL_Driver/Src/stm32f3xx_hal_pcd.c **** 
 608:Drivers/STM32F3xx_HAL_Driver/Src/stm32f3xx_hal_pcd.c ****   if (__HAL_PCD_GET_FLAG (hpcd, USB_ISTR_ESOF))
 1613              		.loc 1 608 0
 1614 0164 7B68     		ldr	r3, [r7, #4]
 1615 0166 1B68     		ldr	r3, [r3]
 1616 0168 B3F84430 		ldrh	r3, [r3, #68]	@ movhi
 1617 016c 9BB2     		uxth	r3, r3
 1618 016e 03F48073 		and	r3, r3, #256
 1619 0172 002B     		cmp	r3, #0
 1620 0174 05D0     		beq	.L61
 609:Drivers/STM32F3xx_HAL_Driver/Src/stm32f3xx_hal_pcd.c ****   {
 610:Drivers/STM32F3xx_HAL_Driver/Src/stm32f3xx_hal_pcd.c ****     /* clear ESOF flag in ISTR */
 611:Drivers/STM32F3xx_HAL_Driver/Src/stm32f3xx_hal_pcd.c ****     __HAL_PCD_CLEAR_FLAG(hpcd, USB_ISTR_ESOF); 
 1621              		.loc 1 611 0
 1622 0176 7B68     		ldr	r3, [r7, #4]
ARM GAS  /tmp/ccgaLh4p.s 			page 40


 1623 0178 1B68     		ldr	r3, [r3]
 1624 017a 4FF6FF62 		movw	r2, #65279
 1625 017e A3F84420 		strh	r2, [r3, #68]	@ movhi
 1626              	.L61:
 612:Drivers/STM32F3xx_HAL_Driver/Src/stm32f3xx_hal_pcd.c ****   }
 613:Drivers/STM32F3xx_HAL_Driver/Src/stm32f3xx_hal_pcd.c **** }
 1627              		.loc 1 613 0
 1628 0182 00BF     		nop
 1629 0184 1037     		adds	r7, r7, #16
 1630              	.LCFI41:
 1631              		.cfi_def_cfa_offset 8
 1632 0186 BD46     		mov	sp, r7
 1633              	.LCFI42:
 1634              		.cfi_def_cfa_register 13
 1635              		@ sp needed
 1636 0188 80BD     		pop	{r7, pc}
 1637              		.cfi_endproc
 1638              	.LFE119:
 1640 018a 00BF     		.section	.text.HAL_PCD_DataOutStageCallback,"ax",%progbits
 1641              		.align	2
 1642              		.weak	HAL_PCD_DataOutStageCallback
 1643              		.thumb
 1644              		.thumb_func
 1646              	HAL_PCD_DataOutStageCallback:
 1647              	.LFB120:
 614:Drivers/STM32F3xx_HAL_Driver/Src/stm32f3xx_hal_pcd.c **** 
 615:Drivers/STM32F3xx_HAL_Driver/Src/stm32f3xx_hal_pcd.c **** /**
 616:Drivers/STM32F3xx_HAL_Driver/Src/stm32f3xx_hal_pcd.c ****   * @brief  Data out stage callbacks
 617:Drivers/STM32F3xx_HAL_Driver/Src/stm32f3xx_hal_pcd.c ****   * @param  hpcd: PCD handle
 618:Drivers/STM32F3xx_HAL_Driver/Src/stm32f3xx_hal_pcd.c ****   * @param  epnum: endpoint number
 619:Drivers/STM32F3xx_HAL_Driver/Src/stm32f3xx_hal_pcd.c ****   * @retval None
 620:Drivers/STM32F3xx_HAL_Driver/Src/stm32f3xx_hal_pcd.c ****   */
 621:Drivers/STM32F3xx_HAL_Driver/Src/stm32f3xx_hal_pcd.c ****  __weak void HAL_PCD_DataOutStageCallback(PCD_HandleTypeDef *hpcd, uint8_t epnum)
 622:Drivers/STM32F3xx_HAL_Driver/Src/stm32f3xx_hal_pcd.c **** {
 1648              		.loc 1 622 0
 1649              		.cfi_startproc
 1650              		@ args = 0, pretend = 0, frame = 8
 1651              		@ frame_needed = 1, uses_anonymous_args = 0
 1652              		@ link register save eliminated.
 1653 0000 80B4     		push	{r7}
 1654              	.LCFI43:
 1655              		.cfi_def_cfa_offset 4
 1656              		.cfi_offset 7, -4
 1657 0002 83B0     		sub	sp, sp, #12
 1658              	.LCFI44:
 1659              		.cfi_def_cfa_offset 16
 1660 0004 00AF     		add	r7, sp, #0
 1661              	.LCFI45:
 1662              		.cfi_def_cfa_register 7
 1663 0006 7860     		str	r0, [r7, #4]
 1664 0008 0B46     		mov	r3, r1
 1665 000a FB70     		strb	r3, [r7, #3]
 623:Drivers/STM32F3xx_HAL_Driver/Src/stm32f3xx_hal_pcd.c ****   /* NOTE : This function Should not be modified, when the callback is needed,
 624:Drivers/STM32F3xx_HAL_Driver/Src/stm32f3xx_hal_pcd.c ****             the HAL_PCD_DataOutStageCallback could be implemented in the user file
 625:Drivers/STM32F3xx_HAL_Driver/Src/stm32f3xx_hal_pcd.c ****    */ 
 626:Drivers/STM32F3xx_HAL_Driver/Src/stm32f3xx_hal_pcd.c **** }
 1666              		.loc 1 626 0
ARM GAS  /tmp/ccgaLh4p.s 			page 41


 1667 000c 00BF     		nop
 1668 000e 0C37     		adds	r7, r7, #12
 1669              	.LCFI46:
 1670              		.cfi_def_cfa_offset 4
 1671 0010 BD46     		mov	sp, r7
 1672              	.LCFI47:
 1673              		.cfi_def_cfa_register 13
 1674              		@ sp needed
 1675 0012 5DF8047B 		ldr	r7, [sp], #4
 1676              	.LCFI48:
 1677              		.cfi_restore 7
 1678              		.cfi_def_cfa_offset 0
 1679 0016 7047     		bx	lr
 1680              		.cfi_endproc
 1681              	.LFE120:
 1683              		.section	.text.HAL_PCD_DataInStageCallback,"ax",%progbits
 1684              		.align	2
 1685              		.weak	HAL_PCD_DataInStageCallback
 1686              		.thumb
 1687              		.thumb_func
 1689              	HAL_PCD_DataInStageCallback:
 1690              	.LFB121:
 627:Drivers/STM32F3xx_HAL_Driver/Src/stm32f3xx_hal_pcd.c **** 
 628:Drivers/STM32F3xx_HAL_Driver/Src/stm32f3xx_hal_pcd.c **** /**
 629:Drivers/STM32F3xx_HAL_Driver/Src/stm32f3xx_hal_pcd.c ****   * @brief  Data IN stage callbacks
 630:Drivers/STM32F3xx_HAL_Driver/Src/stm32f3xx_hal_pcd.c ****   * @param  hpcd: PCD handle
 631:Drivers/STM32F3xx_HAL_Driver/Src/stm32f3xx_hal_pcd.c ****   * @param  epnum: endpoint number
 632:Drivers/STM32F3xx_HAL_Driver/Src/stm32f3xx_hal_pcd.c ****   * @retval None
 633:Drivers/STM32F3xx_HAL_Driver/Src/stm32f3xx_hal_pcd.c ****   */
 634:Drivers/STM32F3xx_HAL_Driver/Src/stm32f3xx_hal_pcd.c ****  __weak void HAL_PCD_DataInStageCallback(PCD_HandleTypeDef *hpcd, uint8_t epnum)
 635:Drivers/STM32F3xx_HAL_Driver/Src/stm32f3xx_hal_pcd.c **** {
 1691              		.loc 1 635 0
 1692              		.cfi_startproc
 1693              		@ args = 0, pretend = 0, frame = 8
 1694              		@ frame_needed = 1, uses_anonymous_args = 0
 1695              		@ link register save eliminated.
 1696 0000 80B4     		push	{r7}
 1697              	.LCFI49:
 1698              		.cfi_def_cfa_offset 4
 1699              		.cfi_offset 7, -4
 1700 0002 83B0     		sub	sp, sp, #12
 1701              	.LCFI50:
 1702              		.cfi_def_cfa_offset 16
 1703 0004 00AF     		add	r7, sp, #0
 1704              	.LCFI51:
 1705              		.cfi_def_cfa_register 7
 1706 0006 7860     		str	r0, [r7, #4]
 1707 0008 0B46     		mov	r3, r1
 1708 000a FB70     		strb	r3, [r7, #3]
 636:Drivers/STM32F3xx_HAL_Driver/Src/stm32f3xx_hal_pcd.c ****   /* NOTE : This function Should not be modified, when the callback is needed,
 637:Drivers/STM32F3xx_HAL_Driver/Src/stm32f3xx_hal_pcd.c ****             the HAL_PCD_DataInStageCallback could be implemented in the user file
 638:Drivers/STM32F3xx_HAL_Driver/Src/stm32f3xx_hal_pcd.c ****    */ 
 639:Drivers/STM32F3xx_HAL_Driver/Src/stm32f3xx_hal_pcd.c **** }
 1709              		.loc 1 639 0
 1710 000c 00BF     		nop
 1711 000e 0C37     		adds	r7, r7, #12
 1712              	.LCFI52:
ARM GAS  /tmp/ccgaLh4p.s 			page 42


 1713              		.cfi_def_cfa_offset 4
 1714 0010 BD46     		mov	sp, r7
 1715              	.LCFI53:
 1716              		.cfi_def_cfa_register 13
 1717              		@ sp needed
 1718 0012 5DF8047B 		ldr	r7, [sp], #4
 1719              	.LCFI54:
 1720              		.cfi_restore 7
 1721              		.cfi_def_cfa_offset 0
 1722 0016 7047     		bx	lr
 1723              		.cfi_endproc
 1724              	.LFE121:
 1726              		.section	.text.HAL_PCD_SetupStageCallback,"ax",%progbits
 1727              		.align	2
 1728              		.weak	HAL_PCD_SetupStageCallback
 1729              		.thumb
 1730              		.thumb_func
 1732              	HAL_PCD_SetupStageCallback:
 1733              	.LFB122:
 640:Drivers/STM32F3xx_HAL_Driver/Src/stm32f3xx_hal_pcd.c **** /**
 641:Drivers/STM32F3xx_HAL_Driver/Src/stm32f3xx_hal_pcd.c ****   * @brief  Setup stage callback
 642:Drivers/STM32F3xx_HAL_Driver/Src/stm32f3xx_hal_pcd.c ****   * @param  hpcd: ppp handle
 643:Drivers/STM32F3xx_HAL_Driver/Src/stm32f3xx_hal_pcd.c ****   * @retval None
 644:Drivers/STM32F3xx_HAL_Driver/Src/stm32f3xx_hal_pcd.c ****   */
 645:Drivers/STM32F3xx_HAL_Driver/Src/stm32f3xx_hal_pcd.c ****  __weak void HAL_PCD_SetupStageCallback(PCD_HandleTypeDef *hpcd)
 646:Drivers/STM32F3xx_HAL_Driver/Src/stm32f3xx_hal_pcd.c **** {
 1734              		.loc 1 646 0
 1735              		.cfi_startproc
 1736              		@ args = 0, pretend = 0, frame = 8
 1737              		@ frame_needed = 1, uses_anonymous_args = 0
 1738              		@ link register save eliminated.
 1739 0000 80B4     		push	{r7}
 1740              	.LCFI55:
 1741              		.cfi_def_cfa_offset 4
 1742              		.cfi_offset 7, -4
 1743 0002 83B0     		sub	sp, sp, #12
 1744              	.LCFI56:
 1745              		.cfi_def_cfa_offset 16
 1746 0004 00AF     		add	r7, sp, #0
 1747              	.LCFI57:
 1748              		.cfi_def_cfa_register 7
 1749 0006 7860     		str	r0, [r7, #4]
 647:Drivers/STM32F3xx_HAL_Driver/Src/stm32f3xx_hal_pcd.c ****   /* NOTE : This function Should not be modified, when the callback is needed,
 648:Drivers/STM32F3xx_HAL_Driver/Src/stm32f3xx_hal_pcd.c ****             the HAL_PCD_SetupStageCallback could be implemented in the user file
 649:Drivers/STM32F3xx_HAL_Driver/Src/stm32f3xx_hal_pcd.c ****    */ 
 650:Drivers/STM32F3xx_HAL_Driver/Src/stm32f3xx_hal_pcd.c **** }
 1750              		.loc 1 650 0
 1751 0008 00BF     		nop
 1752 000a 0C37     		adds	r7, r7, #12
 1753              	.LCFI58:
 1754              		.cfi_def_cfa_offset 4
 1755 000c BD46     		mov	sp, r7
 1756              	.LCFI59:
 1757              		.cfi_def_cfa_register 13
 1758              		@ sp needed
 1759 000e 5DF8047B 		ldr	r7, [sp], #4
 1760              	.LCFI60:
ARM GAS  /tmp/ccgaLh4p.s 			page 43


 1761              		.cfi_restore 7
 1762              		.cfi_def_cfa_offset 0
 1763 0012 7047     		bx	lr
 1764              		.cfi_endproc
 1765              	.LFE122:
 1767              		.section	.text.HAL_PCD_SOFCallback,"ax",%progbits
 1768              		.align	2
 1769              		.weak	HAL_PCD_SOFCallback
 1770              		.thumb
 1771              		.thumb_func
 1773              	HAL_PCD_SOFCallback:
 1774              	.LFB123:
 651:Drivers/STM32F3xx_HAL_Driver/Src/stm32f3xx_hal_pcd.c **** 
 652:Drivers/STM32F3xx_HAL_Driver/Src/stm32f3xx_hal_pcd.c **** /**
 653:Drivers/STM32F3xx_HAL_Driver/Src/stm32f3xx_hal_pcd.c ****   * @brief  USB Start Of Frame callbacks
 654:Drivers/STM32F3xx_HAL_Driver/Src/stm32f3xx_hal_pcd.c ****   * @param  hpcd: PCD handle
 655:Drivers/STM32F3xx_HAL_Driver/Src/stm32f3xx_hal_pcd.c ****   * @retval None
 656:Drivers/STM32F3xx_HAL_Driver/Src/stm32f3xx_hal_pcd.c ****   */
 657:Drivers/STM32F3xx_HAL_Driver/Src/stm32f3xx_hal_pcd.c ****  __weak void HAL_PCD_SOFCallback(PCD_HandleTypeDef *hpcd)
 658:Drivers/STM32F3xx_HAL_Driver/Src/stm32f3xx_hal_pcd.c **** {
 1775              		.loc 1 658 0
 1776              		.cfi_startproc
 1777              		@ args = 0, pretend = 0, frame = 8
 1778              		@ frame_needed = 1, uses_anonymous_args = 0
 1779              		@ link register save eliminated.
 1780 0000 80B4     		push	{r7}
 1781              	.LCFI61:
 1782              		.cfi_def_cfa_offset 4
 1783              		.cfi_offset 7, -4
 1784 0002 83B0     		sub	sp, sp, #12
 1785              	.LCFI62:
 1786              		.cfi_def_cfa_offset 16
 1787 0004 00AF     		add	r7, sp, #0
 1788              	.LCFI63:
 1789              		.cfi_def_cfa_register 7
 1790 0006 7860     		str	r0, [r7, #4]
 659:Drivers/STM32F3xx_HAL_Driver/Src/stm32f3xx_hal_pcd.c ****   /* NOTE : This function Should not be modified, when the callback is needed,
 660:Drivers/STM32F3xx_HAL_Driver/Src/stm32f3xx_hal_pcd.c ****             the HAL_PCD_SOFCallback could be implemented in the user file
 661:Drivers/STM32F3xx_HAL_Driver/Src/stm32f3xx_hal_pcd.c ****    */ 
 662:Drivers/STM32F3xx_HAL_Driver/Src/stm32f3xx_hal_pcd.c **** }
 1791              		.loc 1 662 0
 1792 0008 00BF     		nop
 1793 000a 0C37     		adds	r7, r7, #12
 1794              	.LCFI64:
 1795              		.cfi_def_cfa_offset 4
 1796 000c BD46     		mov	sp, r7
 1797              	.LCFI65:
 1798              		.cfi_def_cfa_register 13
 1799              		@ sp needed
 1800 000e 5DF8047B 		ldr	r7, [sp], #4
 1801              	.LCFI66:
 1802              		.cfi_restore 7
 1803              		.cfi_def_cfa_offset 0
 1804 0012 7047     		bx	lr
 1805              		.cfi_endproc
 1806              	.LFE123:
 1808              		.section	.text.HAL_PCD_ResetCallback,"ax",%progbits
ARM GAS  /tmp/ccgaLh4p.s 			page 44


 1809              		.align	2
 1810              		.weak	HAL_PCD_ResetCallback
 1811              		.thumb
 1812              		.thumb_func
 1814              	HAL_PCD_ResetCallback:
 1815              	.LFB124:
 663:Drivers/STM32F3xx_HAL_Driver/Src/stm32f3xx_hal_pcd.c **** 
 664:Drivers/STM32F3xx_HAL_Driver/Src/stm32f3xx_hal_pcd.c **** /**
 665:Drivers/STM32F3xx_HAL_Driver/Src/stm32f3xx_hal_pcd.c ****   * @brief  USB Reset callbacks
 666:Drivers/STM32F3xx_HAL_Driver/Src/stm32f3xx_hal_pcd.c ****   * @param  hpcd: PCD handle
 667:Drivers/STM32F3xx_HAL_Driver/Src/stm32f3xx_hal_pcd.c ****   * @retval None
 668:Drivers/STM32F3xx_HAL_Driver/Src/stm32f3xx_hal_pcd.c ****   */
 669:Drivers/STM32F3xx_HAL_Driver/Src/stm32f3xx_hal_pcd.c ****  __weak void HAL_PCD_ResetCallback(PCD_HandleTypeDef *hpcd)
 670:Drivers/STM32F3xx_HAL_Driver/Src/stm32f3xx_hal_pcd.c **** {
 1816              		.loc 1 670 0
 1817              		.cfi_startproc
 1818              		@ args = 0, pretend = 0, frame = 8
 1819              		@ frame_needed = 1, uses_anonymous_args = 0
 1820              		@ link register save eliminated.
 1821 0000 80B4     		push	{r7}
 1822              	.LCFI67:
 1823              		.cfi_def_cfa_offset 4
 1824              		.cfi_offset 7, -4
 1825 0002 83B0     		sub	sp, sp, #12
 1826              	.LCFI68:
 1827              		.cfi_def_cfa_offset 16
 1828 0004 00AF     		add	r7, sp, #0
 1829              	.LCFI69:
 1830              		.cfi_def_cfa_register 7
 1831 0006 7860     		str	r0, [r7, #4]
 671:Drivers/STM32F3xx_HAL_Driver/Src/stm32f3xx_hal_pcd.c ****   /* NOTE : This function Should not be modified, when the callback is needed,
 672:Drivers/STM32F3xx_HAL_Driver/Src/stm32f3xx_hal_pcd.c ****             the HAL_PCD_ResetCallback could be implemented in the user file
 673:Drivers/STM32F3xx_HAL_Driver/Src/stm32f3xx_hal_pcd.c ****    */ 
 674:Drivers/STM32F3xx_HAL_Driver/Src/stm32f3xx_hal_pcd.c **** }
 1832              		.loc 1 674 0
 1833 0008 00BF     		nop
 1834 000a 0C37     		adds	r7, r7, #12
 1835              	.LCFI70:
 1836              		.cfi_def_cfa_offset 4
 1837 000c BD46     		mov	sp, r7
 1838              	.LCFI71:
 1839              		.cfi_def_cfa_register 13
 1840              		@ sp needed
 1841 000e 5DF8047B 		ldr	r7, [sp], #4
 1842              	.LCFI72:
 1843              		.cfi_restore 7
 1844              		.cfi_def_cfa_offset 0
 1845 0012 7047     		bx	lr
 1846              		.cfi_endproc
 1847              	.LFE124:
 1849              		.section	.text.HAL_PCD_SuspendCallback,"ax",%progbits
 1850              		.align	2
 1851              		.weak	HAL_PCD_SuspendCallback
 1852              		.thumb
 1853              		.thumb_func
 1855              	HAL_PCD_SuspendCallback:
 1856              	.LFB125:
ARM GAS  /tmp/ccgaLh4p.s 			page 45


 675:Drivers/STM32F3xx_HAL_Driver/Src/stm32f3xx_hal_pcd.c **** 
 676:Drivers/STM32F3xx_HAL_Driver/Src/stm32f3xx_hal_pcd.c **** /**
 677:Drivers/STM32F3xx_HAL_Driver/Src/stm32f3xx_hal_pcd.c ****   * @brief  Suspend event callbacks
 678:Drivers/STM32F3xx_HAL_Driver/Src/stm32f3xx_hal_pcd.c ****   * @param  hpcd: PCD handle
 679:Drivers/STM32F3xx_HAL_Driver/Src/stm32f3xx_hal_pcd.c ****   * @retval None
 680:Drivers/STM32F3xx_HAL_Driver/Src/stm32f3xx_hal_pcd.c ****   */
 681:Drivers/STM32F3xx_HAL_Driver/Src/stm32f3xx_hal_pcd.c ****  __weak void HAL_PCD_SuspendCallback(PCD_HandleTypeDef *hpcd)
 682:Drivers/STM32F3xx_HAL_Driver/Src/stm32f3xx_hal_pcd.c **** {
 1857              		.loc 1 682 0
 1858              		.cfi_startproc
 1859              		@ args = 0, pretend = 0, frame = 8
 1860              		@ frame_needed = 1, uses_anonymous_args = 0
 1861              		@ link register save eliminated.
 1862 0000 80B4     		push	{r7}
 1863              	.LCFI73:
 1864              		.cfi_def_cfa_offset 4
 1865              		.cfi_offset 7, -4
 1866 0002 83B0     		sub	sp, sp, #12
 1867              	.LCFI74:
 1868              		.cfi_def_cfa_offset 16
 1869 0004 00AF     		add	r7, sp, #0
 1870              	.LCFI75:
 1871              		.cfi_def_cfa_register 7
 1872 0006 7860     		str	r0, [r7, #4]
 683:Drivers/STM32F3xx_HAL_Driver/Src/stm32f3xx_hal_pcd.c ****   /* NOTE : This function Should not be modified, when the callback is needed,
 684:Drivers/STM32F3xx_HAL_Driver/Src/stm32f3xx_hal_pcd.c ****             the HAL_PCD_SuspendCallback could be implemented in the user file
 685:Drivers/STM32F3xx_HAL_Driver/Src/stm32f3xx_hal_pcd.c ****    */ 
 686:Drivers/STM32F3xx_HAL_Driver/Src/stm32f3xx_hal_pcd.c **** }
 1873              		.loc 1 686 0
 1874 0008 00BF     		nop
 1875 000a 0C37     		adds	r7, r7, #12
 1876              	.LCFI76:
 1877              		.cfi_def_cfa_offset 4
 1878 000c BD46     		mov	sp, r7
 1879              	.LCFI77:
 1880              		.cfi_def_cfa_register 13
 1881              		@ sp needed
 1882 000e 5DF8047B 		ldr	r7, [sp], #4
 1883              	.LCFI78:
 1884              		.cfi_restore 7
 1885              		.cfi_def_cfa_offset 0
 1886 0012 7047     		bx	lr
 1887              		.cfi_endproc
 1888              	.LFE125:
 1890              		.section	.text.HAL_PCD_ResumeCallback,"ax",%progbits
 1891              		.align	2
 1892              		.weak	HAL_PCD_ResumeCallback
 1893              		.thumb
 1894              		.thumb_func
 1896              	HAL_PCD_ResumeCallback:
 1897              	.LFB126:
 687:Drivers/STM32F3xx_HAL_Driver/Src/stm32f3xx_hal_pcd.c **** 
 688:Drivers/STM32F3xx_HAL_Driver/Src/stm32f3xx_hal_pcd.c **** /**
 689:Drivers/STM32F3xx_HAL_Driver/Src/stm32f3xx_hal_pcd.c ****   * @brief  Resume event callbacks
 690:Drivers/STM32F3xx_HAL_Driver/Src/stm32f3xx_hal_pcd.c ****   * @param  hpcd: PCD handle
 691:Drivers/STM32F3xx_HAL_Driver/Src/stm32f3xx_hal_pcd.c ****   * @retval None
 692:Drivers/STM32F3xx_HAL_Driver/Src/stm32f3xx_hal_pcd.c ****   */
ARM GAS  /tmp/ccgaLh4p.s 			page 46


 693:Drivers/STM32F3xx_HAL_Driver/Src/stm32f3xx_hal_pcd.c ****  __weak void HAL_PCD_ResumeCallback(PCD_HandleTypeDef *hpcd)
 694:Drivers/STM32F3xx_HAL_Driver/Src/stm32f3xx_hal_pcd.c **** {
 1898              		.loc 1 694 0
 1899              		.cfi_startproc
 1900              		@ args = 0, pretend = 0, frame = 8
 1901              		@ frame_needed = 1, uses_anonymous_args = 0
 1902              		@ link register save eliminated.
 1903 0000 80B4     		push	{r7}
 1904              	.LCFI79:
 1905              		.cfi_def_cfa_offset 4
 1906              		.cfi_offset 7, -4
 1907 0002 83B0     		sub	sp, sp, #12
 1908              	.LCFI80:
 1909              		.cfi_def_cfa_offset 16
 1910 0004 00AF     		add	r7, sp, #0
 1911              	.LCFI81:
 1912              		.cfi_def_cfa_register 7
 1913 0006 7860     		str	r0, [r7, #4]
 695:Drivers/STM32F3xx_HAL_Driver/Src/stm32f3xx_hal_pcd.c ****   /* NOTE : This function Should not be modified, when the callback is needed,
 696:Drivers/STM32F3xx_HAL_Driver/Src/stm32f3xx_hal_pcd.c ****             the HAL_PCD_ResumeCallback could be implemented in the user file
 697:Drivers/STM32F3xx_HAL_Driver/Src/stm32f3xx_hal_pcd.c ****    */ 
 698:Drivers/STM32F3xx_HAL_Driver/Src/stm32f3xx_hal_pcd.c **** }
 1914              		.loc 1 698 0
 1915 0008 00BF     		nop
 1916 000a 0C37     		adds	r7, r7, #12
 1917              	.LCFI82:
 1918              		.cfi_def_cfa_offset 4
 1919 000c BD46     		mov	sp, r7
 1920              	.LCFI83:
 1921              		.cfi_def_cfa_register 13
 1922              		@ sp needed
 1923 000e 5DF8047B 		ldr	r7, [sp], #4
 1924              	.LCFI84:
 1925              		.cfi_restore 7
 1926              		.cfi_def_cfa_offset 0
 1927 0012 7047     		bx	lr
 1928              		.cfi_endproc
 1929              	.LFE126:
 1931              		.section	.text.HAL_PCD_ISOOUTIncompleteCallback,"ax",%progbits
 1932              		.align	2
 1933              		.weak	HAL_PCD_ISOOUTIncompleteCallback
 1934              		.thumb
 1935              		.thumb_func
 1937              	HAL_PCD_ISOOUTIncompleteCallback:
 1938              	.LFB127:
 699:Drivers/STM32F3xx_HAL_Driver/Src/stm32f3xx_hal_pcd.c **** 
 700:Drivers/STM32F3xx_HAL_Driver/Src/stm32f3xx_hal_pcd.c **** /**
 701:Drivers/STM32F3xx_HAL_Driver/Src/stm32f3xx_hal_pcd.c ****   * @brief  Incomplete ISO OUT callbacks
 702:Drivers/STM32F3xx_HAL_Driver/Src/stm32f3xx_hal_pcd.c ****   * @param  hpcd: PCD handle
 703:Drivers/STM32F3xx_HAL_Driver/Src/stm32f3xx_hal_pcd.c ****   * @param  epnum: endpoint number
 704:Drivers/STM32F3xx_HAL_Driver/Src/stm32f3xx_hal_pcd.c ****   * @retval None
 705:Drivers/STM32F3xx_HAL_Driver/Src/stm32f3xx_hal_pcd.c ****   */
 706:Drivers/STM32F3xx_HAL_Driver/Src/stm32f3xx_hal_pcd.c ****  __weak void HAL_PCD_ISOOUTIncompleteCallback(PCD_HandleTypeDef *hpcd, uint8_t epnum)
 707:Drivers/STM32F3xx_HAL_Driver/Src/stm32f3xx_hal_pcd.c **** {
 1939              		.loc 1 707 0
 1940              		.cfi_startproc
 1941              		@ args = 0, pretend = 0, frame = 8
ARM GAS  /tmp/ccgaLh4p.s 			page 47


 1942              		@ frame_needed = 1, uses_anonymous_args = 0
 1943              		@ link register save eliminated.
 1944 0000 80B4     		push	{r7}
 1945              	.LCFI85:
 1946              		.cfi_def_cfa_offset 4
 1947              		.cfi_offset 7, -4
 1948 0002 83B0     		sub	sp, sp, #12
 1949              	.LCFI86:
 1950              		.cfi_def_cfa_offset 16
 1951 0004 00AF     		add	r7, sp, #0
 1952              	.LCFI87:
 1953              		.cfi_def_cfa_register 7
 1954 0006 7860     		str	r0, [r7, #4]
 1955 0008 0B46     		mov	r3, r1
 1956 000a FB70     		strb	r3, [r7, #3]
 708:Drivers/STM32F3xx_HAL_Driver/Src/stm32f3xx_hal_pcd.c ****   /* NOTE : This function Should not be modified, when the callback is needed,
 709:Drivers/STM32F3xx_HAL_Driver/Src/stm32f3xx_hal_pcd.c ****             the HAL_PCD_ISOOUTIncompleteCallback could be implemented in the user file
 710:Drivers/STM32F3xx_HAL_Driver/Src/stm32f3xx_hal_pcd.c ****    */ 
 711:Drivers/STM32F3xx_HAL_Driver/Src/stm32f3xx_hal_pcd.c **** }
 1957              		.loc 1 711 0
 1958 000c 00BF     		nop
 1959 000e 0C37     		adds	r7, r7, #12
 1960              	.LCFI88:
 1961              		.cfi_def_cfa_offset 4
 1962 0010 BD46     		mov	sp, r7
 1963              	.LCFI89:
 1964              		.cfi_def_cfa_register 13
 1965              		@ sp needed
 1966 0012 5DF8047B 		ldr	r7, [sp], #4
 1967              	.LCFI90:
 1968              		.cfi_restore 7
 1969              		.cfi_def_cfa_offset 0
 1970 0016 7047     		bx	lr
 1971              		.cfi_endproc
 1972              	.LFE127:
 1974              		.section	.text.HAL_PCD_ISOINIncompleteCallback,"ax",%progbits
 1975              		.align	2
 1976              		.weak	HAL_PCD_ISOINIncompleteCallback
 1977              		.thumb
 1978              		.thumb_func
 1980              	HAL_PCD_ISOINIncompleteCallback:
 1981              	.LFB128:
 712:Drivers/STM32F3xx_HAL_Driver/Src/stm32f3xx_hal_pcd.c **** 
 713:Drivers/STM32F3xx_HAL_Driver/Src/stm32f3xx_hal_pcd.c **** /**
 714:Drivers/STM32F3xx_HAL_Driver/Src/stm32f3xx_hal_pcd.c ****   * @brief  Incomplete ISO IN  callbacks
 715:Drivers/STM32F3xx_HAL_Driver/Src/stm32f3xx_hal_pcd.c ****   * @param  hpcd: PCD handle
 716:Drivers/STM32F3xx_HAL_Driver/Src/stm32f3xx_hal_pcd.c ****   * @param  epnum: endpoint number
 717:Drivers/STM32F3xx_HAL_Driver/Src/stm32f3xx_hal_pcd.c ****   * @retval None
 718:Drivers/STM32F3xx_HAL_Driver/Src/stm32f3xx_hal_pcd.c ****   */
 719:Drivers/STM32F3xx_HAL_Driver/Src/stm32f3xx_hal_pcd.c ****  __weak void HAL_PCD_ISOINIncompleteCallback(PCD_HandleTypeDef *hpcd, uint8_t epnum)
 720:Drivers/STM32F3xx_HAL_Driver/Src/stm32f3xx_hal_pcd.c **** {
 1982              		.loc 1 720 0
 1983              		.cfi_startproc
 1984              		@ args = 0, pretend = 0, frame = 8
 1985              		@ frame_needed = 1, uses_anonymous_args = 0
 1986              		@ link register save eliminated.
 1987 0000 80B4     		push	{r7}
ARM GAS  /tmp/ccgaLh4p.s 			page 48


 1988              	.LCFI91:
 1989              		.cfi_def_cfa_offset 4
 1990              		.cfi_offset 7, -4
 1991 0002 83B0     		sub	sp, sp, #12
 1992              	.LCFI92:
 1993              		.cfi_def_cfa_offset 16
 1994 0004 00AF     		add	r7, sp, #0
 1995              	.LCFI93:
 1996              		.cfi_def_cfa_register 7
 1997 0006 7860     		str	r0, [r7, #4]
 1998 0008 0B46     		mov	r3, r1
 1999 000a FB70     		strb	r3, [r7, #3]
 721:Drivers/STM32F3xx_HAL_Driver/Src/stm32f3xx_hal_pcd.c ****   /* NOTE : This function Should not be modified, when the callback is needed,
 722:Drivers/STM32F3xx_HAL_Driver/Src/stm32f3xx_hal_pcd.c ****             the HAL_PCD_ISOINIncompleteCallback could be implemented in the user file
 723:Drivers/STM32F3xx_HAL_Driver/Src/stm32f3xx_hal_pcd.c ****    */ 
 724:Drivers/STM32F3xx_HAL_Driver/Src/stm32f3xx_hal_pcd.c **** }
 2000              		.loc 1 724 0
 2001 000c 00BF     		nop
 2002 000e 0C37     		adds	r7, r7, #12
 2003              	.LCFI94:
 2004              		.cfi_def_cfa_offset 4
 2005 0010 BD46     		mov	sp, r7
 2006              	.LCFI95:
 2007              		.cfi_def_cfa_register 13
 2008              		@ sp needed
 2009 0012 5DF8047B 		ldr	r7, [sp], #4
 2010              	.LCFI96:
 2011              		.cfi_restore 7
 2012              		.cfi_def_cfa_offset 0
 2013 0016 7047     		bx	lr
 2014              		.cfi_endproc
 2015              	.LFE128:
 2017              		.section	.text.HAL_PCD_ConnectCallback,"ax",%progbits
 2018              		.align	2
 2019              		.weak	HAL_PCD_ConnectCallback
 2020              		.thumb
 2021              		.thumb_func
 2023              	HAL_PCD_ConnectCallback:
 2024              	.LFB129:
 725:Drivers/STM32F3xx_HAL_Driver/Src/stm32f3xx_hal_pcd.c **** 
 726:Drivers/STM32F3xx_HAL_Driver/Src/stm32f3xx_hal_pcd.c **** /**
 727:Drivers/STM32F3xx_HAL_Driver/Src/stm32f3xx_hal_pcd.c ****   * @brief  Connection event callbacks
 728:Drivers/STM32F3xx_HAL_Driver/Src/stm32f3xx_hal_pcd.c ****   * @param  hpcd: PCD handle
 729:Drivers/STM32F3xx_HAL_Driver/Src/stm32f3xx_hal_pcd.c ****   * @retval None
 730:Drivers/STM32F3xx_HAL_Driver/Src/stm32f3xx_hal_pcd.c ****   */
 731:Drivers/STM32F3xx_HAL_Driver/Src/stm32f3xx_hal_pcd.c ****  __weak void HAL_PCD_ConnectCallback(PCD_HandleTypeDef *hpcd)
 732:Drivers/STM32F3xx_HAL_Driver/Src/stm32f3xx_hal_pcd.c **** {
 2025              		.loc 1 732 0
 2026              		.cfi_startproc
 2027              		@ args = 0, pretend = 0, frame = 8
 2028              		@ frame_needed = 1, uses_anonymous_args = 0
 2029              		@ link register save eliminated.
 2030 0000 80B4     		push	{r7}
 2031              	.LCFI97:
 2032              		.cfi_def_cfa_offset 4
 2033              		.cfi_offset 7, -4
 2034 0002 83B0     		sub	sp, sp, #12
ARM GAS  /tmp/ccgaLh4p.s 			page 49


 2035              	.LCFI98:
 2036              		.cfi_def_cfa_offset 16
 2037 0004 00AF     		add	r7, sp, #0
 2038              	.LCFI99:
 2039              		.cfi_def_cfa_register 7
 2040 0006 7860     		str	r0, [r7, #4]
 733:Drivers/STM32F3xx_HAL_Driver/Src/stm32f3xx_hal_pcd.c ****   /* NOTE : This function Should not be modified, when the callback is needed,
 734:Drivers/STM32F3xx_HAL_Driver/Src/stm32f3xx_hal_pcd.c ****             the HAL_PCD_ConnectCallback could be implemented in the user file
 735:Drivers/STM32F3xx_HAL_Driver/Src/stm32f3xx_hal_pcd.c ****    */ 
 736:Drivers/STM32F3xx_HAL_Driver/Src/stm32f3xx_hal_pcd.c **** }
 2041              		.loc 1 736 0
 2042 0008 00BF     		nop
 2043 000a 0C37     		adds	r7, r7, #12
 2044              	.LCFI100:
 2045              		.cfi_def_cfa_offset 4
 2046 000c BD46     		mov	sp, r7
 2047              	.LCFI101:
 2048              		.cfi_def_cfa_register 13
 2049              		@ sp needed
 2050 000e 5DF8047B 		ldr	r7, [sp], #4
 2051              	.LCFI102:
 2052              		.cfi_restore 7
 2053              		.cfi_def_cfa_offset 0
 2054 0012 7047     		bx	lr
 2055              		.cfi_endproc
 2056              	.LFE129:
 2058              		.section	.text.HAL_PCD_DisconnectCallback,"ax",%progbits
 2059              		.align	2
 2060              		.weak	HAL_PCD_DisconnectCallback
 2061              		.thumb
 2062              		.thumb_func
 2064              	HAL_PCD_DisconnectCallback:
 2065              	.LFB130:
 737:Drivers/STM32F3xx_HAL_Driver/Src/stm32f3xx_hal_pcd.c **** 
 738:Drivers/STM32F3xx_HAL_Driver/Src/stm32f3xx_hal_pcd.c **** /**
 739:Drivers/STM32F3xx_HAL_Driver/Src/stm32f3xx_hal_pcd.c ****   * @brief  Disconnection event callbacks
 740:Drivers/STM32F3xx_HAL_Driver/Src/stm32f3xx_hal_pcd.c ****   * @param  hpcd: ppp handle
 741:Drivers/STM32F3xx_HAL_Driver/Src/stm32f3xx_hal_pcd.c ****   * @retval None
 742:Drivers/STM32F3xx_HAL_Driver/Src/stm32f3xx_hal_pcd.c ****   */
 743:Drivers/STM32F3xx_HAL_Driver/Src/stm32f3xx_hal_pcd.c ****  __weak void HAL_PCD_DisconnectCallback(PCD_HandleTypeDef *hpcd)
 744:Drivers/STM32F3xx_HAL_Driver/Src/stm32f3xx_hal_pcd.c **** {
 2066              		.loc 1 744 0
 2067              		.cfi_startproc
 2068              		@ args = 0, pretend = 0, frame = 8
 2069              		@ frame_needed = 1, uses_anonymous_args = 0
 2070              		@ link register save eliminated.
 2071 0000 80B4     		push	{r7}
 2072              	.LCFI103:
 2073              		.cfi_def_cfa_offset 4
 2074              		.cfi_offset 7, -4
 2075 0002 83B0     		sub	sp, sp, #12
 2076              	.LCFI104:
 2077              		.cfi_def_cfa_offset 16
 2078 0004 00AF     		add	r7, sp, #0
 2079              	.LCFI105:
 2080              		.cfi_def_cfa_register 7
 2081 0006 7860     		str	r0, [r7, #4]
ARM GAS  /tmp/ccgaLh4p.s 			page 50


 745:Drivers/STM32F3xx_HAL_Driver/Src/stm32f3xx_hal_pcd.c ****   /* NOTE : This function Should not be modified, when the callback is needed,
 746:Drivers/STM32F3xx_HAL_Driver/Src/stm32f3xx_hal_pcd.c ****             the HAL_PCD_DisconnectCallback could be implemented in the user file
 747:Drivers/STM32F3xx_HAL_Driver/Src/stm32f3xx_hal_pcd.c ****    */ 
 748:Drivers/STM32F3xx_HAL_Driver/Src/stm32f3xx_hal_pcd.c **** }
 2082              		.loc 1 748 0
 2083 0008 00BF     		nop
 2084 000a 0C37     		adds	r7, r7, #12
 2085              	.LCFI106:
 2086              		.cfi_def_cfa_offset 4
 2087 000c BD46     		mov	sp, r7
 2088              	.LCFI107:
 2089              		.cfi_def_cfa_register 13
 2090              		@ sp needed
 2091 000e 5DF8047B 		ldr	r7, [sp], #4
 2092              	.LCFI108:
 2093              		.cfi_restore 7
 2094              		.cfi_def_cfa_offset 0
 2095 0012 7047     		bx	lr
 2096              		.cfi_endproc
 2097              	.LFE130:
 2099              		.section	.text.HAL_PCD_DevConnect,"ax",%progbits
 2100              		.align	2
 2101              		.global	HAL_PCD_DevConnect
 2102              		.thumb
 2103              		.thumb_func
 2105              	HAL_PCD_DevConnect:
 2106              	.LFB131:
 749:Drivers/STM32F3xx_HAL_Driver/Src/stm32f3xx_hal_pcd.c **** /**
 750:Drivers/STM32F3xx_HAL_Driver/Src/stm32f3xx_hal_pcd.c ****   * @}
 751:Drivers/STM32F3xx_HAL_Driver/Src/stm32f3xx_hal_pcd.c ****   */
 752:Drivers/STM32F3xx_HAL_Driver/Src/stm32f3xx_hal_pcd.c ****   
 753:Drivers/STM32F3xx_HAL_Driver/Src/stm32f3xx_hal_pcd.c **** /** @defgroup PCD_Exported_Functions_Group3 Peripheral Control functions 
 754:Drivers/STM32F3xx_HAL_Driver/Src/stm32f3xx_hal_pcd.c ****  *  @brief   management functions 
 755:Drivers/STM32F3xx_HAL_Driver/Src/stm32f3xx_hal_pcd.c ****  *
 756:Drivers/STM32F3xx_HAL_Driver/Src/stm32f3xx_hal_pcd.c **** @verbatim   
 757:Drivers/STM32F3xx_HAL_Driver/Src/stm32f3xx_hal_pcd.c ****  ===============================================================================
 758:Drivers/STM32F3xx_HAL_Driver/Src/stm32f3xx_hal_pcd.c ****                       ##### Peripheral Control functions #####
 759:Drivers/STM32F3xx_HAL_Driver/Src/stm32f3xx_hal_pcd.c ****  ===============================================================================  
 760:Drivers/STM32F3xx_HAL_Driver/Src/stm32f3xx_hal_pcd.c ****     [..]
 761:Drivers/STM32F3xx_HAL_Driver/Src/stm32f3xx_hal_pcd.c ****     This subsection provides a set of functions allowing to control the PCD data 
 762:Drivers/STM32F3xx_HAL_Driver/Src/stm32f3xx_hal_pcd.c ****     transfers.
 763:Drivers/STM32F3xx_HAL_Driver/Src/stm32f3xx_hal_pcd.c **** 
 764:Drivers/STM32F3xx_HAL_Driver/Src/stm32f3xx_hal_pcd.c **** @endverbatim
 765:Drivers/STM32F3xx_HAL_Driver/Src/stm32f3xx_hal_pcd.c ****   * @{
 766:Drivers/STM32F3xx_HAL_Driver/Src/stm32f3xx_hal_pcd.c ****   */
 767:Drivers/STM32F3xx_HAL_Driver/Src/stm32f3xx_hal_pcd.c **** 
 768:Drivers/STM32F3xx_HAL_Driver/Src/stm32f3xx_hal_pcd.c **** /**
 769:Drivers/STM32F3xx_HAL_Driver/Src/stm32f3xx_hal_pcd.c ****   * @brief  Connect the USB device 
 770:Drivers/STM32F3xx_HAL_Driver/Src/stm32f3xx_hal_pcd.c ****   * @param  hpcd: PCD handle
 771:Drivers/STM32F3xx_HAL_Driver/Src/stm32f3xx_hal_pcd.c ****   * @retval HAL status
 772:Drivers/STM32F3xx_HAL_Driver/Src/stm32f3xx_hal_pcd.c ****   */
 773:Drivers/STM32F3xx_HAL_Driver/Src/stm32f3xx_hal_pcd.c **** HAL_StatusTypeDef HAL_PCD_DevConnect(PCD_HandleTypeDef *hpcd)
 774:Drivers/STM32F3xx_HAL_Driver/Src/stm32f3xx_hal_pcd.c **** {
 2107              		.loc 1 774 0
 2108              		.cfi_startproc
 2109              		@ args = 0, pretend = 0, frame = 8
 2110              		@ frame_needed = 1, uses_anonymous_args = 0
ARM GAS  /tmp/ccgaLh4p.s 			page 51


 2111 0000 80B5     		push	{r7, lr}
 2112              	.LCFI109:
 2113              		.cfi_def_cfa_offset 8
 2114              		.cfi_offset 7, -8
 2115              		.cfi_offset 14, -4
 2116 0002 82B0     		sub	sp, sp, #8
 2117              	.LCFI110:
 2118              		.cfi_def_cfa_offset 16
 2119 0004 00AF     		add	r7, sp, #0
 2120              	.LCFI111:
 2121              		.cfi_def_cfa_register 7
 2122 0006 7860     		str	r0, [r7, #4]
 775:Drivers/STM32F3xx_HAL_Driver/Src/stm32f3xx_hal_pcd.c ****   __HAL_LOCK(hpcd); 
 2123              		.loc 1 775 0
 2124 0008 7B68     		ldr	r3, [r7, #4]
 2125 000a 93F8E831 		ldrb	r3, [r3, #488]	@ zero_extendqisi2
 2126 000e 012B     		cmp	r3, #1
 2127 0010 01D1     		bne	.L74
 2128              		.loc 1 775 0 is_stmt 0 discriminator 1
 2129 0012 0223     		movs	r3, #2
 2130 0014 0CE0     		b	.L75
 2131              	.L74:
 2132              		.loc 1 775 0 discriminator 2
 2133 0016 7B68     		ldr	r3, [r7, #4]
 2134 0018 0122     		movs	r2, #1
 2135 001a 83F8E821 		strb	r2, [r3, #488]
 776:Drivers/STM32F3xx_HAL_Driver/Src/stm32f3xx_hal_pcd.c ****   
 777:Drivers/STM32F3xx_HAL_Driver/Src/stm32f3xx_hal_pcd.c ****   /* Enabling DP Pull-Down bit to Connect internal pull-up on USB DP line */
 778:Drivers/STM32F3xx_HAL_Driver/Src/stm32f3xx_hal_pcd.c ****    HAL_PCDEx_SetConnectionState(hpcd, 1);
 2136              		.loc 1 778 0 is_stmt 1 discriminator 2
 2137 001e 0121     		movs	r1, #1
 2138 0020 7868     		ldr	r0, [r7, #4]
 2139 0022 FFF7FEFF 		bl	HAL_PCDEx_SetConnectionState
 779:Drivers/STM32F3xx_HAL_Driver/Src/stm32f3xx_hal_pcd.c ****   
 780:Drivers/STM32F3xx_HAL_Driver/Src/stm32f3xx_hal_pcd.c ****   __HAL_UNLOCK(hpcd); 
 2140              		.loc 1 780 0 discriminator 2
 2141 0026 7B68     		ldr	r3, [r7, #4]
 2142 0028 0022     		movs	r2, #0
 2143 002a 83F8E821 		strb	r2, [r3, #488]
 781:Drivers/STM32F3xx_HAL_Driver/Src/stm32f3xx_hal_pcd.c ****   return HAL_OK;
 2144              		.loc 1 781 0 discriminator 2
 2145 002e 0023     		movs	r3, #0
 2146              	.L75:
 782:Drivers/STM32F3xx_HAL_Driver/Src/stm32f3xx_hal_pcd.c **** }
 2147              		.loc 1 782 0
 2148 0030 1846     		mov	r0, r3
 2149 0032 0837     		adds	r7, r7, #8
 2150              	.LCFI112:
 2151              		.cfi_def_cfa_offset 8
 2152 0034 BD46     		mov	sp, r7
 2153              	.LCFI113:
 2154              		.cfi_def_cfa_register 13
 2155              		@ sp needed
 2156 0036 80BD     		pop	{r7, pc}
 2157              		.cfi_endproc
 2158              	.LFE131:
 2160              		.section	.text.HAL_PCD_DevDisconnect,"ax",%progbits
ARM GAS  /tmp/ccgaLh4p.s 			page 52


 2161              		.align	2
 2162              		.global	HAL_PCD_DevDisconnect
 2163              		.thumb
 2164              		.thumb_func
 2166              	HAL_PCD_DevDisconnect:
 2167              	.LFB132:
 783:Drivers/STM32F3xx_HAL_Driver/Src/stm32f3xx_hal_pcd.c **** 
 784:Drivers/STM32F3xx_HAL_Driver/Src/stm32f3xx_hal_pcd.c **** /**
 785:Drivers/STM32F3xx_HAL_Driver/Src/stm32f3xx_hal_pcd.c ****   * @brief  Disconnect the USB device 
 786:Drivers/STM32F3xx_HAL_Driver/Src/stm32f3xx_hal_pcd.c ****   * @param  hpcd: PCD handle
 787:Drivers/STM32F3xx_HAL_Driver/Src/stm32f3xx_hal_pcd.c ****   * @retval HAL status
 788:Drivers/STM32F3xx_HAL_Driver/Src/stm32f3xx_hal_pcd.c ****   */
 789:Drivers/STM32F3xx_HAL_Driver/Src/stm32f3xx_hal_pcd.c **** HAL_StatusTypeDef HAL_PCD_DevDisconnect(PCD_HandleTypeDef *hpcd)
 790:Drivers/STM32F3xx_HAL_Driver/Src/stm32f3xx_hal_pcd.c **** {
 2168              		.loc 1 790 0
 2169              		.cfi_startproc
 2170              		@ args = 0, pretend = 0, frame = 8
 2171              		@ frame_needed = 1, uses_anonymous_args = 0
 2172 0000 80B5     		push	{r7, lr}
 2173              	.LCFI114:
 2174              		.cfi_def_cfa_offset 8
 2175              		.cfi_offset 7, -8
 2176              		.cfi_offset 14, -4
 2177 0002 82B0     		sub	sp, sp, #8
 2178              	.LCFI115:
 2179              		.cfi_def_cfa_offset 16
 2180 0004 00AF     		add	r7, sp, #0
 2181              	.LCFI116:
 2182              		.cfi_def_cfa_register 7
 2183 0006 7860     		str	r0, [r7, #4]
 791:Drivers/STM32F3xx_HAL_Driver/Src/stm32f3xx_hal_pcd.c ****   __HAL_LOCK(hpcd); 
 2184              		.loc 1 791 0
 2185 0008 7B68     		ldr	r3, [r7, #4]
 2186 000a 93F8E831 		ldrb	r3, [r3, #488]	@ zero_extendqisi2
 2187 000e 012B     		cmp	r3, #1
 2188 0010 01D1     		bne	.L77
 2189              		.loc 1 791 0 is_stmt 0 discriminator 1
 2190 0012 0223     		movs	r3, #2
 2191 0014 0CE0     		b	.L78
 2192              	.L77:
 2193              		.loc 1 791 0 discriminator 2
 2194 0016 7B68     		ldr	r3, [r7, #4]
 2195 0018 0122     		movs	r2, #1
 2196 001a 83F8E821 		strb	r2, [r3, #488]
 792:Drivers/STM32F3xx_HAL_Driver/Src/stm32f3xx_hal_pcd.c ****   
 793:Drivers/STM32F3xx_HAL_Driver/Src/stm32f3xx_hal_pcd.c ****   /* Disable DP Pull-Down bit*/
 794:Drivers/STM32F3xx_HAL_Driver/Src/stm32f3xx_hal_pcd.c ****   HAL_PCDEx_SetConnectionState(hpcd, 0);
 2197              		.loc 1 794 0 is_stmt 1 discriminator 2
 2198 001e 0021     		movs	r1, #0
 2199 0020 7868     		ldr	r0, [r7, #4]
 2200 0022 FFF7FEFF 		bl	HAL_PCDEx_SetConnectionState
 795:Drivers/STM32F3xx_HAL_Driver/Src/stm32f3xx_hal_pcd.c ****   
 796:Drivers/STM32F3xx_HAL_Driver/Src/stm32f3xx_hal_pcd.c ****   __HAL_UNLOCK(hpcd); 
 2201              		.loc 1 796 0 discriminator 2
 2202 0026 7B68     		ldr	r3, [r7, #4]
 2203 0028 0022     		movs	r2, #0
 2204 002a 83F8E821 		strb	r2, [r3, #488]
ARM GAS  /tmp/ccgaLh4p.s 			page 53


 797:Drivers/STM32F3xx_HAL_Driver/Src/stm32f3xx_hal_pcd.c ****   return HAL_OK;
 2205              		.loc 1 797 0 discriminator 2
 2206 002e 0023     		movs	r3, #0
 2207              	.L78:
 798:Drivers/STM32F3xx_HAL_Driver/Src/stm32f3xx_hal_pcd.c **** }
 2208              		.loc 1 798 0
 2209 0030 1846     		mov	r0, r3
 2210 0032 0837     		adds	r7, r7, #8
 2211              	.LCFI117:
 2212              		.cfi_def_cfa_offset 8
 2213 0034 BD46     		mov	sp, r7
 2214              	.LCFI118:
 2215              		.cfi_def_cfa_register 13
 2216              		@ sp needed
 2217 0036 80BD     		pop	{r7, pc}
 2218              		.cfi_endproc
 2219              	.LFE132:
 2221              		.section	.text.HAL_PCD_SetAddress,"ax",%progbits
 2222              		.align	2
 2223              		.global	HAL_PCD_SetAddress
 2224              		.thumb
 2225              		.thumb_func
 2227              	HAL_PCD_SetAddress:
 2228              	.LFB133:
 799:Drivers/STM32F3xx_HAL_Driver/Src/stm32f3xx_hal_pcd.c **** 
 800:Drivers/STM32F3xx_HAL_Driver/Src/stm32f3xx_hal_pcd.c **** /**
 801:Drivers/STM32F3xx_HAL_Driver/Src/stm32f3xx_hal_pcd.c ****   * @brief  Set the USB Device address 
 802:Drivers/STM32F3xx_HAL_Driver/Src/stm32f3xx_hal_pcd.c ****   * @param  hpcd: PCD handle
 803:Drivers/STM32F3xx_HAL_Driver/Src/stm32f3xx_hal_pcd.c ****   * @param  address: new device address
 804:Drivers/STM32F3xx_HAL_Driver/Src/stm32f3xx_hal_pcd.c ****   * @retval HAL status
 805:Drivers/STM32F3xx_HAL_Driver/Src/stm32f3xx_hal_pcd.c ****   */
 806:Drivers/STM32F3xx_HAL_Driver/Src/stm32f3xx_hal_pcd.c **** HAL_StatusTypeDef HAL_PCD_SetAddress(PCD_HandleTypeDef *hpcd, uint8_t address)
 807:Drivers/STM32F3xx_HAL_Driver/Src/stm32f3xx_hal_pcd.c **** {
 2229              		.loc 1 807 0
 2230              		.cfi_startproc
 2231              		@ args = 0, pretend = 0, frame = 8
 2232              		@ frame_needed = 1, uses_anonymous_args = 0
 2233              		@ link register save eliminated.
 2234 0000 80B4     		push	{r7}
 2235              	.LCFI119:
 2236              		.cfi_def_cfa_offset 4
 2237              		.cfi_offset 7, -4
 2238 0002 83B0     		sub	sp, sp, #12
 2239              	.LCFI120:
 2240              		.cfi_def_cfa_offset 16
 2241 0004 00AF     		add	r7, sp, #0
 2242              	.LCFI121:
 2243              		.cfi_def_cfa_register 7
 2244 0006 7860     		str	r0, [r7, #4]
 2245 0008 0B46     		mov	r3, r1
 2246 000a FB70     		strb	r3, [r7, #3]
 808:Drivers/STM32F3xx_HAL_Driver/Src/stm32f3xx_hal_pcd.c ****    __HAL_LOCK(hpcd); 
 2247              		.loc 1 808 0
 2248 000c 7B68     		ldr	r3, [r7, #4]
 2249 000e 93F8E831 		ldrb	r3, [r3, #488]	@ zero_extendqisi2
 2250 0012 012B     		cmp	r3, #1
 2251 0014 01D1     		bne	.L80
ARM GAS  /tmp/ccgaLh4p.s 			page 54


 2252              		.loc 1 808 0 is_stmt 0 discriminator 1
 2253 0016 0223     		movs	r3, #2
 2254 0018 15E0     		b	.L81
 2255              	.L80:
 2256              		.loc 1 808 0 discriminator 2
 2257 001a 7B68     		ldr	r3, [r7, #4]
 2258 001c 0122     		movs	r2, #1
 2259 001e 83F8E821 		strb	r2, [r3, #488]
 809:Drivers/STM32F3xx_HAL_Driver/Src/stm32f3xx_hal_pcd.c **** 
 810:Drivers/STM32F3xx_HAL_Driver/Src/stm32f3xx_hal_pcd.c ****    if(address == 0) 
 2260              		.loc 1 810 0 is_stmt 1 discriminator 2
 2261 0022 FB78     		ldrb	r3, [r7, #3]	@ zero_extendqisi2
 2262 0024 002B     		cmp	r3, #0
 2263 0026 05D1     		bne	.L82
 811:Drivers/STM32F3xx_HAL_Driver/Src/stm32f3xx_hal_pcd.c ****    {
 812:Drivers/STM32F3xx_HAL_Driver/Src/stm32f3xx_hal_pcd.c ****      /* set device address and enable function */
 813:Drivers/STM32F3xx_HAL_Driver/Src/stm32f3xx_hal_pcd.c ****      hpcd->Instance->DADDR = USB_DADDR_EF;
 2264              		.loc 1 813 0
 2265 0028 7B68     		ldr	r3, [r7, #4]
 2266 002a 1B68     		ldr	r3, [r3]
 2267 002c 8022     		movs	r2, #128
 2268 002e A3F84C20 		strh	r2, [r3, #76]	@ movhi
 2269 0032 03E0     		b	.L83
 2270              	.L82:
 814:Drivers/STM32F3xx_HAL_Driver/Src/stm32f3xx_hal_pcd.c ****    }
 815:Drivers/STM32F3xx_HAL_Driver/Src/stm32f3xx_hal_pcd.c ****    else /* USB Address will be applied later */
 816:Drivers/STM32F3xx_HAL_Driver/Src/stm32f3xx_hal_pcd.c ****    {
 817:Drivers/STM32F3xx_HAL_Driver/Src/stm32f3xx_hal_pcd.c ****      hpcd->USB_Address = address;
 2271              		.loc 1 817 0
 2272 0034 7B68     		ldr	r3, [r7, #4]
 2273 0036 FA78     		ldrb	r2, [r7, #3]
 2274 0038 83F82420 		strb	r2, [r3, #36]
 2275              	.L83:
 818:Drivers/STM32F3xx_HAL_Driver/Src/stm32f3xx_hal_pcd.c ****    }
 819:Drivers/STM32F3xx_HAL_Driver/Src/stm32f3xx_hal_pcd.c **** 
 820:Drivers/STM32F3xx_HAL_Driver/Src/stm32f3xx_hal_pcd.c ****   __HAL_UNLOCK(hpcd);   
 2276              		.loc 1 820 0
 2277 003c 7B68     		ldr	r3, [r7, #4]
 2278 003e 0022     		movs	r2, #0
 2279 0040 83F8E821 		strb	r2, [r3, #488]
 821:Drivers/STM32F3xx_HAL_Driver/Src/stm32f3xx_hal_pcd.c ****   return HAL_OK;
 2280              		.loc 1 821 0
 2281 0044 0023     		movs	r3, #0
 2282              	.L81:
 822:Drivers/STM32F3xx_HAL_Driver/Src/stm32f3xx_hal_pcd.c **** }
 2283              		.loc 1 822 0
 2284 0046 1846     		mov	r0, r3
 2285 0048 0C37     		adds	r7, r7, #12
 2286              	.LCFI122:
 2287              		.cfi_def_cfa_offset 4
 2288 004a BD46     		mov	sp, r7
 2289              	.LCFI123:
 2290              		.cfi_def_cfa_register 13
 2291              		@ sp needed
 2292 004c 5DF8047B 		ldr	r7, [sp], #4
 2293              	.LCFI124:
 2294              		.cfi_restore 7
ARM GAS  /tmp/ccgaLh4p.s 			page 55


 2295              		.cfi_def_cfa_offset 0
 2296 0050 7047     		bx	lr
 2297              		.cfi_endproc
 2298              	.LFE133:
 2300 0052 00BF     		.section	.text.HAL_PCD_EP_Open,"ax",%progbits
 2301              		.align	2
 2302              		.global	HAL_PCD_EP_Open
 2303              		.thumb
 2304              		.thumb_func
 2306              	HAL_PCD_EP_Open:
 2307              	.LFB134:
 823:Drivers/STM32F3xx_HAL_Driver/Src/stm32f3xx_hal_pcd.c **** /**
 824:Drivers/STM32F3xx_HAL_Driver/Src/stm32f3xx_hal_pcd.c ****   * @brief  Open and configure an endpoint
 825:Drivers/STM32F3xx_HAL_Driver/Src/stm32f3xx_hal_pcd.c ****   * @param  hpcd: PCD handle
 826:Drivers/STM32F3xx_HAL_Driver/Src/stm32f3xx_hal_pcd.c ****   * @param  ep_addr: endpoint address
 827:Drivers/STM32F3xx_HAL_Driver/Src/stm32f3xx_hal_pcd.c ****   * @param  ep_mps: endpoint max packert size
 828:Drivers/STM32F3xx_HAL_Driver/Src/stm32f3xx_hal_pcd.c ****   * @param  ep_type: endpoint type   
 829:Drivers/STM32F3xx_HAL_Driver/Src/stm32f3xx_hal_pcd.c ****   * @retval HAL status
 830:Drivers/STM32F3xx_HAL_Driver/Src/stm32f3xx_hal_pcd.c ****   */
 831:Drivers/STM32F3xx_HAL_Driver/Src/stm32f3xx_hal_pcd.c **** HAL_StatusTypeDef HAL_PCD_EP_Open(PCD_HandleTypeDef *hpcd, uint8_t ep_addr, uint16_t ep_mps, uint8_
 832:Drivers/STM32F3xx_HAL_Driver/Src/stm32f3xx_hal_pcd.c **** {
 2308              		.loc 1 832 0
 2309              		.cfi_startproc
 2310              		@ args = 0, pretend = 0, frame = 24
 2311              		@ frame_needed = 1, uses_anonymous_args = 0
 2312              		@ link register save eliminated.
 2313 0000 90B4     		push	{r4, r7}
 2314              	.LCFI125:
 2315              		.cfi_def_cfa_offset 8
 2316              		.cfi_offset 4, -8
 2317              		.cfi_offset 7, -4
 2318 0002 86B0     		sub	sp, sp, #24
 2319              	.LCFI126:
 2320              		.cfi_def_cfa_offset 32
 2321 0004 00AF     		add	r7, sp, #0
 2322              	.LCFI127:
 2323              		.cfi_def_cfa_register 7
 2324 0006 7860     		str	r0, [r7, #4]
 2325 0008 0846     		mov	r0, r1
 2326 000a 1146     		mov	r1, r2
 2327 000c 1A46     		mov	r2, r3
 2328 000e 0346     		mov	r3, r0
 2329 0010 FB70     		strb	r3, [r7, #3]
 2330 0012 0B46     		mov	r3, r1	@ movhi
 2331 0014 3B80     		strh	r3, [r7]	@ movhi
 2332 0016 1346     		mov	r3, r2
 2333 0018 BB70     		strb	r3, [r7, #2]
 833:Drivers/STM32F3xx_HAL_Driver/Src/stm32f3xx_hal_pcd.c ****   HAL_StatusTypeDef  ret = HAL_OK;
 2334              		.loc 1 833 0
 2335 001a 0023     		movs	r3, #0
 2336 001c 7B74     		strb	r3, [r7, #17]
 834:Drivers/STM32F3xx_HAL_Driver/Src/stm32f3xx_hal_pcd.c ****   PCD_EPTypeDef *ep;
 835:Drivers/STM32F3xx_HAL_Driver/Src/stm32f3xx_hal_pcd.c ****   
 836:Drivers/STM32F3xx_HAL_Driver/Src/stm32f3xx_hal_pcd.c ****   if ((ep_addr & 0x80) == 0x80)
 2337              		.loc 1 836 0
 2338 001e FB78     		ldrb	r3, [r7, #3]	@ zero_extendqisi2
 2339 0020 5BB2     		sxtb	r3, r3
ARM GAS  /tmp/ccgaLh4p.s 			page 56


 2340 0022 002B     		cmp	r3, #0
 2341 0024 0BDA     		bge	.L85
 837:Drivers/STM32F3xx_HAL_Driver/Src/stm32f3xx_hal_pcd.c ****   {
 838:Drivers/STM32F3xx_HAL_Driver/Src/stm32f3xx_hal_pcd.c ****     ep = &hpcd->IN_ep[ep_addr & 0x7F];
 2342              		.loc 1 838 0
 2343 0026 FB78     		ldrb	r3, [r7, #3]	@ zero_extendqisi2
 2344 0028 03F07F02 		and	r2, r3, #127
 2345 002c 1346     		mov	r3, r2
 2346 002e DB00     		lsls	r3, r3, #3
 2347 0030 9B1A     		subs	r3, r3, r2
 2348 0032 9B00     		lsls	r3, r3, #2
 2349 0034 2833     		adds	r3, r3, #40
 2350 0036 7A68     		ldr	r2, [r7, #4]
 2351 0038 1344     		add	r3, r3, r2
 2352 003a 7B61     		str	r3, [r7, #20]
 2353 003c 0BE0     		b	.L86
 2354              	.L85:
 839:Drivers/STM32F3xx_HAL_Driver/Src/stm32f3xx_hal_pcd.c ****   }
 840:Drivers/STM32F3xx_HAL_Driver/Src/stm32f3xx_hal_pcd.c ****   else
 841:Drivers/STM32F3xx_HAL_Driver/Src/stm32f3xx_hal_pcd.c ****   {
 842:Drivers/STM32F3xx_HAL_Driver/Src/stm32f3xx_hal_pcd.c ****     ep = &hpcd->OUT_ep[ep_addr & 0x7F];
 2355              		.loc 1 842 0
 2356 003e FB78     		ldrb	r3, [r7, #3]	@ zero_extendqisi2
 2357 0040 03F07F02 		and	r2, r3, #127
 2358 0044 1346     		mov	r3, r2
 2359 0046 DB00     		lsls	r3, r3, #3
 2360 0048 9B1A     		subs	r3, r3, r2
 2361 004a 9B00     		lsls	r3, r3, #2
 2362 004c 03F58473 		add	r3, r3, #264
 2363 0050 7A68     		ldr	r2, [r7, #4]
 2364 0052 1344     		add	r3, r3, r2
 2365 0054 7B61     		str	r3, [r7, #20]
 2366              	.L86:
 843:Drivers/STM32F3xx_HAL_Driver/Src/stm32f3xx_hal_pcd.c ****   }
 844:Drivers/STM32F3xx_HAL_Driver/Src/stm32f3xx_hal_pcd.c ****   ep->num   = ep_addr & 0x7F;
 2367              		.loc 1 844 0
 2368 0056 FB78     		ldrb	r3, [r7, #3]
 2369 0058 03F07F03 		and	r3, r3, #127
 2370 005c DAB2     		uxtb	r2, r3
 2371 005e 7B69     		ldr	r3, [r7, #20]
 2372 0060 1A70     		strb	r2, [r3]
 845:Drivers/STM32F3xx_HAL_Driver/Src/stm32f3xx_hal_pcd.c ****   
 846:Drivers/STM32F3xx_HAL_Driver/Src/stm32f3xx_hal_pcd.c ****   ep->is_in = (0x80 & ep_addr) != 0;
 2373              		.loc 1 846 0
 2374 0062 FB78     		ldrb	r3, [r7, #3]	@ zero_extendqisi2
 2375 0064 DB09     		lsrs	r3, r3, #7
 2376 0066 DBB2     		uxtb	r3, r3
 2377 0068 1A46     		mov	r2, r3
 2378 006a 7B69     		ldr	r3, [r7, #20]
 2379 006c 5A70     		strb	r2, [r3, #1]
 847:Drivers/STM32F3xx_HAL_Driver/Src/stm32f3xx_hal_pcd.c ****   ep->maxpacket = ep_mps;
 2380              		.loc 1 847 0
 2381 006e 3A88     		ldrh	r2, [r7]
 2382 0070 7B69     		ldr	r3, [r7, #20]
 2383 0072 DA60     		str	r2, [r3, #12]
 848:Drivers/STM32F3xx_HAL_Driver/Src/stm32f3xx_hal_pcd.c ****   ep->type = ep_type;
 2384              		.loc 1 848 0
ARM GAS  /tmp/ccgaLh4p.s 			page 57


 2385 0074 7B69     		ldr	r3, [r7, #20]
 2386 0076 BA78     		ldrb	r2, [r7, #2]
 2387 0078 DA70     		strb	r2, [r3, #3]
 849:Drivers/STM32F3xx_HAL_Driver/Src/stm32f3xx_hal_pcd.c ****   
 850:Drivers/STM32F3xx_HAL_Driver/Src/stm32f3xx_hal_pcd.c ****   __HAL_LOCK(hpcd); 
 2388              		.loc 1 850 0
 2389 007a 7B68     		ldr	r3, [r7, #4]
 2390 007c 93F8E831 		ldrb	r3, [r3, #488]	@ zero_extendqisi2
 2391 0080 012B     		cmp	r3, #1
 2392 0082 01D1     		bne	.L87
 2393              		.loc 1 850 0 is_stmt 0 discriminator 1
 2394 0084 0223     		movs	r3, #2
 2395 0086 81E3     		b	.L88
 2396              	.L87:
 2397              		.loc 1 850 0 discriminator 2
 2398 0088 7B68     		ldr	r3, [r7, #4]
 2399 008a 0122     		movs	r2, #1
 2400 008c 83F8E821 		strb	r2, [r3, #488]
 851:Drivers/STM32F3xx_HAL_Driver/Src/stm32f3xx_hal_pcd.c **** 
 852:Drivers/STM32F3xx_HAL_Driver/Src/stm32f3xx_hal_pcd.c **** /* initialize Endpoint */
 853:Drivers/STM32F3xx_HAL_Driver/Src/stm32f3xx_hal_pcd.c ****   switch (ep->type)
 2401              		.loc 1 853 0 is_stmt 1 discriminator 2
 2402 0090 7B69     		ldr	r3, [r7, #20]
 2403 0092 DB78     		ldrb	r3, [r3, #3]	@ zero_extendqisi2
 2404 0094 032B     		cmp	r3, #3
 2405 0096 76D8     		bhi	.L89
 2406 0098 01A2     		adr	r2, .L91
 2407 009a 52F823F0 		ldr	pc, [r2, r3, lsl #2]
 2408 009e 00BF     		.p2align 2
 2409              	.L91:
 2410 00a0 B1000000 		.word	.L90+1
 2411 00a4 4F010000 		.word	.L92+1
 2412 00a8 E9000000 		.word	.L93+1
 2413 00ac 17010000 		.word	.L94+1
 2414              		.p2align 1
 2415              	.L90:
 854:Drivers/STM32F3xx_HAL_Driver/Src/stm32f3xx_hal_pcd.c ****   {
 855:Drivers/STM32F3xx_HAL_Driver/Src/stm32f3xx_hal_pcd.c ****   case PCD_EP_TYPE_CTRL:
 856:Drivers/STM32F3xx_HAL_Driver/Src/stm32f3xx_hal_pcd.c ****     PCD_SET_EPTYPE(hpcd->Instance, ep->num, USB_EP_CONTROL);
 2416              		.loc 1 856 0
 2417 00b0 7B68     		ldr	r3, [r7, #4]
 2418 00b2 1B68     		ldr	r3, [r3]
 2419 00b4 1A46     		mov	r2, r3
 2420 00b6 7B69     		ldr	r3, [r7, #20]
 2421 00b8 1B78     		ldrb	r3, [r3]	@ zero_extendqisi2
 2422 00ba 9B00     		lsls	r3, r3, #2
 2423 00bc 1A44     		add	r2, r2, r3
 2424 00be 7B68     		ldr	r3, [r7, #4]
 2425 00c0 1B68     		ldr	r3, [r3]
 2426 00c2 1946     		mov	r1, r3
 2427 00c4 7B69     		ldr	r3, [r7, #20]
 2428 00c6 1B78     		ldrb	r3, [r3]	@ zero_extendqisi2
 2429 00c8 9B00     		lsls	r3, r3, #2
 2430 00ca 0B44     		add	r3, r3, r1
 2431 00cc 1B88     		ldrh	r3, [r3]	@ movhi
 2432 00ce 9BB2     		uxth	r3, r3
 2433 00d0 9BB2     		uxth	r3, r3
ARM GAS  /tmp/ccgaLh4p.s 			page 58


 2434 00d2 23F4EC43 		bic	r3, r3, #30208
 2435 00d6 23F07003 		bic	r3, r3, #112
 2436 00da 9BB2     		uxth	r3, r3
 2437 00dc 43F40073 		orr	r3, r3, #512
 2438 00e0 9BB2     		uxth	r3, r3
 2439 00e2 9BB2     		uxth	r3, r3
 2440 00e4 1380     		strh	r3, [r2]	@ movhi
 857:Drivers/STM32F3xx_HAL_Driver/Src/stm32f3xx_hal_pcd.c ****     break;
 2441              		.loc 1 857 0
 2442 00e6 4EE0     		b	.L89
 2443              	.L93:
 858:Drivers/STM32F3xx_HAL_Driver/Src/stm32f3xx_hal_pcd.c ****   case PCD_EP_TYPE_BULK:
 859:Drivers/STM32F3xx_HAL_Driver/Src/stm32f3xx_hal_pcd.c ****     PCD_SET_EPTYPE(hpcd->Instance, ep->num, USB_EP_BULK);
 2444              		.loc 1 859 0
 2445 00e8 7B68     		ldr	r3, [r7, #4]
 2446 00ea 1B68     		ldr	r3, [r3]
 2447 00ec 1A46     		mov	r2, r3
 2448 00ee 7B69     		ldr	r3, [r7, #20]
 2449 00f0 1B78     		ldrb	r3, [r3]	@ zero_extendqisi2
 2450 00f2 9B00     		lsls	r3, r3, #2
 2451 00f4 1A44     		add	r2, r2, r3
 2452 00f6 7B68     		ldr	r3, [r7, #4]
 2453 00f8 1B68     		ldr	r3, [r3]
 2454 00fa 1946     		mov	r1, r3
 2455 00fc 7B69     		ldr	r3, [r7, #20]
 2456 00fe 1B78     		ldrb	r3, [r3]	@ zero_extendqisi2
 2457 0100 9B00     		lsls	r3, r3, #2
 2458 0102 0B44     		add	r3, r3, r1
 2459 0104 1B88     		ldrh	r3, [r3]	@ movhi
 2460 0106 9BB2     		uxth	r3, r3
 2461 0108 23F4EC43 		bic	r3, r3, #30208
 2462 010c 23F07003 		bic	r3, r3, #112
 2463 0110 9BB2     		uxth	r3, r3
 2464 0112 1380     		strh	r3, [r2]	@ movhi
 860:Drivers/STM32F3xx_HAL_Driver/Src/stm32f3xx_hal_pcd.c ****     break;
 2465              		.loc 1 860 0
 2466 0114 37E0     		b	.L89
 2467              	.L94:
 861:Drivers/STM32F3xx_HAL_Driver/Src/stm32f3xx_hal_pcd.c ****   case PCD_EP_TYPE_INTR:
 862:Drivers/STM32F3xx_HAL_Driver/Src/stm32f3xx_hal_pcd.c ****     PCD_SET_EPTYPE(hpcd->Instance, ep->num, USB_EP_INTERRUPT);
 2468              		.loc 1 862 0
 2469 0116 7B68     		ldr	r3, [r7, #4]
 2470 0118 1B68     		ldr	r3, [r3]
 2471 011a 1A46     		mov	r2, r3
 2472 011c 7B69     		ldr	r3, [r7, #20]
 2473 011e 1B78     		ldrb	r3, [r3]	@ zero_extendqisi2
 2474 0120 9B00     		lsls	r3, r3, #2
 2475 0122 1A44     		add	r2, r2, r3
 2476 0124 7B68     		ldr	r3, [r7, #4]
 2477 0126 1B68     		ldr	r3, [r3]
 2478 0128 1946     		mov	r1, r3
 2479 012a 7B69     		ldr	r3, [r7, #20]
 2480 012c 1B78     		ldrb	r3, [r3]	@ zero_extendqisi2
 2481 012e 9B00     		lsls	r3, r3, #2
 2482 0130 0B44     		add	r3, r3, r1
 2483 0132 1B88     		ldrh	r3, [r3]	@ movhi
 2484 0134 9BB2     		uxth	r3, r3
ARM GAS  /tmp/ccgaLh4p.s 			page 59


 2485 0136 9BB2     		uxth	r3, r3
 2486 0138 23F4EC43 		bic	r3, r3, #30208
 2487 013c 23F07003 		bic	r3, r3, #112
 2488 0140 9BB2     		uxth	r3, r3
 2489 0142 43F4C063 		orr	r3, r3, #1536
 2490 0146 9BB2     		uxth	r3, r3
 2491 0148 9BB2     		uxth	r3, r3
 2492 014a 1380     		strh	r3, [r2]	@ movhi
 863:Drivers/STM32F3xx_HAL_Driver/Src/stm32f3xx_hal_pcd.c ****     break;
 2493              		.loc 1 863 0
 2494 014c 1BE0     		b	.L89
 2495              	.L92:
 864:Drivers/STM32F3xx_HAL_Driver/Src/stm32f3xx_hal_pcd.c ****   case PCD_EP_TYPE_ISOC:
 865:Drivers/STM32F3xx_HAL_Driver/Src/stm32f3xx_hal_pcd.c ****     PCD_SET_EPTYPE(hpcd->Instance, ep->num, USB_EP_ISOCHRONOUS);
 2496              		.loc 1 865 0
 2497 014e 7B68     		ldr	r3, [r7, #4]
 2498 0150 1B68     		ldr	r3, [r3]
 2499 0152 1A46     		mov	r2, r3
 2500 0154 7B69     		ldr	r3, [r7, #20]
 2501 0156 1B78     		ldrb	r3, [r3]	@ zero_extendqisi2
 2502 0158 9B00     		lsls	r3, r3, #2
 2503 015a 1A44     		add	r2, r2, r3
 2504 015c 7B68     		ldr	r3, [r7, #4]
 2505 015e 1B68     		ldr	r3, [r3]
 2506 0160 1946     		mov	r1, r3
 2507 0162 7B69     		ldr	r3, [r7, #20]
 2508 0164 1B78     		ldrb	r3, [r3]	@ zero_extendqisi2
 2509 0166 9B00     		lsls	r3, r3, #2
 2510 0168 0B44     		add	r3, r3, r1
 2511 016a 1B88     		ldrh	r3, [r3]	@ movhi
 2512 016c 9BB2     		uxth	r3, r3
 2513 016e 9BB2     		uxth	r3, r3
 2514 0170 23F4EC43 		bic	r3, r3, #30208
 2515 0174 23F07003 		bic	r3, r3, #112
 2516 0178 9BB2     		uxth	r3, r3
 2517 017a 43F48063 		orr	r3, r3, #1024
 2518 017e 9BB2     		uxth	r3, r3
 2519 0180 9BB2     		uxth	r3, r3
 2520 0182 1380     		strh	r3, [r2]	@ movhi
 866:Drivers/STM32F3xx_HAL_Driver/Src/stm32f3xx_hal_pcd.c ****     break;
 2521              		.loc 1 866 0
 2522 0184 00BF     		nop
 2523              	.L89:
 867:Drivers/STM32F3xx_HAL_Driver/Src/stm32f3xx_hal_pcd.c ****   } 
 868:Drivers/STM32F3xx_HAL_Driver/Src/stm32f3xx_hal_pcd.c ****   
 869:Drivers/STM32F3xx_HAL_Driver/Src/stm32f3xx_hal_pcd.c ****   PCD_SET_EP_ADDRESS(hpcd->Instance, ep->num, ep->num);
 2524              		.loc 1 869 0
 2525 0186 7B68     		ldr	r3, [r7, #4]
 2526 0188 1B68     		ldr	r3, [r3]
 2527 018a 1A46     		mov	r2, r3
 2528 018c 7B69     		ldr	r3, [r7, #20]
 2529 018e 1B78     		ldrb	r3, [r3]	@ zero_extendqisi2
 2530 0190 9B00     		lsls	r3, r3, #2
 2531 0192 1A44     		add	r2, r2, r3
 2532 0194 7B68     		ldr	r3, [r7, #4]
 2533 0196 1B68     		ldr	r3, [r3]
 2534 0198 1946     		mov	r1, r3
ARM GAS  /tmp/ccgaLh4p.s 			page 60


 2535 019a 7B69     		ldr	r3, [r7, #20]
 2536 019c 1B78     		ldrb	r3, [r3]	@ zero_extendqisi2
 2537 019e 9B00     		lsls	r3, r3, #2
 2538 01a0 0B44     		add	r3, r3, r1
 2539 01a2 1B88     		ldrh	r3, [r3]	@ movhi
 2540 01a4 9BB2     		uxth	r3, r3
 2541 01a6 9BB2     		uxth	r3, r3
 2542 01a8 23F0F003 		bic	r3, r3, #240
 2543 01ac 1B05     		lsls	r3, r3, #20
 2544 01ae 1B0D     		lsrs	r3, r3, #20
 2545 01b0 9BB2     		uxth	r3, r3
 2546 01b2 43F07F43 		orr	r3, r3, #-16777216
 2547 01b6 43F47F03 		orr	r3, r3, #16711680
 2548 01ba 43F40043 		orr	r3, r3, #32768
 2549 01be 43F08003 		orr	r3, r3, #128
 2550 01c2 99B2     		uxth	r1, r3
 2551 01c4 7B69     		ldr	r3, [r7, #20]
 2552 01c6 1B78     		ldrb	r3, [r3]	@ zero_extendqisi2
 2553 01c8 9BB2     		uxth	r3, r3
 2554 01ca 0B43     		orrs	r3, r3, r1
 2555 01cc 9BB2     		uxth	r3, r3
 2556 01ce 9BB2     		uxth	r3, r3
 2557 01d0 1380     		strh	r3, [r2]	@ movhi
 870:Drivers/STM32F3xx_HAL_Driver/Src/stm32f3xx_hal_pcd.c ****   
 871:Drivers/STM32F3xx_HAL_Driver/Src/stm32f3xx_hal_pcd.c ****   if (ep->doublebuffer == 0) 
 2558              		.loc 1 871 0
 2559 01d2 7B69     		ldr	r3, [r7, #20]
 2560 01d4 9B7A     		ldrb	r3, [r3, #10]	@ zero_extendqisi2
 2561 01d6 002B     		cmp	r3, #0
 2562 01d8 40F01481 		bne	.L95
 872:Drivers/STM32F3xx_HAL_Driver/Src/stm32f3xx_hal_pcd.c ****   {
 873:Drivers/STM32F3xx_HAL_Driver/Src/stm32f3xx_hal_pcd.c ****     if (ep->is_in)
 2563              		.loc 1 873 0
 2564 01dc 7B69     		ldr	r3, [r7, #20]
 2565 01de 5B78     		ldrb	r3, [r3, #1]	@ zero_extendqisi2
 2566 01e0 002B     		cmp	r3, #0
 2567 01e2 62D0     		beq	.L96
 874:Drivers/STM32F3xx_HAL_Driver/Src/stm32f3xx_hal_pcd.c ****     {
 875:Drivers/STM32F3xx_HAL_Driver/Src/stm32f3xx_hal_pcd.c ****       /*Set the endpoint Transmit buffer address */
 876:Drivers/STM32F3xx_HAL_Driver/Src/stm32f3xx_hal_pcd.c ****       PCD_SET_EP_TX_ADDRESS(hpcd->Instance, ep->num, ep->pmaadress);
 2568              		.loc 1 876 0
 2569 01e4 7B68     		ldr	r3, [r7, #4]
 2570 01e6 1B68     		ldr	r3, [r3]
 2571 01e8 B3F85030 		ldrh	r3, [r3, #80]	@ movhi
 2572 01ec 9BB2     		uxth	r3, r3
 2573 01ee 1A46     		mov	r2, r3
 2574 01f0 7B69     		ldr	r3, [r7, #20]
 2575 01f2 1B78     		ldrb	r3, [r3]	@ zero_extendqisi2
 2576 01f4 DB00     		lsls	r3, r3, #3
 2577 01f6 1344     		add	r3, r3, r2
 2578 01f8 5B00     		lsls	r3, r3, #1
 2579 01fa 1A46     		mov	r2, r3
 2580 01fc 7B68     		ldr	r3, [r7, #4]
 2581 01fe 1B68     		ldr	r3, [r3]
 2582 0200 1344     		add	r3, r3, r2
 2583 0202 03F58063 		add	r3, r3, #1024
 2584 0206 1A46     		mov	r2, r3
ARM GAS  /tmp/ccgaLh4p.s 			page 61


 2585 0208 7B69     		ldr	r3, [r7, #20]
 2586 020a 9B88     		ldrh	r3, [r3, #4]
 2587 020c 5B08     		lsrs	r3, r3, #1
 2588 020e 9BB2     		uxth	r3, r3
 2589 0210 5B00     		lsls	r3, r3, #1
 2590 0212 1360     		str	r3, [r2]
 877:Drivers/STM32F3xx_HAL_Driver/Src/stm32f3xx_hal_pcd.c ****       PCD_CLEAR_TX_DTOG(hpcd->Instance, ep->num);
 2591              		.loc 1 877 0
 2592 0214 7B68     		ldr	r3, [r7, #4]
 2593 0216 1B68     		ldr	r3, [r3]
 2594 0218 1A46     		mov	r2, r3
 2595 021a 7B69     		ldr	r3, [r7, #20]
 2596 021c 1B78     		ldrb	r3, [r3]	@ zero_extendqisi2
 2597 021e 9B00     		lsls	r3, r3, #2
 2598 0220 1344     		add	r3, r3, r2
 2599 0222 1B88     		ldrh	r3, [r3]	@ movhi
 2600 0224 9BB2     		uxth	r3, r3
 2601 0226 03F04003 		and	r3, r3, #64
 2602 022a 002B     		cmp	r3, #0
 2603 022c 20D0     		beq	.L97
 2604              		.loc 1 877 0 is_stmt 0 discriminator 1
 2605 022e 7B68     		ldr	r3, [r7, #4]
 2606 0230 1B68     		ldr	r3, [r3]
 2607 0232 1A46     		mov	r2, r3
 2608 0234 7B69     		ldr	r3, [r7, #20]
 2609 0236 1B78     		ldrb	r3, [r3]	@ zero_extendqisi2
 2610 0238 9B00     		lsls	r3, r3, #2
 2611 023a 1A44     		add	r2, r2, r3
 2612 023c 7B68     		ldr	r3, [r7, #4]
 2613 023e 1B68     		ldr	r3, [r3]
 2614 0240 1946     		mov	r1, r3
 2615 0242 7B69     		ldr	r3, [r7, #20]
 2616 0244 1B78     		ldrb	r3, [r3]	@ zero_extendqisi2
 2617 0246 9B00     		lsls	r3, r3, #2
 2618 0248 0B44     		add	r3, r3, r1
 2619 024a 1B88     		ldrh	r3, [r3]	@ movhi
 2620 024c 9BB2     		uxth	r3, r3
 2621 024e 9BB2     		uxth	r3, r3
 2622 0250 23F0F003 		bic	r3, r3, #240
 2623 0254 1B05     		lsls	r3, r3, #20
 2624 0256 1B0D     		lsrs	r3, r3, #20
 2625 0258 9BB2     		uxth	r3, r3
 2626 025a 43F07F43 		orr	r3, r3, #-16777216
 2627 025e 43F47F03 		orr	r3, r3, #16711680
 2628 0262 43F40043 		orr	r3, r3, #32768
 2629 0266 43F0C003 		orr	r3, r3, #192
 2630 026a 9BB2     		uxth	r3, r3
 2631 026c 9BB2     		uxth	r3, r3
 2632 026e 1380     		strh	r3, [r2]	@ movhi
 2633              	.L97:
 2634              	.LBB5:
 878:Drivers/STM32F3xx_HAL_Driver/Src/stm32f3xx_hal_pcd.c ****       /* Configure NAK status for the Endpoint*/
 879:Drivers/STM32F3xx_HAL_Driver/Src/stm32f3xx_hal_pcd.c ****       PCD_SET_EP_TX_STATUS(hpcd->Instance, ep->num, USB_EP_TX_NAK); 
 2635              		.loc 1 879 0 is_stmt 1
 2636 0270 7B68     		ldr	r3, [r7, #4]
 2637 0272 1B68     		ldr	r3, [r3]
 2638 0274 1A46     		mov	r2, r3
ARM GAS  /tmp/ccgaLh4p.s 			page 62


 2639 0276 7B69     		ldr	r3, [r7, #20]
 2640 0278 1B78     		ldrb	r3, [r3]	@ zero_extendqisi2
 2641 027a 9B00     		lsls	r3, r3, #2
 2642 027c 1344     		add	r3, r3, r2
 2643 027e 1B88     		ldrh	r3, [r3]	@ movhi
 2644 0280 9BB2     		uxth	r3, r3
 2645 0282 23F4E043 		bic	r3, r3, #28672
 2646 0286 23F04003 		bic	r3, r3, #64
 2647 028a 9CB2     		uxth	r4, r3
 2648 028c 84F02003 		eor	r3, r4, #32
 2649 0290 9CB2     		uxth	r4, r3
 2650 0292 7B68     		ldr	r3, [r7, #4]
 2651 0294 1B68     		ldr	r3, [r3]
 2652 0296 1A46     		mov	r2, r3
 2653 0298 7B69     		ldr	r3, [r7, #20]
 2654 029a 1B78     		ldrb	r3, [r3]	@ zero_extendqisi2
 2655 029c 9B00     		lsls	r3, r3, #2
 2656 029e 1A44     		add	r2, r2, r3
 2657 02a0 574B     		ldr	r3, .L110
 2658 02a2 2343     		orrs	r3, r3, r4
 2659 02a4 9BB2     		uxth	r3, r3
 2660 02a6 1380     		strh	r3, [r2]	@ movhi
 2661              	.LBE5:
 2662 02a8 6BE2     		b	.L104
 2663              	.L96:
 880:Drivers/STM32F3xx_HAL_Driver/Src/stm32f3xx_hal_pcd.c ****     }
 881:Drivers/STM32F3xx_HAL_Driver/Src/stm32f3xx_hal_pcd.c ****     else
 882:Drivers/STM32F3xx_HAL_Driver/Src/stm32f3xx_hal_pcd.c ****     {
 883:Drivers/STM32F3xx_HAL_Driver/Src/stm32f3xx_hal_pcd.c ****       /*Set the endpoint Receive buffer address */
 884:Drivers/STM32F3xx_HAL_Driver/Src/stm32f3xx_hal_pcd.c ****       PCD_SET_EP_RX_ADDRESS(hpcd->Instance, ep->num, ep->pmaadress);
 2664              		.loc 1 884 0
 2665 02aa 7B68     		ldr	r3, [r7, #4]
 2666 02ac 1B68     		ldr	r3, [r3]
 2667 02ae B3F85030 		ldrh	r3, [r3, #80]	@ movhi
 2668 02b2 9BB2     		uxth	r3, r3
 2669 02b4 1A46     		mov	r2, r3
 2670 02b6 7B69     		ldr	r3, [r7, #20]
 2671 02b8 1B78     		ldrb	r3, [r3]	@ zero_extendqisi2
 2672 02ba DB00     		lsls	r3, r3, #3
 2673 02bc 1344     		add	r3, r3, r2
 2674 02be 0433     		adds	r3, r3, #4
 2675 02c0 5B00     		lsls	r3, r3, #1
 2676 02c2 1A46     		mov	r2, r3
 2677 02c4 7B68     		ldr	r3, [r7, #4]
 2678 02c6 1B68     		ldr	r3, [r3]
 2679 02c8 1344     		add	r3, r3, r2
 2680 02ca 03F58063 		add	r3, r3, #1024
 2681 02ce 1A46     		mov	r2, r3
 2682 02d0 7B69     		ldr	r3, [r7, #20]
 2683 02d2 9B88     		ldrh	r3, [r3, #4]
 2684 02d4 5B08     		lsrs	r3, r3, #1
 2685 02d6 9BB2     		uxth	r3, r3
 2686 02d8 5B00     		lsls	r3, r3, #1
 2687 02da 1360     		str	r3, [r2]
 2688              	.LBB6:
 885:Drivers/STM32F3xx_HAL_Driver/Src/stm32f3xx_hal_pcd.c ****       /*Set the endpoint Receive buffer counter*/
 886:Drivers/STM32F3xx_HAL_Driver/Src/stm32f3xx_hal_pcd.c ****       PCD_SET_EP_RX_CNT(hpcd->Instance, ep->num, ep->maxpacket);
ARM GAS  /tmp/ccgaLh4p.s 			page 63


 2689              		.loc 1 886 0
 2690 02dc 7B68     		ldr	r3, [r7, #4]
 2691 02de 1B68     		ldr	r3, [r3]
 2692 02e0 B3F85030 		ldrh	r3, [r3, #80]	@ movhi
 2693 02e4 9BB2     		uxth	r3, r3
 2694 02e6 1A46     		mov	r2, r3
 2695 02e8 7B69     		ldr	r3, [r7, #20]
 2696 02ea 1B78     		ldrb	r3, [r3]	@ zero_extendqisi2
 2697 02ec DB00     		lsls	r3, r3, #3
 2698 02ee 1344     		add	r3, r3, r2
 2699 02f0 0633     		adds	r3, r3, #6
 2700 02f2 5B00     		lsls	r3, r3, #1
 2701 02f4 1A46     		mov	r2, r3
 2702 02f6 7B68     		ldr	r3, [r7, #4]
 2703 02f8 1B68     		ldr	r3, [r3]
 2704 02fa 1344     		add	r3, r3, r2
 2705 02fc 03F58063 		add	r3, r3, #1024
 2706 0300 FB60     		str	r3, [r7, #12]
 2707              	.LBB7:
 2708 0302 7B69     		ldr	r3, [r7, #20]
 2709 0304 DB68     		ldr	r3, [r3, #12]
 2710 0306 3E2B     		cmp	r3, #62
 2711 0308 19D9     		bls	.L99
 2712              		.loc 1 886 0 is_stmt 0 discriminator 1
 2713 030a 7B69     		ldr	r3, [r7, #20]
 2714 030c DB68     		ldr	r3, [r3, #12]
 2715 030e 5B09     		lsrs	r3, r3, #5
 2716 0310 7B82     		strh	r3, [r7, #18]	@ movhi
 2717 0312 7B69     		ldr	r3, [r7, #20]
 2718 0314 DB68     		ldr	r3, [r3, #12]
 2719 0316 03F01F03 		and	r3, r3, #31
 2720 031a 002B     		cmp	r3, #0
 2721 031c 02D1     		bne	.L100
 2722              		.loc 1 886 0 discriminator 3
 2723 031e 7B8A     		ldrh	r3, [r7, #18]
 2724 0320 013B     		subs	r3, r3, #1
 2725 0322 7B82     		strh	r3, [r7, #18]	@ movhi
 2726              	.L100:
 2727              		.loc 1 886 0 discriminator 5
 2728 0324 7B8A     		ldrh	r3, [r7, #18]
 2729 0326 9B02     		lsls	r3, r3, #10
 2730 0328 9BB2     		uxth	r3, r3
 2731 032a 6FEA4343 		mvn	r3, r3, lsl #17
 2732 032e 6FEA5343 		mvn	r3, r3, lsr #17
 2733 0332 9BB2     		uxth	r3, r3
 2734 0334 9BB2     		uxth	r3, r3
 2735 0336 1A46     		mov	r2, r3
 2736 0338 FB68     		ldr	r3, [r7, #12]
 2737 033a 1A60     		str	r2, [r3]
 2738 033c 12E0     		b	.L101
 2739              	.L99:
 2740              		.loc 1 886 0 discriminator 2
 2741 033e 7B69     		ldr	r3, [r7, #20]
 2742 0340 DB68     		ldr	r3, [r3, #12]
 2743 0342 5B08     		lsrs	r3, r3, #1
 2744 0344 7B82     		strh	r3, [r7, #18]	@ movhi
 2745 0346 7B69     		ldr	r3, [r7, #20]
ARM GAS  /tmp/ccgaLh4p.s 			page 64


 2746 0348 DB68     		ldr	r3, [r3, #12]
 2747 034a 03F00103 		and	r3, r3, #1
 2748 034e 002B     		cmp	r3, #0
 2749 0350 02D0     		beq	.L102
 2750              		.loc 1 886 0 discriminator 6
 2751 0352 7B8A     		ldrh	r3, [r7, #18]
 2752 0354 0133     		adds	r3, r3, #1
 2753 0356 7B82     		strh	r3, [r7, #18]	@ movhi
 2754              	.L102:
 2755              		.loc 1 886 0 discriminator 8
 2756 0358 7B8A     		ldrh	r3, [r7, #18]	@ movhi
 2757 035a 9B02     		lsls	r3, r3, #10
 2758 035c 9BB2     		uxth	r3, r3
 2759 035e 1A46     		mov	r2, r3
 2760 0360 FB68     		ldr	r3, [r7, #12]
 2761 0362 1A60     		str	r2, [r3]
 2762              	.L101:
 2763              	.LBE7:
 2764              	.LBE6:
 887:Drivers/STM32F3xx_HAL_Driver/Src/stm32f3xx_hal_pcd.c ****       PCD_CLEAR_RX_DTOG(hpcd->Instance, ep->num);
 2765              		.loc 1 887 0 is_stmt 1
 2766 0364 7B68     		ldr	r3, [r7, #4]
 2767 0366 1B68     		ldr	r3, [r3]
 2768 0368 1A46     		mov	r2, r3
 2769 036a 7B69     		ldr	r3, [r7, #20]
 2770 036c 1B78     		ldrb	r3, [r3]	@ zero_extendqisi2
 2771 036e 9B00     		lsls	r3, r3, #2
 2772 0370 1344     		add	r3, r3, r2
 2773 0372 1B88     		ldrh	r3, [r3]	@ movhi
 2774 0374 9BB2     		uxth	r3, r3
 2775 0376 03F48043 		and	r3, r3, #16384
 2776 037a 002B     		cmp	r3, #0
 2777 037c 20D0     		beq	.L103
 2778              		.loc 1 887 0 is_stmt 0 discriminator 1
 2779 037e 7B68     		ldr	r3, [r7, #4]
 2780 0380 1B68     		ldr	r3, [r3]
 2781 0382 1A46     		mov	r2, r3
 2782 0384 7B69     		ldr	r3, [r7, #20]
 2783 0386 1B78     		ldrb	r3, [r3]	@ zero_extendqisi2
 2784 0388 9B00     		lsls	r3, r3, #2
 2785 038a 1A44     		add	r2, r2, r3
 2786 038c 7B68     		ldr	r3, [r7, #4]
 2787 038e 1B68     		ldr	r3, [r3]
 2788 0390 1946     		mov	r1, r3
 2789 0392 7B69     		ldr	r3, [r7, #20]
 2790 0394 1B78     		ldrb	r3, [r3]	@ zero_extendqisi2
 2791 0396 9B00     		lsls	r3, r3, #2
 2792 0398 0B44     		add	r3, r3, r1
 2793 039a 1B88     		ldrh	r3, [r3]	@ movhi
 2794 039c 9BB2     		uxth	r3, r3
 2795 039e 9BB2     		uxth	r3, r3
 2796 03a0 23F0F003 		bic	r3, r3, #240
 2797 03a4 1B05     		lsls	r3, r3, #20
 2798 03a6 1B0D     		lsrs	r3, r3, #20
 2799 03a8 9BB2     		uxth	r3, r3
 2800 03aa 43F07F43 		orr	r3, r3, #-16777216
 2801 03ae 43F47F03 		orr	r3, r3, #16711680
ARM GAS  /tmp/ccgaLh4p.s 			page 65


 2802 03b2 43F44043 		orr	r3, r3, #49152
 2803 03b6 43F08003 		orr	r3, r3, #128
 2804 03ba 9BB2     		uxth	r3, r3
 2805 03bc 9BB2     		uxth	r3, r3
 2806 03be 1380     		strh	r3, [r2]	@ movhi
 2807              	.L103:
 2808              	.LBB8:
 888:Drivers/STM32F3xx_HAL_Driver/Src/stm32f3xx_hal_pcd.c ****       /* Configure VALID status for the Endpoint*/
 889:Drivers/STM32F3xx_HAL_Driver/Src/stm32f3xx_hal_pcd.c ****       PCD_SET_EP_RX_STATUS(hpcd->Instance, ep->num, USB_EP_RX_VALID);
 2809              		.loc 1 889 0 is_stmt 1
 2810 03c0 7B68     		ldr	r3, [r7, #4]
 2811 03c2 1B68     		ldr	r3, [r3]
 2812 03c4 1A46     		mov	r2, r3
 2813 03c6 7B69     		ldr	r3, [r7, #20]
 2814 03c8 1B78     		ldrb	r3, [r3]	@ zero_extendqisi2
 2815 03ca 9B00     		lsls	r3, r3, #2
 2816 03cc 1344     		add	r3, r3, r2
 2817 03ce 1B88     		ldrh	r3, [r3]	@ movhi
 2818 03d0 9BB2     		uxth	r3, r3
 2819 03d2 23F48043 		bic	r3, r3, #16384
 2820 03d6 23F07003 		bic	r3, r3, #112
 2821 03da 9CB2     		uxth	r4, r3
 2822 03dc 84F48053 		eor	r3, r4, #4096
 2823 03e0 9CB2     		uxth	r4, r3
 2824 03e2 84F40053 		eor	r3, r4, #8192
 2825 03e6 9CB2     		uxth	r4, r3
 2826 03e8 7B68     		ldr	r3, [r7, #4]
 2827 03ea 1B68     		ldr	r3, [r3]
 2828 03ec 1A46     		mov	r2, r3
 2829 03ee 7B69     		ldr	r3, [r7, #20]
 2830 03f0 1B78     		ldrb	r3, [r3]	@ zero_extendqisi2
 2831 03f2 9B00     		lsls	r3, r3, #2
 2832 03f4 1A44     		add	r2, r2, r3
 2833 03f6 024B     		ldr	r3, .L110
 2834 03f8 2343     		orrs	r3, r3, r4
 2835 03fa 9BB2     		uxth	r3, r3
 2836 03fc 1380     		strh	r3, [r2]	@ movhi
 2837 03fe C0E1     		b	.L104
 2838              	.L111:
 2839              		.align	2
 2840              	.L110:
 2841 0400 8080FFFF 		.word	-32640
 2842              	.L95:
 2843              	.LBE8:
 890:Drivers/STM32F3xx_HAL_Driver/Src/stm32f3xx_hal_pcd.c ****     }
 891:Drivers/STM32F3xx_HAL_Driver/Src/stm32f3xx_hal_pcd.c ****   }
 892:Drivers/STM32F3xx_HAL_Driver/Src/stm32f3xx_hal_pcd.c ****   /*Double Buffer*/
 893:Drivers/STM32F3xx_HAL_Driver/Src/stm32f3xx_hal_pcd.c ****   else
 894:Drivers/STM32F3xx_HAL_Driver/Src/stm32f3xx_hal_pcd.c ****   {
 895:Drivers/STM32F3xx_HAL_Driver/Src/stm32f3xx_hal_pcd.c ****     /*Set the endpoint as double buffered*/
 896:Drivers/STM32F3xx_HAL_Driver/Src/stm32f3xx_hal_pcd.c ****     PCD_SET_EP_DBUF(hpcd->Instance, ep->num);
 2844              		.loc 1 896 0
 2845 0404 7B68     		ldr	r3, [r7, #4]
 2846 0406 1B68     		ldr	r3, [r3]
 2847 0408 1A46     		mov	r2, r3
 2848 040a 7B69     		ldr	r3, [r7, #20]
 2849 040c 1B78     		ldrb	r3, [r3]	@ zero_extendqisi2
ARM GAS  /tmp/ccgaLh4p.s 			page 66


 2850 040e 9B00     		lsls	r3, r3, #2
 2851 0410 1A44     		add	r2, r2, r3
 2852 0412 7B68     		ldr	r3, [r7, #4]
 2853 0414 1B68     		ldr	r3, [r3]
 2854 0416 1946     		mov	r1, r3
 2855 0418 7B69     		ldr	r3, [r7, #20]
 2856 041a 1B78     		ldrb	r3, [r3]	@ zero_extendqisi2
 2857 041c 9B00     		lsls	r3, r3, #2
 2858 041e 0B44     		add	r3, r3, r1
 2859 0420 1B88     		ldrh	r3, [r3]	@ movhi
 2860 0422 9BB2     		uxth	r3, r3
 2861 0424 43F48073 		orr	r3, r3, #256
 2862 0428 9BB2     		uxth	r3, r3
 2863 042a 9BB2     		uxth	r3, r3
 2864 042c 23F0F003 		bic	r3, r3, #240
 2865 0430 1B05     		lsls	r3, r3, #20
 2866 0432 1B0D     		lsrs	r3, r3, #20
 2867 0434 9BB2     		uxth	r3, r3
 2868 0436 43F07F43 		orr	r3, r3, #-16777216
 2869 043a 43F47F03 		orr	r3, r3, #16711680
 2870 043e 43F40043 		orr	r3, r3, #32768
 2871 0442 43F08003 		orr	r3, r3, #128
 2872 0446 9BB2     		uxth	r3, r3
 2873 0448 9BB2     		uxth	r3, r3
 2874 044a 1380     		strh	r3, [r2]	@ movhi
 897:Drivers/STM32F3xx_HAL_Driver/Src/stm32f3xx_hal_pcd.c ****     /*Set buffer address for double buffered mode*/
 898:Drivers/STM32F3xx_HAL_Driver/Src/stm32f3xx_hal_pcd.c ****     PCD_SET_EP_DBUF_ADDR(hpcd->Instance, ep->num,ep->pmaaddr0, ep->pmaaddr1);
 2875              		.loc 1 898 0
 2876 044c 7B68     		ldr	r3, [r7, #4]
 2877 044e 1B68     		ldr	r3, [r3]
 2878 0450 B3F85030 		ldrh	r3, [r3, #80]	@ movhi
 2879 0454 9BB2     		uxth	r3, r3
 2880 0456 1A46     		mov	r2, r3
 2881 0458 7B69     		ldr	r3, [r7, #20]
 2882 045a 1B78     		ldrb	r3, [r3]	@ zero_extendqisi2
 2883 045c DB00     		lsls	r3, r3, #3
 2884 045e 1344     		add	r3, r3, r2
 2885 0460 5B00     		lsls	r3, r3, #1
 2886 0462 1A46     		mov	r2, r3
 2887 0464 7B68     		ldr	r3, [r7, #4]
 2888 0466 1B68     		ldr	r3, [r3]
 2889 0468 1344     		add	r3, r3, r2
 2890 046a 03F58063 		add	r3, r3, #1024
 2891 046e 1A46     		mov	r2, r3
 2892 0470 7B69     		ldr	r3, [r7, #20]
 2893 0472 DB88     		ldrh	r3, [r3, #6]
 2894 0474 5B08     		lsrs	r3, r3, #1
 2895 0476 9BB2     		uxth	r3, r3
 2896 0478 5B00     		lsls	r3, r3, #1
 2897 047a 1360     		str	r3, [r2]
 2898 047c 7B68     		ldr	r3, [r7, #4]
 2899 047e 1B68     		ldr	r3, [r3]
 2900 0480 B3F85030 		ldrh	r3, [r3, #80]	@ movhi
 2901 0484 9BB2     		uxth	r3, r3
 2902 0486 1A46     		mov	r2, r3
 2903 0488 7B69     		ldr	r3, [r7, #20]
 2904 048a 1B78     		ldrb	r3, [r3]	@ zero_extendqisi2
ARM GAS  /tmp/ccgaLh4p.s 			page 67


 2905 048c DB00     		lsls	r3, r3, #3
 2906 048e 1344     		add	r3, r3, r2
 2907 0490 0433     		adds	r3, r3, #4
 2908 0492 5B00     		lsls	r3, r3, #1
 2909 0494 1A46     		mov	r2, r3
 2910 0496 7B68     		ldr	r3, [r7, #4]
 2911 0498 1B68     		ldr	r3, [r3]
 2912 049a 1344     		add	r3, r3, r2
 2913 049c 03F58063 		add	r3, r3, #1024
 2914 04a0 1A46     		mov	r2, r3
 2915 04a2 7B69     		ldr	r3, [r7, #20]
 2916 04a4 1B89     		ldrh	r3, [r3, #8]
 2917 04a6 5B08     		lsrs	r3, r3, #1
 2918 04a8 9BB2     		uxth	r3, r3
 2919 04aa 5B00     		lsls	r3, r3, #1
 2920 04ac 1360     		str	r3, [r2]
 899:Drivers/STM32F3xx_HAL_Driver/Src/stm32f3xx_hal_pcd.c ****     
 900:Drivers/STM32F3xx_HAL_Driver/Src/stm32f3xx_hal_pcd.c ****     if (ep->is_in==0)
 2921              		.loc 1 900 0
 2922 04ae 7B69     		ldr	r3, [r7, #20]
 2923 04b0 5B78     		ldrb	r3, [r3, #1]	@ zero_extendqisi2
 2924 04b2 002B     		cmp	r3, #0
 2925 04b4 40F0B680 		bne	.L105
 901:Drivers/STM32F3xx_HAL_Driver/Src/stm32f3xx_hal_pcd.c ****     {
 902:Drivers/STM32F3xx_HAL_Driver/Src/stm32f3xx_hal_pcd.c ****       /* Clear the data toggle bits for the endpoint IN/OUT*/
 903:Drivers/STM32F3xx_HAL_Driver/Src/stm32f3xx_hal_pcd.c ****       PCD_CLEAR_RX_DTOG(hpcd->Instance, ep->num);
 2926              		.loc 1 903 0
 2927 04b8 7B68     		ldr	r3, [r7, #4]
 2928 04ba 1B68     		ldr	r3, [r3]
 2929 04bc 1A46     		mov	r2, r3
 2930 04be 7B69     		ldr	r3, [r7, #20]
 2931 04c0 1B78     		ldrb	r3, [r3]	@ zero_extendqisi2
 2932 04c2 9B00     		lsls	r3, r3, #2
 2933 04c4 1344     		add	r3, r3, r2
 2934 04c6 1B88     		ldrh	r3, [r3]	@ movhi
 2935 04c8 9BB2     		uxth	r3, r3
 2936 04ca 03F48043 		and	r3, r3, #16384
 2937 04ce 002B     		cmp	r3, #0
 2938 04d0 20D0     		beq	.L106
 2939              		.loc 1 903 0 is_stmt 0 discriminator 1
 2940 04d2 7B68     		ldr	r3, [r7, #4]
 2941 04d4 1B68     		ldr	r3, [r3]
 2942 04d6 1A46     		mov	r2, r3
 2943 04d8 7B69     		ldr	r3, [r7, #20]
 2944 04da 1B78     		ldrb	r3, [r3]	@ zero_extendqisi2
 2945 04dc 9B00     		lsls	r3, r3, #2
 2946 04de 1A44     		add	r2, r2, r3
 2947 04e0 7B68     		ldr	r3, [r7, #4]
 2948 04e2 1B68     		ldr	r3, [r3]
 2949 04e4 1946     		mov	r1, r3
 2950 04e6 7B69     		ldr	r3, [r7, #20]
 2951 04e8 1B78     		ldrb	r3, [r3]	@ zero_extendqisi2
 2952 04ea 9B00     		lsls	r3, r3, #2
 2953 04ec 0B44     		add	r3, r3, r1
 2954 04ee 1B88     		ldrh	r3, [r3]	@ movhi
 2955 04f0 9BB2     		uxth	r3, r3
 2956 04f2 9BB2     		uxth	r3, r3
ARM GAS  /tmp/ccgaLh4p.s 			page 68


 2957 04f4 23F0F003 		bic	r3, r3, #240
 2958 04f8 1B05     		lsls	r3, r3, #20
 2959 04fa 1B0D     		lsrs	r3, r3, #20
 2960 04fc 9BB2     		uxth	r3, r3
 2961 04fe 43F07F43 		orr	r3, r3, #-16777216
 2962 0502 43F47F03 		orr	r3, r3, #16711680
 2963 0506 43F44043 		orr	r3, r3, #49152
 2964 050a 43F08003 		orr	r3, r3, #128
 2965 050e 9BB2     		uxth	r3, r3
 2966 0510 9BB2     		uxth	r3, r3
 2967 0512 1380     		strh	r3, [r2]	@ movhi
 2968              	.L106:
 904:Drivers/STM32F3xx_HAL_Driver/Src/stm32f3xx_hal_pcd.c ****       PCD_CLEAR_TX_DTOG(hpcd->Instance, ep->num);
 2969              		.loc 1 904 0 is_stmt 1
 2970 0514 7B68     		ldr	r3, [r7, #4]
 2971 0516 1B68     		ldr	r3, [r3]
 2972 0518 1A46     		mov	r2, r3
 2973 051a 7B69     		ldr	r3, [r7, #20]
 2974 051c 1B78     		ldrb	r3, [r3]	@ zero_extendqisi2
 2975 051e 9B00     		lsls	r3, r3, #2
 2976 0520 1344     		add	r3, r3, r2
 2977 0522 1B88     		ldrh	r3, [r3]	@ movhi
 2978 0524 9BB2     		uxth	r3, r3
 2979 0526 03F04003 		and	r3, r3, #64
 2980 052a 002B     		cmp	r3, #0
 2981 052c 20D0     		beq	.L107
 2982              		.loc 1 904 0 is_stmt 0 discriminator 1
 2983 052e 7B68     		ldr	r3, [r7, #4]
 2984 0530 1B68     		ldr	r3, [r3]
 2985 0532 1A46     		mov	r2, r3
 2986 0534 7B69     		ldr	r3, [r7, #20]
 2987 0536 1B78     		ldrb	r3, [r3]	@ zero_extendqisi2
 2988 0538 9B00     		lsls	r3, r3, #2
 2989 053a 1A44     		add	r2, r2, r3
 2990 053c 7B68     		ldr	r3, [r7, #4]
 2991 053e 1B68     		ldr	r3, [r3]
 2992 0540 1946     		mov	r1, r3
 2993 0542 7B69     		ldr	r3, [r7, #20]
 2994 0544 1B78     		ldrb	r3, [r3]	@ zero_extendqisi2
 2995 0546 9B00     		lsls	r3, r3, #2
 2996 0548 0B44     		add	r3, r3, r1
 2997 054a 1B88     		ldrh	r3, [r3]	@ movhi
 2998 054c 9BB2     		uxth	r3, r3
 2999 054e 9BB2     		uxth	r3, r3
 3000 0550 23F0F003 		bic	r3, r3, #240
 3001 0554 1B05     		lsls	r3, r3, #20
 3002 0556 1B0D     		lsrs	r3, r3, #20
 3003 0558 9BB2     		uxth	r3, r3
 3004 055a 43F07F43 		orr	r3, r3, #-16777216
 3005 055e 43F47F03 		orr	r3, r3, #16711680
 3006 0562 43F40043 		orr	r3, r3, #32768
 3007 0566 43F0C003 		orr	r3, r3, #192
 3008 056a 9BB2     		uxth	r3, r3
 3009 056c 9BB2     		uxth	r3, r3
 3010 056e 1380     		strh	r3, [r2]	@ movhi
 3011              	.L107:
 905:Drivers/STM32F3xx_HAL_Driver/Src/stm32f3xx_hal_pcd.c ****       
ARM GAS  /tmp/ccgaLh4p.s 			page 69


 906:Drivers/STM32F3xx_HAL_Driver/Src/stm32f3xx_hal_pcd.c ****       /* Reset value of the data toggle bits for the endpoint out*/
 907:Drivers/STM32F3xx_HAL_Driver/Src/stm32f3xx_hal_pcd.c ****       PCD_TX_DTOG(hpcd->Instance, ep->num);
 3012              		.loc 1 907 0 is_stmt 1
 3013 0570 7B68     		ldr	r3, [r7, #4]
 3014 0572 1B68     		ldr	r3, [r3]
 3015 0574 1A46     		mov	r2, r3
 3016 0576 7B69     		ldr	r3, [r7, #20]
 3017 0578 1B78     		ldrb	r3, [r3]	@ zero_extendqisi2
 3018 057a 9B00     		lsls	r3, r3, #2
 3019 057c 1A44     		add	r2, r2, r3
 3020 057e 7B68     		ldr	r3, [r7, #4]
 3021 0580 1B68     		ldr	r3, [r3]
 3022 0582 1946     		mov	r1, r3
 3023 0584 7B69     		ldr	r3, [r7, #20]
 3024 0586 1B78     		ldrb	r3, [r3]	@ zero_extendqisi2
 3025 0588 9B00     		lsls	r3, r3, #2
 3026 058a 0B44     		add	r3, r3, r1
 3027 058c 1B88     		ldrh	r3, [r3]	@ movhi
 3028 058e 9BB2     		uxth	r3, r3
 3029 0590 9BB2     		uxth	r3, r3
 3030 0592 23F0F003 		bic	r3, r3, #240
 3031 0596 1B05     		lsls	r3, r3, #20
 3032 0598 1B0D     		lsrs	r3, r3, #20
 3033 059a 9BB2     		uxth	r3, r3
 3034 059c 43F07F43 		orr	r3, r3, #-16777216
 3035 05a0 43F47F03 		orr	r3, r3, #16711680
 3036 05a4 43F40043 		orr	r3, r3, #32768
 3037 05a8 43F0C003 		orr	r3, r3, #192
 3038 05ac 9BB2     		uxth	r3, r3
 3039 05ae 9BB2     		uxth	r3, r3
 3040 05b0 1380     		strh	r3, [r2]	@ movhi
 3041              	.LBB9:
 908:Drivers/STM32F3xx_HAL_Driver/Src/stm32f3xx_hal_pcd.c ****       
 909:Drivers/STM32F3xx_HAL_Driver/Src/stm32f3xx_hal_pcd.c ****       PCD_SET_EP_RX_STATUS(hpcd->Instance, ep->num, USB_EP_RX_VALID);
 3042              		.loc 1 909 0
 3043 05b2 7B68     		ldr	r3, [r7, #4]
 3044 05b4 1B68     		ldr	r3, [r3]
 3045 05b6 1A46     		mov	r2, r3
 3046 05b8 7B69     		ldr	r3, [r7, #20]
 3047 05ba 1B78     		ldrb	r3, [r3]	@ zero_extendqisi2
 3048 05bc 9B00     		lsls	r3, r3, #2
 3049 05be 1344     		add	r3, r3, r2
 3050 05c0 1B88     		ldrh	r3, [r3]	@ movhi
 3051 05c2 9BB2     		uxth	r3, r3
 3052 05c4 23F48043 		bic	r3, r3, #16384
 3053 05c8 23F07003 		bic	r3, r3, #112
 3054 05cc 9CB2     		uxth	r4, r3
 3055 05ce 84F48053 		eor	r3, r4, #4096
 3056 05d2 9CB2     		uxth	r4, r3
 3057 05d4 84F40053 		eor	r3, r4, #8192
 3058 05d8 9CB2     		uxth	r4, r3
 3059 05da 7B68     		ldr	r3, [r7, #4]
 3060 05dc 1B68     		ldr	r3, [r3]
 3061 05de 1A46     		mov	r2, r3
 3062 05e0 7B69     		ldr	r3, [r7, #20]
 3063 05e2 1B78     		ldrb	r3, [r3]	@ zero_extendqisi2
 3064 05e4 9B00     		lsls	r3, r3, #2
ARM GAS  /tmp/ccgaLh4p.s 			page 70


 3065 05e6 1A44     		add	r2, r2, r3
 3066 05e8 6B4B     		ldr	r3, .L112
 3067 05ea 2343     		orrs	r3, r3, r4
 3068 05ec 9BB2     		uxth	r3, r3
 3069 05ee 1380     		strh	r3, [r2]	@ movhi
 3070              	.LBE9:
 3071              	.LBB10:
 910:Drivers/STM32F3xx_HAL_Driver/Src/stm32f3xx_hal_pcd.c ****       PCD_SET_EP_TX_STATUS(hpcd->Instance, ep->num, USB_EP_TX_DIS);
 3072              		.loc 1 910 0
 3073 05f0 7B68     		ldr	r3, [r7, #4]
 3074 05f2 1B68     		ldr	r3, [r3]
 3075 05f4 1A46     		mov	r2, r3
 3076 05f6 7B69     		ldr	r3, [r7, #20]
 3077 05f8 1B78     		ldrb	r3, [r3]	@ zero_extendqisi2
 3078 05fa 9B00     		lsls	r3, r3, #2
 3079 05fc 1344     		add	r3, r3, r2
 3080 05fe 1B88     		ldrh	r3, [r3]	@ movhi
 3081 0600 9BB2     		uxth	r3, r3
 3082 0602 23F4E043 		bic	r3, r3, #28672
 3083 0606 23F04003 		bic	r3, r3, #64
 3084 060a 9CB2     		uxth	r4, r3
 3085 060c 7B68     		ldr	r3, [r7, #4]
 3086 060e 1B68     		ldr	r3, [r3]
 3087 0610 1A46     		mov	r2, r3
 3088 0612 7B69     		ldr	r3, [r7, #20]
 3089 0614 1B78     		ldrb	r3, [r3]	@ zero_extendqisi2
 3090 0616 9B00     		lsls	r3, r3, #2
 3091 0618 1A44     		add	r2, r2, r3
 3092 061a 5F4B     		ldr	r3, .L112
 3093 061c 2343     		orrs	r3, r3, r4
 3094 061e 9BB2     		uxth	r3, r3
 3095 0620 1380     		strh	r3, [r2]	@ movhi
 3096              	.LBE10:
 3097 0622 AEE0     		b	.L104
 3098              	.L105:
 911:Drivers/STM32F3xx_HAL_Driver/Src/stm32f3xx_hal_pcd.c ****     }
 912:Drivers/STM32F3xx_HAL_Driver/Src/stm32f3xx_hal_pcd.c ****     else
 913:Drivers/STM32F3xx_HAL_Driver/Src/stm32f3xx_hal_pcd.c ****     {
 914:Drivers/STM32F3xx_HAL_Driver/Src/stm32f3xx_hal_pcd.c ****       /* Clear the data toggle bits for the endpoint IN/OUT*/
 915:Drivers/STM32F3xx_HAL_Driver/Src/stm32f3xx_hal_pcd.c ****       PCD_CLEAR_RX_DTOG(hpcd->Instance, ep->num);
 3099              		.loc 1 915 0
 3100 0624 7B68     		ldr	r3, [r7, #4]
 3101 0626 1B68     		ldr	r3, [r3]
 3102 0628 1A46     		mov	r2, r3
 3103 062a 7B69     		ldr	r3, [r7, #20]
 3104 062c 1B78     		ldrb	r3, [r3]	@ zero_extendqisi2
 3105 062e 9B00     		lsls	r3, r3, #2
 3106 0630 1344     		add	r3, r3, r2
 3107 0632 1B88     		ldrh	r3, [r3]	@ movhi
 3108 0634 9BB2     		uxth	r3, r3
 3109 0636 03F48043 		and	r3, r3, #16384
 3110 063a 002B     		cmp	r3, #0
 3111 063c 20D0     		beq	.L108
 3112              		.loc 1 915 0 is_stmt 0 discriminator 1
 3113 063e 7B68     		ldr	r3, [r7, #4]
 3114 0640 1B68     		ldr	r3, [r3]
 3115 0642 1A46     		mov	r2, r3
ARM GAS  /tmp/ccgaLh4p.s 			page 71


 3116 0644 7B69     		ldr	r3, [r7, #20]
 3117 0646 1B78     		ldrb	r3, [r3]	@ zero_extendqisi2
 3118 0648 9B00     		lsls	r3, r3, #2
 3119 064a 1A44     		add	r2, r2, r3
 3120 064c 7B68     		ldr	r3, [r7, #4]
 3121 064e 1B68     		ldr	r3, [r3]
 3122 0650 1946     		mov	r1, r3
 3123 0652 7B69     		ldr	r3, [r7, #20]
 3124 0654 1B78     		ldrb	r3, [r3]	@ zero_extendqisi2
 3125 0656 9B00     		lsls	r3, r3, #2
 3126 0658 0B44     		add	r3, r3, r1
 3127 065a 1B88     		ldrh	r3, [r3]	@ movhi
 3128 065c 9BB2     		uxth	r3, r3
 3129 065e 9BB2     		uxth	r3, r3
 3130 0660 23F0F003 		bic	r3, r3, #240
 3131 0664 1B05     		lsls	r3, r3, #20
 3132 0666 1B0D     		lsrs	r3, r3, #20
 3133 0668 9BB2     		uxth	r3, r3
 3134 066a 43F07F43 		orr	r3, r3, #-16777216
 3135 066e 43F47F03 		orr	r3, r3, #16711680
 3136 0672 43F44043 		orr	r3, r3, #49152
 3137 0676 43F08003 		orr	r3, r3, #128
 3138 067a 9BB2     		uxth	r3, r3
 3139 067c 9BB2     		uxth	r3, r3
 3140 067e 1380     		strh	r3, [r2]	@ movhi
 3141              	.L108:
 916:Drivers/STM32F3xx_HAL_Driver/Src/stm32f3xx_hal_pcd.c ****       PCD_CLEAR_TX_DTOG(hpcd->Instance, ep->num);
 3142              		.loc 1 916 0 is_stmt 1
 3143 0680 7B68     		ldr	r3, [r7, #4]
 3144 0682 1B68     		ldr	r3, [r3]
 3145 0684 1A46     		mov	r2, r3
 3146 0686 7B69     		ldr	r3, [r7, #20]
 3147 0688 1B78     		ldrb	r3, [r3]	@ zero_extendqisi2
 3148 068a 9B00     		lsls	r3, r3, #2
 3149 068c 1344     		add	r3, r3, r2
 3150 068e 1B88     		ldrh	r3, [r3]	@ movhi
 3151 0690 9BB2     		uxth	r3, r3
 3152 0692 03F04003 		and	r3, r3, #64
 3153 0696 002B     		cmp	r3, #0
 3154 0698 20D0     		beq	.L109
 3155              		.loc 1 916 0 is_stmt 0 discriminator 1
 3156 069a 7B68     		ldr	r3, [r7, #4]
 3157 069c 1B68     		ldr	r3, [r3]
 3158 069e 1A46     		mov	r2, r3
 3159 06a0 7B69     		ldr	r3, [r7, #20]
 3160 06a2 1B78     		ldrb	r3, [r3]	@ zero_extendqisi2
 3161 06a4 9B00     		lsls	r3, r3, #2
 3162 06a6 1A44     		add	r2, r2, r3
 3163 06a8 7B68     		ldr	r3, [r7, #4]
 3164 06aa 1B68     		ldr	r3, [r3]
 3165 06ac 1946     		mov	r1, r3
 3166 06ae 7B69     		ldr	r3, [r7, #20]
 3167 06b0 1B78     		ldrb	r3, [r3]	@ zero_extendqisi2
 3168 06b2 9B00     		lsls	r3, r3, #2
 3169 06b4 0B44     		add	r3, r3, r1
 3170 06b6 1B88     		ldrh	r3, [r3]	@ movhi
 3171 06b8 9BB2     		uxth	r3, r3
ARM GAS  /tmp/ccgaLh4p.s 			page 72


 3172 06ba 9BB2     		uxth	r3, r3
 3173 06bc 23F0F003 		bic	r3, r3, #240
 3174 06c0 1B05     		lsls	r3, r3, #20
 3175 06c2 1B0D     		lsrs	r3, r3, #20
 3176 06c4 9BB2     		uxth	r3, r3
 3177 06c6 43F07F43 		orr	r3, r3, #-16777216
 3178 06ca 43F47F03 		orr	r3, r3, #16711680
 3179 06ce 43F40043 		orr	r3, r3, #32768
 3180 06d2 43F0C003 		orr	r3, r3, #192
 3181 06d6 9BB2     		uxth	r3, r3
 3182 06d8 9BB2     		uxth	r3, r3
 3183 06da 1380     		strh	r3, [r2]	@ movhi
 3184              	.L109:
 917:Drivers/STM32F3xx_HAL_Driver/Src/stm32f3xx_hal_pcd.c ****       PCD_RX_DTOG(hpcd->Instance, ep->num);
 3185              		.loc 1 917 0 is_stmt 1
 3186 06dc 7B68     		ldr	r3, [r7, #4]
 3187 06de 1B68     		ldr	r3, [r3]
 3188 06e0 1A46     		mov	r2, r3
 3189 06e2 7B69     		ldr	r3, [r7, #20]
 3190 06e4 1B78     		ldrb	r3, [r3]	@ zero_extendqisi2
 3191 06e6 9B00     		lsls	r3, r3, #2
 3192 06e8 1A44     		add	r2, r2, r3
 3193 06ea 7B68     		ldr	r3, [r7, #4]
 3194 06ec 1B68     		ldr	r3, [r3]
 3195 06ee 1946     		mov	r1, r3
 3196 06f0 7B69     		ldr	r3, [r7, #20]
 3197 06f2 1B78     		ldrb	r3, [r3]	@ zero_extendqisi2
 3198 06f4 9B00     		lsls	r3, r3, #2
 3199 06f6 0B44     		add	r3, r3, r1
 3200 06f8 1B88     		ldrh	r3, [r3]	@ movhi
 3201 06fa 9BB2     		uxth	r3, r3
 3202 06fc 9BB2     		uxth	r3, r3
 3203 06fe 23F0F003 		bic	r3, r3, #240
 3204 0702 1B05     		lsls	r3, r3, #20
 3205 0704 1B0D     		lsrs	r3, r3, #20
 3206 0706 9BB2     		uxth	r3, r3
 3207 0708 43F07F43 		orr	r3, r3, #-16777216
 3208 070c 43F47F03 		orr	r3, r3, #16711680
 3209 0710 43F44043 		orr	r3, r3, #49152
 3210 0714 43F08003 		orr	r3, r3, #128
 3211 0718 9BB2     		uxth	r3, r3
 3212 071a 9BB2     		uxth	r3, r3
 3213 071c 1380     		strh	r3, [r2]	@ movhi
 3214              	.LBB11:
 918:Drivers/STM32F3xx_HAL_Driver/Src/stm32f3xx_hal_pcd.c ****       /* Configure DISABLE status for the Endpoint*/
 919:Drivers/STM32F3xx_HAL_Driver/Src/stm32f3xx_hal_pcd.c ****       PCD_SET_EP_TX_STATUS(hpcd->Instance, ep->num, USB_EP_TX_DIS);
 3215              		.loc 1 919 0
 3216 071e 7B68     		ldr	r3, [r7, #4]
 3217 0720 1B68     		ldr	r3, [r3]
 3218 0722 1A46     		mov	r2, r3
 3219 0724 7B69     		ldr	r3, [r7, #20]
 3220 0726 1B78     		ldrb	r3, [r3]	@ zero_extendqisi2
 3221 0728 9B00     		lsls	r3, r3, #2
 3222 072a 1344     		add	r3, r3, r2
 3223 072c 1B88     		ldrh	r3, [r3]	@ movhi
 3224 072e 9BB2     		uxth	r3, r3
 3225 0730 23F4E043 		bic	r3, r3, #28672
ARM GAS  /tmp/ccgaLh4p.s 			page 73


 3226 0734 23F04003 		bic	r3, r3, #64
 3227 0738 9CB2     		uxth	r4, r3
 3228 073a 7B68     		ldr	r3, [r7, #4]
 3229 073c 1B68     		ldr	r3, [r3]
 3230 073e 1A46     		mov	r2, r3
 3231 0740 7B69     		ldr	r3, [r7, #20]
 3232 0742 1B78     		ldrb	r3, [r3]	@ zero_extendqisi2
 3233 0744 9B00     		lsls	r3, r3, #2
 3234 0746 1A44     		add	r2, r2, r3
 3235 0748 134B     		ldr	r3, .L112
 3236 074a 2343     		orrs	r3, r3, r4
 3237 074c 9BB2     		uxth	r3, r3
 3238 074e 1380     		strh	r3, [r2]	@ movhi
 3239              	.LBE11:
 3240              	.LBB12:
 920:Drivers/STM32F3xx_HAL_Driver/Src/stm32f3xx_hal_pcd.c ****       PCD_SET_EP_RX_STATUS(hpcd->Instance, ep->num, USB_EP_RX_DIS);
 3241              		.loc 1 920 0
 3242 0750 7B68     		ldr	r3, [r7, #4]
 3243 0752 1B68     		ldr	r3, [r3]
 3244 0754 1A46     		mov	r2, r3
 3245 0756 7B69     		ldr	r3, [r7, #20]
 3246 0758 1B78     		ldrb	r3, [r3]	@ zero_extendqisi2
 3247 075a 9B00     		lsls	r3, r3, #2
 3248 075c 1344     		add	r3, r3, r2
 3249 075e 1B88     		ldrh	r3, [r3]	@ movhi
 3250 0760 9BB2     		uxth	r3, r3
 3251 0762 23F48043 		bic	r3, r3, #16384
 3252 0766 23F07003 		bic	r3, r3, #112
 3253 076a 9CB2     		uxth	r4, r3
 3254 076c 7B68     		ldr	r3, [r7, #4]
 3255 076e 1B68     		ldr	r3, [r3]
 3256 0770 1A46     		mov	r2, r3
 3257 0772 7B69     		ldr	r3, [r7, #20]
 3258 0774 1B78     		ldrb	r3, [r3]	@ zero_extendqisi2
 3259 0776 9B00     		lsls	r3, r3, #2
 3260 0778 1A44     		add	r2, r2, r3
 3261 077a 074B     		ldr	r3, .L112
 3262 077c 2343     		orrs	r3, r3, r4
 3263 077e 9BB2     		uxth	r3, r3
 3264 0780 1380     		strh	r3, [r2]	@ movhi
 3265              	.L104:
 3266              	.LBE12:
 921:Drivers/STM32F3xx_HAL_Driver/Src/stm32f3xx_hal_pcd.c ****     }
 922:Drivers/STM32F3xx_HAL_Driver/Src/stm32f3xx_hal_pcd.c ****   } 
 923:Drivers/STM32F3xx_HAL_Driver/Src/stm32f3xx_hal_pcd.c ****   
 924:Drivers/STM32F3xx_HAL_Driver/Src/stm32f3xx_hal_pcd.c ****   __HAL_UNLOCK(hpcd);   
 3267              		.loc 1 924 0
 3268 0782 7B68     		ldr	r3, [r7, #4]
 3269 0784 0022     		movs	r2, #0
 3270 0786 83F8E821 		strb	r2, [r3, #488]
 925:Drivers/STM32F3xx_HAL_Driver/Src/stm32f3xx_hal_pcd.c ****   return ret;
 3271              		.loc 1 925 0
 3272 078a 7B7C     		ldrb	r3, [r7, #17]	@ zero_extendqisi2
 3273              	.L88:
 926:Drivers/STM32F3xx_HAL_Driver/Src/stm32f3xx_hal_pcd.c **** }
 3274              		.loc 1 926 0
 3275 078c 1846     		mov	r0, r3
ARM GAS  /tmp/ccgaLh4p.s 			page 74


 3276 078e 1837     		adds	r7, r7, #24
 3277              	.LCFI128:
 3278              		.cfi_def_cfa_offset 8
 3279 0790 BD46     		mov	sp, r7
 3280              	.LCFI129:
 3281              		.cfi_def_cfa_register 13
 3282              		@ sp needed
 3283 0792 90BC     		pop	{r4, r7}
 3284              	.LCFI130:
 3285              		.cfi_restore 7
 3286              		.cfi_restore 4
 3287              		.cfi_def_cfa_offset 0
 3288 0794 7047     		bx	lr
 3289              	.L113:
 3290 0796 00BF     		.align	2
 3291              	.L112:
 3292 0798 8080FFFF 		.word	-32640
 3293              		.cfi_endproc
 3294              	.LFE134:
 3296              		.section	.text.HAL_PCD_EP_Close,"ax",%progbits
 3297              		.align	2
 3298              		.global	HAL_PCD_EP_Close
 3299              		.thumb
 3300              		.thumb_func
 3302              	HAL_PCD_EP_Close:
 3303              	.LFB135:
 927:Drivers/STM32F3xx_HAL_Driver/Src/stm32f3xx_hal_pcd.c **** 
 928:Drivers/STM32F3xx_HAL_Driver/Src/stm32f3xx_hal_pcd.c **** 
 929:Drivers/STM32F3xx_HAL_Driver/Src/stm32f3xx_hal_pcd.c **** /**
 930:Drivers/STM32F3xx_HAL_Driver/Src/stm32f3xx_hal_pcd.c ****   * @brief  Deactivate an endpoint
 931:Drivers/STM32F3xx_HAL_Driver/Src/stm32f3xx_hal_pcd.c ****   * @param  hpcd: PCD handle
 932:Drivers/STM32F3xx_HAL_Driver/Src/stm32f3xx_hal_pcd.c ****   * @param  ep_addr: endpoint address
 933:Drivers/STM32F3xx_HAL_Driver/Src/stm32f3xx_hal_pcd.c ****   * @retval HAL status
 934:Drivers/STM32F3xx_HAL_Driver/Src/stm32f3xx_hal_pcd.c ****   */
 935:Drivers/STM32F3xx_HAL_Driver/Src/stm32f3xx_hal_pcd.c **** HAL_StatusTypeDef HAL_PCD_EP_Close(PCD_HandleTypeDef *hpcd, uint8_t ep_addr)
 936:Drivers/STM32F3xx_HAL_Driver/Src/stm32f3xx_hal_pcd.c **** {  
 3304              		.loc 1 936 0
 3305              		.cfi_startproc
 3306              		@ args = 0, pretend = 0, frame = 16
 3307              		@ frame_needed = 1, uses_anonymous_args = 0
 3308              		@ link register save eliminated.
 3309 0000 90B4     		push	{r4, r7}
 3310              	.LCFI131:
 3311              		.cfi_def_cfa_offset 8
 3312              		.cfi_offset 4, -8
 3313              		.cfi_offset 7, -4
 3314 0002 84B0     		sub	sp, sp, #16
 3315              	.LCFI132:
 3316              		.cfi_def_cfa_offset 24
 3317 0004 00AF     		add	r7, sp, #0
 3318              	.LCFI133:
 3319              		.cfi_def_cfa_register 7
 3320 0006 7860     		str	r0, [r7, #4]
 3321 0008 0B46     		mov	r3, r1
 3322 000a FB70     		strb	r3, [r7, #3]
 937:Drivers/STM32F3xx_HAL_Driver/Src/stm32f3xx_hal_pcd.c ****   PCD_EPTypeDef *ep;
 938:Drivers/STM32F3xx_HAL_Driver/Src/stm32f3xx_hal_pcd.c ****   
ARM GAS  /tmp/ccgaLh4p.s 			page 75


 939:Drivers/STM32F3xx_HAL_Driver/Src/stm32f3xx_hal_pcd.c ****   if ((ep_addr & 0x80) == 0x80)
 3323              		.loc 1 939 0
 3324 000c FB78     		ldrb	r3, [r7, #3]	@ zero_extendqisi2
 3325 000e 5BB2     		sxtb	r3, r3
 3326 0010 002B     		cmp	r3, #0
 3327 0012 0BDA     		bge	.L115
 940:Drivers/STM32F3xx_HAL_Driver/Src/stm32f3xx_hal_pcd.c ****   {
 941:Drivers/STM32F3xx_HAL_Driver/Src/stm32f3xx_hal_pcd.c ****     ep = &hpcd->IN_ep[ep_addr & 0x7F];
 3328              		.loc 1 941 0
 3329 0014 FB78     		ldrb	r3, [r7, #3]	@ zero_extendqisi2
 3330 0016 03F07F02 		and	r2, r3, #127
 3331 001a 1346     		mov	r3, r2
 3332 001c DB00     		lsls	r3, r3, #3
 3333 001e 9B1A     		subs	r3, r3, r2
 3334 0020 9B00     		lsls	r3, r3, #2
 3335 0022 2833     		adds	r3, r3, #40
 3336 0024 7A68     		ldr	r2, [r7, #4]
 3337 0026 1344     		add	r3, r3, r2
 3338 0028 FB60     		str	r3, [r7, #12]
 3339 002a 0BE0     		b	.L116
 3340              	.L115:
 942:Drivers/STM32F3xx_HAL_Driver/Src/stm32f3xx_hal_pcd.c ****   }
 943:Drivers/STM32F3xx_HAL_Driver/Src/stm32f3xx_hal_pcd.c ****   else
 944:Drivers/STM32F3xx_HAL_Driver/Src/stm32f3xx_hal_pcd.c ****   {
 945:Drivers/STM32F3xx_HAL_Driver/Src/stm32f3xx_hal_pcd.c ****     ep = &hpcd->OUT_ep[ep_addr & 0x7F];
 3341              		.loc 1 945 0
 3342 002c FB78     		ldrb	r3, [r7, #3]	@ zero_extendqisi2
 3343 002e 03F07F02 		and	r2, r3, #127
 3344 0032 1346     		mov	r3, r2
 3345 0034 DB00     		lsls	r3, r3, #3
 3346 0036 9B1A     		subs	r3, r3, r2
 3347 0038 9B00     		lsls	r3, r3, #2
 3348 003a 03F58473 		add	r3, r3, #264
 3349 003e 7A68     		ldr	r2, [r7, #4]
 3350 0040 1344     		add	r3, r3, r2
 3351 0042 FB60     		str	r3, [r7, #12]
 3352              	.L116:
 946:Drivers/STM32F3xx_HAL_Driver/Src/stm32f3xx_hal_pcd.c ****   }
 947:Drivers/STM32F3xx_HAL_Driver/Src/stm32f3xx_hal_pcd.c ****   ep->num   = ep_addr & 0x7F;
 3353              		.loc 1 947 0
 3354 0044 FB78     		ldrb	r3, [r7, #3]
 3355 0046 03F07F03 		and	r3, r3, #127
 3356 004a DAB2     		uxtb	r2, r3
 3357 004c FB68     		ldr	r3, [r7, #12]
 3358 004e 1A70     		strb	r2, [r3]
 948:Drivers/STM32F3xx_HAL_Driver/Src/stm32f3xx_hal_pcd.c ****   
 949:Drivers/STM32F3xx_HAL_Driver/Src/stm32f3xx_hal_pcd.c ****   ep->is_in = (0x80 & ep_addr) != 0;
 3359              		.loc 1 949 0
 3360 0050 FB78     		ldrb	r3, [r7, #3]	@ zero_extendqisi2
 3361 0052 DB09     		lsrs	r3, r3, #7
 3362 0054 DBB2     		uxtb	r3, r3
 3363 0056 1A46     		mov	r2, r3
 3364 0058 FB68     		ldr	r3, [r7, #12]
 3365 005a 5A70     		strb	r2, [r3, #1]
 950:Drivers/STM32F3xx_HAL_Driver/Src/stm32f3xx_hal_pcd.c ****   
 951:Drivers/STM32F3xx_HAL_Driver/Src/stm32f3xx_hal_pcd.c ****   __HAL_LOCK(hpcd); 
 3366              		.loc 1 951 0
ARM GAS  /tmp/ccgaLh4p.s 			page 76


 3367 005c 7B68     		ldr	r3, [r7, #4]
 3368 005e 93F8E831 		ldrb	r3, [r3, #488]	@ zero_extendqisi2
 3369 0062 012B     		cmp	r3, #1
 3370 0064 01D1     		bne	.L117
 3371              		.loc 1 951 0 is_stmt 0 discriminator 1
 3372 0066 0223     		movs	r3, #2
 3373 0068 08E2     		b	.L118
 3374              	.L117:
 3375              		.loc 1 951 0 discriminator 2
 3376 006a 7B68     		ldr	r3, [r7, #4]
 3377 006c 0122     		movs	r2, #1
 3378 006e 83F8E821 		strb	r2, [r3, #488]
 952:Drivers/STM32F3xx_HAL_Driver/Src/stm32f3xx_hal_pcd.c **** 
 953:Drivers/STM32F3xx_HAL_Driver/Src/stm32f3xx_hal_pcd.c ****   if (ep->doublebuffer == 0) 
 3379              		.loc 1 953 0 is_stmt 1 discriminator 2
 3380 0072 FB68     		ldr	r3, [r7, #12]
 3381 0074 9B7A     		ldrb	r3, [r3, #10]	@ zero_extendqisi2
 3382 0076 002B     		cmp	r3, #0
 3383 0078 40F09480 		bne	.L119
 954:Drivers/STM32F3xx_HAL_Driver/Src/stm32f3xx_hal_pcd.c ****   {
 955:Drivers/STM32F3xx_HAL_Driver/Src/stm32f3xx_hal_pcd.c ****     if (ep->is_in)
 3384              		.loc 1 955 0
 3385 007c FB68     		ldr	r3, [r7, #12]
 3386 007e 5B78     		ldrb	r3, [r3, #1]	@ zero_extendqisi2
 3387 0080 002B     		cmp	r3, #0
 3388 0082 47D0     		beq	.L120
 956:Drivers/STM32F3xx_HAL_Driver/Src/stm32f3xx_hal_pcd.c ****     {
 957:Drivers/STM32F3xx_HAL_Driver/Src/stm32f3xx_hal_pcd.c ****       PCD_CLEAR_TX_DTOG(hpcd->Instance, ep->num);
 3389              		.loc 1 957 0
 3390 0084 7B68     		ldr	r3, [r7, #4]
 3391 0086 1B68     		ldr	r3, [r3]
 3392 0088 1A46     		mov	r2, r3
 3393 008a FB68     		ldr	r3, [r7, #12]
 3394 008c 1B78     		ldrb	r3, [r3]	@ zero_extendqisi2
 3395 008e 9B00     		lsls	r3, r3, #2
 3396 0090 1344     		add	r3, r3, r2
 3397 0092 1B88     		ldrh	r3, [r3]	@ movhi
 3398 0094 9BB2     		uxth	r3, r3
 3399 0096 03F04003 		and	r3, r3, #64
 3400 009a 002B     		cmp	r3, #0
 3401 009c 20D0     		beq	.L121
 3402              		.loc 1 957 0 is_stmt 0 discriminator 1
 3403 009e 7B68     		ldr	r3, [r7, #4]
 3404 00a0 1B68     		ldr	r3, [r3]
 3405 00a2 1A46     		mov	r2, r3
 3406 00a4 FB68     		ldr	r3, [r7, #12]
 3407 00a6 1B78     		ldrb	r3, [r3]	@ zero_extendqisi2
 3408 00a8 9B00     		lsls	r3, r3, #2
 3409 00aa 1A44     		add	r2, r2, r3
 3410 00ac 7B68     		ldr	r3, [r7, #4]
 3411 00ae 1B68     		ldr	r3, [r3]
 3412 00b0 1946     		mov	r1, r3
 3413 00b2 FB68     		ldr	r3, [r7, #12]
 3414 00b4 1B78     		ldrb	r3, [r3]	@ zero_extendqisi2
 3415 00b6 9B00     		lsls	r3, r3, #2
 3416 00b8 0B44     		add	r3, r3, r1
 3417 00ba 1B88     		ldrh	r3, [r3]	@ movhi
ARM GAS  /tmp/ccgaLh4p.s 			page 77


 3418 00bc 9BB2     		uxth	r3, r3
 3419 00be 9BB2     		uxth	r3, r3
 3420 00c0 23F0F003 		bic	r3, r3, #240
 3421 00c4 1B05     		lsls	r3, r3, #20
 3422 00c6 1B0D     		lsrs	r3, r3, #20
 3423 00c8 9BB2     		uxth	r3, r3
 3424 00ca 43F07F43 		orr	r3, r3, #-16777216
 3425 00ce 43F47F03 		orr	r3, r3, #16711680
 3426 00d2 43F40043 		orr	r3, r3, #32768
 3427 00d6 43F0C003 		orr	r3, r3, #192
 3428 00da 9BB2     		uxth	r3, r3
 3429 00dc 9BB2     		uxth	r3, r3
 3430 00de 1380     		strh	r3, [r2]	@ movhi
 3431              	.L121:
 3432              	.LBB13:
 958:Drivers/STM32F3xx_HAL_Driver/Src/stm32f3xx_hal_pcd.c ****       /* Configure DISABLE status for the Endpoint*/
 959:Drivers/STM32F3xx_HAL_Driver/Src/stm32f3xx_hal_pcd.c ****       PCD_SET_EP_TX_STATUS(hpcd->Instance, ep->num, USB_EP_TX_DIS); 
 3433              		.loc 1 959 0 is_stmt 1
 3434 00e0 7B68     		ldr	r3, [r7, #4]
 3435 00e2 1B68     		ldr	r3, [r3]
 3436 00e4 1A46     		mov	r2, r3
 3437 00e6 FB68     		ldr	r3, [r7, #12]
 3438 00e8 1B78     		ldrb	r3, [r3]	@ zero_extendqisi2
 3439 00ea 9B00     		lsls	r3, r3, #2
 3440 00ec 1344     		add	r3, r3, r2
 3441 00ee 1B88     		ldrh	r3, [r3]	@ movhi
 3442 00f0 9BB2     		uxth	r3, r3
 3443 00f2 23F4E043 		bic	r3, r3, #28672
 3444 00f6 23F04003 		bic	r3, r3, #64
 3445 00fa 9CB2     		uxth	r4, r3
 3446 00fc 7B68     		ldr	r3, [r7, #4]
 3447 00fe 1B68     		ldr	r3, [r3]
 3448 0100 1A46     		mov	r2, r3
 3449 0102 FB68     		ldr	r3, [r7, #12]
 3450 0104 1B78     		ldrb	r3, [r3]	@ zero_extendqisi2
 3451 0106 9B00     		lsls	r3, r3, #2
 3452 0108 1A44     		add	r2, r2, r3
 3453 010a 814B     		ldr	r3, .L130
 3454 010c 2343     		orrs	r3, r3, r4
 3455 010e 9BB2     		uxth	r3, r3
 3456 0110 1380     		strh	r3, [r2]	@ movhi
 3457              	.LBE13:
 3458 0112 AEE1     		b	.L124
 3459              	.L120:
 960:Drivers/STM32F3xx_HAL_Driver/Src/stm32f3xx_hal_pcd.c ****     }
 961:Drivers/STM32F3xx_HAL_Driver/Src/stm32f3xx_hal_pcd.c ****     else
 962:Drivers/STM32F3xx_HAL_Driver/Src/stm32f3xx_hal_pcd.c ****     {
 963:Drivers/STM32F3xx_HAL_Driver/Src/stm32f3xx_hal_pcd.c ****       PCD_CLEAR_RX_DTOG(hpcd->Instance, ep->num);
 3460              		.loc 1 963 0
 3461 0114 7B68     		ldr	r3, [r7, #4]
 3462 0116 1B68     		ldr	r3, [r3]
 3463 0118 1A46     		mov	r2, r3
 3464 011a FB68     		ldr	r3, [r7, #12]
 3465 011c 1B78     		ldrb	r3, [r3]	@ zero_extendqisi2
 3466 011e 9B00     		lsls	r3, r3, #2
 3467 0120 1344     		add	r3, r3, r2
 3468 0122 1B88     		ldrh	r3, [r3]	@ movhi
ARM GAS  /tmp/ccgaLh4p.s 			page 78


 3469 0124 9BB2     		uxth	r3, r3
 3470 0126 03F48043 		and	r3, r3, #16384
 3471 012a 002B     		cmp	r3, #0
 3472 012c 20D0     		beq	.L123
 3473              		.loc 1 963 0 is_stmt 0 discriminator 1
 3474 012e 7B68     		ldr	r3, [r7, #4]
 3475 0130 1B68     		ldr	r3, [r3]
 3476 0132 1A46     		mov	r2, r3
 3477 0134 FB68     		ldr	r3, [r7, #12]
 3478 0136 1B78     		ldrb	r3, [r3]	@ zero_extendqisi2
 3479 0138 9B00     		lsls	r3, r3, #2
 3480 013a 1A44     		add	r2, r2, r3
 3481 013c 7B68     		ldr	r3, [r7, #4]
 3482 013e 1B68     		ldr	r3, [r3]
 3483 0140 1946     		mov	r1, r3
 3484 0142 FB68     		ldr	r3, [r7, #12]
 3485 0144 1B78     		ldrb	r3, [r3]	@ zero_extendqisi2
 3486 0146 9B00     		lsls	r3, r3, #2
 3487 0148 0B44     		add	r3, r3, r1
 3488 014a 1B88     		ldrh	r3, [r3]	@ movhi
 3489 014c 9BB2     		uxth	r3, r3
 3490 014e 9BB2     		uxth	r3, r3
 3491 0150 23F0F003 		bic	r3, r3, #240
 3492 0154 1B05     		lsls	r3, r3, #20
 3493 0156 1B0D     		lsrs	r3, r3, #20
 3494 0158 9BB2     		uxth	r3, r3
 3495 015a 43F07F43 		orr	r3, r3, #-16777216
 3496 015e 43F47F03 		orr	r3, r3, #16711680
 3497 0162 43F44043 		orr	r3, r3, #49152
 3498 0166 43F08003 		orr	r3, r3, #128
 3499 016a 9BB2     		uxth	r3, r3
 3500 016c 9BB2     		uxth	r3, r3
 3501 016e 1380     		strh	r3, [r2]	@ movhi
 3502              	.L123:
 3503              	.LBB14:
 964:Drivers/STM32F3xx_HAL_Driver/Src/stm32f3xx_hal_pcd.c ****       /* Configure DISABLE status for the Endpoint*/
 965:Drivers/STM32F3xx_HAL_Driver/Src/stm32f3xx_hal_pcd.c ****       PCD_SET_EP_RX_STATUS(hpcd->Instance, ep->num, USB_EP_RX_DIS);
 3504              		.loc 1 965 0 is_stmt 1
 3505 0170 7B68     		ldr	r3, [r7, #4]
 3506 0172 1B68     		ldr	r3, [r3]
 3507 0174 1A46     		mov	r2, r3
 3508 0176 FB68     		ldr	r3, [r7, #12]
 3509 0178 1B78     		ldrb	r3, [r3]	@ zero_extendqisi2
 3510 017a 9B00     		lsls	r3, r3, #2
 3511 017c 1344     		add	r3, r3, r2
 3512 017e 1B88     		ldrh	r3, [r3]	@ movhi
 3513 0180 9BB2     		uxth	r3, r3
 3514 0182 23F48043 		bic	r3, r3, #16384
 3515 0186 23F07003 		bic	r3, r3, #112
 3516 018a 9CB2     		uxth	r4, r3
 3517 018c 7B68     		ldr	r3, [r7, #4]
 3518 018e 1B68     		ldr	r3, [r3]
 3519 0190 1A46     		mov	r2, r3
 3520 0192 FB68     		ldr	r3, [r7, #12]
 3521 0194 1B78     		ldrb	r3, [r3]	@ zero_extendqisi2
 3522 0196 9B00     		lsls	r3, r3, #2
 3523 0198 1A44     		add	r2, r2, r3
ARM GAS  /tmp/ccgaLh4p.s 			page 79


 3524 019a 5D4B     		ldr	r3, .L130
 3525 019c 2343     		orrs	r3, r3, r4
 3526 019e 9BB2     		uxth	r3, r3
 3527 01a0 1380     		strh	r3, [r2]	@ movhi
 3528 01a2 66E1     		b	.L124
 3529              	.L119:
 3530              	.LBE14:
 966:Drivers/STM32F3xx_HAL_Driver/Src/stm32f3xx_hal_pcd.c ****     }
 967:Drivers/STM32F3xx_HAL_Driver/Src/stm32f3xx_hal_pcd.c ****   }
 968:Drivers/STM32F3xx_HAL_Driver/Src/stm32f3xx_hal_pcd.c ****   /*Double Buffer*/
 969:Drivers/STM32F3xx_HAL_Driver/Src/stm32f3xx_hal_pcd.c ****   else
 970:Drivers/STM32F3xx_HAL_Driver/Src/stm32f3xx_hal_pcd.c ****   { 
 971:Drivers/STM32F3xx_HAL_Driver/Src/stm32f3xx_hal_pcd.c ****     if (ep->is_in==0)
 3531              		.loc 1 971 0
 3532 01a4 FB68     		ldr	r3, [r7, #12]
 3533 01a6 5B78     		ldrb	r3, [r3, #1]	@ zero_extendqisi2
 3534 01a8 002B     		cmp	r3, #0
 3535 01aa 40F0B380 		bne	.L125
 972:Drivers/STM32F3xx_HAL_Driver/Src/stm32f3xx_hal_pcd.c ****     {
 973:Drivers/STM32F3xx_HAL_Driver/Src/stm32f3xx_hal_pcd.c ****       /* Clear the data toggle bits for the endpoint IN/OUT*/
 974:Drivers/STM32F3xx_HAL_Driver/Src/stm32f3xx_hal_pcd.c ****       PCD_CLEAR_RX_DTOG(hpcd->Instance, ep->num);
 3536              		.loc 1 974 0
 3537 01ae 7B68     		ldr	r3, [r7, #4]
 3538 01b0 1B68     		ldr	r3, [r3]
 3539 01b2 1A46     		mov	r2, r3
 3540 01b4 FB68     		ldr	r3, [r7, #12]
 3541 01b6 1B78     		ldrb	r3, [r3]	@ zero_extendqisi2
 3542 01b8 9B00     		lsls	r3, r3, #2
 3543 01ba 1344     		add	r3, r3, r2
 3544 01bc 1B88     		ldrh	r3, [r3]	@ movhi
 3545 01be 9BB2     		uxth	r3, r3
 3546 01c0 03F48043 		and	r3, r3, #16384
 3547 01c4 002B     		cmp	r3, #0
 3548 01c6 20D0     		beq	.L126
 3549              		.loc 1 974 0 is_stmt 0 discriminator 1
 3550 01c8 7B68     		ldr	r3, [r7, #4]
 3551 01ca 1B68     		ldr	r3, [r3]
 3552 01cc 1A46     		mov	r2, r3
 3553 01ce FB68     		ldr	r3, [r7, #12]
 3554 01d0 1B78     		ldrb	r3, [r3]	@ zero_extendqisi2
 3555 01d2 9B00     		lsls	r3, r3, #2
 3556 01d4 1A44     		add	r2, r2, r3
 3557 01d6 7B68     		ldr	r3, [r7, #4]
 3558 01d8 1B68     		ldr	r3, [r3]
 3559 01da 1946     		mov	r1, r3
 3560 01dc FB68     		ldr	r3, [r7, #12]
 3561 01de 1B78     		ldrb	r3, [r3]	@ zero_extendqisi2
 3562 01e0 9B00     		lsls	r3, r3, #2
 3563 01e2 0B44     		add	r3, r3, r1
 3564 01e4 1B88     		ldrh	r3, [r3]	@ movhi
 3565 01e6 9BB2     		uxth	r3, r3
 3566 01e8 9BB2     		uxth	r3, r3
 3567 01ea 23F0F003 		bic	r3, r3, #240
 3568 01ee 1B05     		lsls	r3, r3, #20
 3569 01f0 1B0D     		lsrs	r3, r3, #20
 3570 01f2 9BB2     		uxth	r3, r3
 3571 01f4 43F07F43 		orr	r3, r3, #-16777216
ARM GAS  /tmp/ccgaLh4p.s 			page 80


 3572 01f8 43F47F03 		orr	r3, r3, #16711680
 3573 01fc 43F44043 		orr	r3, r3, #49152
 3574 0200 43F08003 		orr	r3, r3, #128
 3575 0204 9BB2     		uxth	r3, r3
 3576 0206 9BB2     		uxth	r3, r3
 3577 0208 1380     		strh	r3, [r2]	@ movhi
 3578              	.L126:
 975:Drivers/STM32F3xx_HAL_Driver/Src/stm32f3xx_hal_pcd.c ****       PCD_CLEAR_TX_DTOG(hpcd->Instance, ep->num);
 3579              		.loc 1 975 0 is_stmt 1
 3580 020a 7B68     		ldr	r3, [r7, #4]
 3581 020c 1B68     		ldr	r3, [r3]
 3582 020e 1A46     		mov	r2, r3
 3583 0210 FB68     		ldr	r3, [r7, #12]
 3584 0212 1B78     		ldrb	r3, [r3]	@ zero_extendqisi2
 3585 0214 9B00     		lsls	r3, r3, #2
 3586 0216 1344     		add	r3, r3, r2
 3587 0218 1B88     		ldrh	r3, [r3]	@ movhi
 3588 021a 9BB2     		uxth	r3, r3
 3589 021c 03F04003 		and	r3, r3, #64
 3590 0220 002B     		cmp	r3, #0
 3591 0222 20D0     		beq	.L127
 3592              		.loc 1 975 0 is_stmt 0 discriminator 1
 3593 0224 7B68     		ldr	r3, [r7, #4]
 3594 0226 1B68     		ldr	r3, [r3]
 3595 0228 1A46     		mov	r2, r3
 3596 022a FB68     		ldr	r3, [r7, #12]
 3597 022c 1B78     		ldrb	r3, [r3]	@ zero_extendqisi2
 3598 022e 9B00     		lsls	r3, r3, #2
 3599 0230 1A44     		add	r2, r2, r3
 3600 0232 7B68     		ldr	r3, [r7, #4]
 3601 0234 1B68     		ldr	r3, [r3]
 3602 0236 1946     		mov	r1, r3
 3603 0238 FB68     		ldr	r3, [r7, #12]
 3604 023a 1B78     		ldrb	r3, [r3]	@ zero_extendqisi2
 3605 023c 9B00     		lsls	r3, r3, #2
 3606 023e 0B44     		add	r3, r3, r1
 3607 0240 1B88     		ldrh	r3, [r3]	@ movhi
 3608 0242 9BB2     		uxth	r3, r3
 3609 0244 9BB2     		uxth	r3, r3
 3610 0246 23F0F003 		bic	r3, r3, #240
 3611 024a 1B05     		lsls	r3, r3, #20
 3612 024c 1B0D     		lsrs	r3, r3, #20
 3613 024e 9BB2     		uxth	r3, r3
 3614 0250 43F07F43 		orr	r3, r3, #-16777216
 3615 0254 43F47F03 		orr	r3, r3, #16711680
 3616 0258 43F40043 		orr	r3, r3, #32768
 3617 025c 43F0C003 		orr	r3, r3, #192
 3618 0260 9BB2     		uxth	r3, r3
 3619 0262 9BB2     		uxth	r3, r3
 3620 0264 1380     		strh	r3, [r2]	@ movhi
 3621              	.L127:
 976:Drivers/STM32F3xx_HAL_Driver/Src/stm32f3xx_hal_pcd.c ****       
 977:Drivers/STM32F3xx_HAL_Driver/Src/stm32f3xx_hal_pcd.c ****       /* Reset value of the data toggle bits for the endpoint out*/
 978:Drivers/STM32F3xx_HAL_Driver/Src/stm32f3xx_hal_pcd.c ****       PCD_TX_DTOG(hpcd->Instance, ep->num);
 3622              		.loc 1 978 0 is_stmt 1
 3623 0266 7B68     		ldr	r3, [r7, #4]
 3624 0268 1B68     		ldr	r3, [r3]
ARM GAS  /tmp/ccgaLh4p.s 			page 81


 3625 026a 1A46     		mov	r2, r3
 3626 026c FB68     		ldr	r3, [r7, #12]
 3627 026e 1B78     		ldrb	r3, [r3]	@ zero_extendqisi2
 3628 0270 9B00     		lsls	r3, r3, #2
 3629 0272 1A44     		add	r2, r2, r3
 3630 0274 7B68     		ldr	r3, [r7, #4]
 3631 0276 1B68     		ldr	r3, [r3]
 3632 0278 1946     		mov	r1, r3
 3633 027a FB68     		ldr	r3, [r7, #12]
 3634 027c 1B78     		ldrb	r3, [r3]	@ zero_extendqisi2
 3635 027e 9B00     		lsls	r3, r3, #2
 3636 0280 0B44     		add	r3, r3, r1
 3637 0282 1B88     		ldrh	r3, [r3]	@ movhi
 3638 0284 9BB2     		uxth	r3, r3
 3639 0286 9BB2     		uxth	r3, r3
 3640 0288 23F0F003 		bic	r3, r3, #240
 3641 028c 1B05     		lsls	r3, r3, #20
 3642 028e 1B0D     		lsrs	r3, r3, #20
 3643 0290 9BB2     		uxth	r3, r3
 3644 0292 43F07F43 		orr	r3, r3, #-16777216
 3645 0296 43F47F03 		orr	r3, r3, #16711680
 3646 029a 43F40043 		orr	r3, r3, #32768
 3647 029e 43F0C003 		orr	r3, r3, #192
 3648 02a2 9BB2     		uxth	r3, r3
 3649 02a4 9BB2     		uxth	r3, r3
 3650 02a6 1380     		strh	r3, [r2]	@ movhi
 3651              	.LBB15:
 979:Drivers/STM32F3xx_HAL_Driver/Src/stm32f3xx_hal_pcd.c ****       
 980:Drivers/STM32F3xx_HAL_Driver/Src/stm32f3xx_hal_pcd.c ****       PCD_SET_EP_RX_STATUS(hpcd->Instance, ep->num, USB_EP_RX_DIS);
 3652              		.loc 1 980 0
 3653 02a8 7B68     		ldr	r3, [r7, #4]
 3654 02aa 1B68     		ldr	r3, [r3]
 3655 02ac 1A46     		mov	r2, r3
 3656 02ae FB68     		ldr	r3, [r7, #12]
 3657 02b0 1B78     		ldrb	r3, [r3]	@ zero_extendqisi2
 3658 02b2 9B00     		lsls	r3, r3, #2
 3659 02b4 1344     		add	r3, r3, r2
 3660 02b6 1B88     		ldrh	r3, [r3]	@ movhi
 3661 02b8 9BB2     		uxth	r3, r3
 3662 02ba 23F48043 		bic	r3, r3, #16384
 3663 02be 23F07003 		bic	r3, r3, #112
 3664 02c2 9CB2     		uxth	r4, r3
 3665 02c4 7B68     		ldr	r3, [r7, #4]
 3666 02c6 1B68     		ldr	r3, [r3]
 3667 02c8 1A46     		mov	r2, r3
 3668 02ca FB68     		ldr	r3, [r7, #12]
 3669 02cc 1B78     		ldrb	r3, [r3]	@ zero_extendqisi2
 3670 02ce 9B00     		lsls	r3, r3, #2
 3671 02d0 1A44     		add	r2, r2, r3
 3672 02d2 0F4B     		ldr	r3, .L130
 3673 02d4 2343     		orrs	r3, r3, r4
 3674 02d6 9BB2     		uxth	r3, r3
 3675 02d8 1380     		strh	r3, [r2]	@ movhi
 3676              	.LBE15:
 3677              	.LBB16:
 981:Drivers/STM32F3xx_HAL_Driver/Src/stm32f3xx_hal_pcd.c ****       PCD_SET_EP_TX_STATUS(hpcd->Instance, ep->num, USB_EP_TX_DIS);
 3678              		.loc 1 981 0
ARM GAS  /tmp/ccgaLh4p.s 			page 82


 3679 02da 7B68     		ldr	r3, [r7, #4]
 3680 02dc 1B68     		ldr	r3, [r3]
 3681 02de 1A46     		mov	r2, r3
 3682 02e0 FB68     		ldr	r3, [r7, #12]
 3683 02e2 1B78     		ldrb	r3, [r3]	@ zero_extendqisi2
 3684 02e4 9B00     		lsls	r3, r3, #2
 3685 02e6 1344     		add	r3, r3, r2
 3686 02e8 1B88     		ldrh	r3, [r3]	@ movhi
 3687 02ea 9BB2     		uxth	r3, r3
 3688 02ec 23F4E043 		bic	r3, r3, #28672
 3689 02f0 23F04003 		bic	r3, r3, #64
 3690 02f4 9CB2     		uxth	r4, r3
 3691 02f6 7B68     		ldr	r3, [r7, #4]
 3692 02f8 1B68     		ldr	r3, [r3]
 3693 02fa 1A46     		mov	r2, r3
 3694 02fc FB68     		ldr	r3, [r7, #12]
 3695 02fe 1B78     		ldrb	r3, [r3]	@ zero_extendqisi2
 3696 0300 9B00     		lsls	r3, r3, #2
 3697 0302 1A44     		add	r2, r2, r3
 3698 0304 024B     		ldr	r3, .L130
 3699 0306 2343     		orrs	r3, r3, r4
 3700 0308 9BB2     		uxth	r3, r3
 3701 030a 1380     		strh	r3, [r2]	@ movhi
 3702              	.LBE16:
 3703 030c B1E0     		b	.L124
 3704              	.L131:
 3705 030e 00BF     		.align	2
 3706              	.L130:
 3707 0310 8080FFFF 		.word	-32640
 3708              	.L125:
 982:Drivers/STM32F3xx_HAL_Driver/Src/stm32f3xx_hal_pcd.c ****     }
 983:Drivers/STM32F3xx_HAL_Driver/Src/stm32f3xx_hal_pcd.c ****     else
 984:Drivers/STM32F3xx_HAL_Driver/Src/stm32f3xx_hal_pcd.c ****     {
 985:Drivers/STM32F3xx_HAL_Driver/Src/stm32f3xx_hal_pcd.c ****       /* Clear the data toggle bits for the endpoint IN/OUT*/
 986:Drivers/STM32F3xx_HAL_Driver/Src/stm32f3xx_hal_pcd.c ****       PCD_CLEAR_RX_DTOG(hpcd->Instance, ep->num);
 3709              		.loc 1 986 0
 3710 0314 7B68     		ldr	r3, [r7, #4]
 3711 0316 1B68     		ldr	r3, [r3]
 3712 0318 1A46     		mov	r2, r3
 3713 031a FB68     		ldr	r3, [r7, #12]
 3714 031c 1B78     		ldrb	r3, [r3]	@ zero_extendqisi2
 3715 031e 9B00     		lsls	r3, r3, #2
 3716 0320 1344     		add	r3, r3, r2
 3717 0322 1B88     		ldrh	r3, [r3]	@ movhi
 3718 0324 9BB2     		uxth	r3, r3
 3719 0326 03F48043 		and	r3, r3, #16384
 3720 032a 002B     		cmp	r3, #0
 3721 032c 20D0     		beq	.L128
 3722              		.loc 1 986 0 is_stmt 0 discriminator 1
 3723 032e 7B68     		ldr	r3, [r7, #4]
 3724 0330 1B68     		ldr	r3, [r3]
 3725 0332 1A46     		mov	r2, r3
 3726 0334 FB68     		ldr	r3, [r7, #12]
 3727 0336 1B78     		ldrb	r3, [r3]	@ zero_extendqisi2
 3728 0338 9B00     		lsls	r3, r3, #2
 3729 033a 1A44     		add	r2, r2, r3
 3730 033c 7B68     		ldr	r3, [r7, #4]
ARM GAS  /tmp/ccgaLh4p.s 			page 83


 3731 033e 1B68     		ldr	r3, [r3]
 3732 0340 1946     		mov	r1, r3
 3733 0342 FB68     		ldr	r3, [r7, #12]
 3734 0344 1B78     		ldrb	r3, [r3]	@ zero_extendqisi2
 3735 0346 9B00     		lsls	r3, r3, #2
 3736 0348 0B44     		add	r3, r3, r1
 3737 034a 1B88     		ldrh	r3, [r3]	@ movhi
 3738 034c 9BB2     		uxth	r3, r3
 3739 034e 9BB2     		uxth	r3, r3
 3740 0350 23F0F003 		bic	r3, r3, #240
 3741 0354 1B05     		lsls	r3, r3, #20
 3742 0356 1B0D     		lsrs	r3, r3, #20
 3743 0358 9BB2     		uxth	r3, r3
 3744 035a 43F07F43 		orr	r3, r3, #-16777216
 3745 035e 43F47F03 		orr	r3, r3, #16711680
 3746 0362 43F44043 		orr	r3, r3, #49152
 3747 0366 43F08003 		orr	r3, r3, #128
 3748 036a 9BB2     		uxth	r3, r3
 3749 036c 9BB2     		uxth	r3, r3
 3750 036e 1380     		strh	r3, [r2]	@ movhi
 3751              	.L128:
 987:Drivers/STM32F3xx_HAL_Driver/Src/stm32f3xx_hal_pcd.c ****       PCD_CLEAR_TX_DTOG(hpcd->Instance, ep->num);
 3752              		.loc 1 987 0 is_stmt 1
 3753 0370 7B68     		ldr	r3, [r7, #4]
 3754 0372 1B68     		ldr	r3, [r3]
 3755 0374 1A46     		mov	r2, r3
 3756 0376 FB68     		ldr	r3, [r7, #12]
 3757 0378 1B78     		ldrb	r3, [r3]	@ zero_extendqisi2
 3758 037a 9B00     		lsls	r3, r3, #2
 3759 037c 1344     		add	r3, r3, r2
 3760 037e 1B88     		ldrh	r3, [r3]	@ movhi
 3761 0380 9BB2     		uxth	r3, r3
 3762 0382 03F04003 		and	r3, r3, #64
 3763 0386 002B     		cmp	r3, #0
 3764 0388 20D0     		beq	.L129
 3765              		.loc 1 987 0 is_stmt 0 discriminator 1
 3766 038a 7B68     		ldr	r3, [r7, #4]
 3767 038c 1B68     		ldr	r3, [r3]
 3768 038e 1A46     		mov	r2, r3
 3769 0390 FB68     		ldr	r3, [r7, #12]
 3770 0392 1B78     		ldrb	r3, [r3]	@ zero_extendqisi2
 3771 0394 9B00     		lsls	r3, r3, #2
 3772 0396 1A44     		add	r2, r2, r3
 3773 0398 7B68     		ldr	r3, [r7, #4]
 3774 039a 1B68     		ldr	r3, [r3]
 3775 039c 1946     		mov	r1, r3
 3776 039e FB68     		ldr	r3, [r7, #12]
 3777 03a0 1B78     		ldrb	r3, [r3]	@ zero_extendqisi2
 3778 03a2 9B00     		lsls	r3, r3, #2
 3779 03a4 0B44     		add	r3, r3, r1
 3780 03a6 1B88     		ldrh	r3, [r3]	@ movhi
 3781 03a8 9BB2     		uxth	r3, r3
 3782 03aa 9BB2     		uxth	r3, r3
 3783 03ac 23F0F003 		bic	r3, r3, #240
 3784 03b0 1B05     		lsls	r3, r3, #20
 3785 03b2 1B0D     		lsrs	r3, r3, #20
 3786 03b4 9BB2     		uxth	r3, r3
ARM GAS  /tmp/ccgaLh4p.s 			page 84


 3787 03b6 43F07F43 		orr	r3, r3, #-16777216
 3788 03ba 43F47F03 		orr	r3, r3, #16711680
 3789 03be 43F40043 		orr	r3, r3, #32768
 3790 03c2 43F0C003 		orr	r3, r3, #192
 3791 03c6 9BB2     		uxth	r3, r3
 3792 03c8 9BB2     		uxth	r3, r3
 3793 03ca 1380     		strh	r3, [r2]	@ movhi
 3794              	.L129:
 988:Drivers/STM32F3xx_HAL_Driver/Src/stm32f3xx_hal_pcd.c ****       PCD_RX_DTOG(hpcd->Instance, ep->num);
 3795              		.loc 1 988 0 is_stmt 1
 3796 03cc 7B68     		ldr	r3, [r7, #4]
 3797 03ce 1B68     		ldr	r3, [r3]
 3798 03d0 1A46     		mov	r2, r3
 3799 03d2 FB68     		ldr	r3, [r7, #12]
 3800 03d4 1B78     		ldrb	r3, [r3]	@ zero_extendqisi2
 3801 03d6 9B00     		lsls	r3, r3, #2
 3802 03d8 1A44     		add	r2, r2, r3
 3803 03da 7B68     		ldr	r3, [r7, #4]
 3804 03dc 1B68     		ldr	r3, [r3]
 3805 03de 1946     		mov	r1, r3
 3806 03e0 FB68     		ldr	r3, [r7, #12]
 3807 03e2 1B78     		ldrb	r3, [r3]	@ zero_extendqisi2
 3808 03e4 9B00     		lsls	r3, r3, #2
 3809 03e6 0B44     		add	r3, r3, r1
 3810 03e8 1B88     		ldrh	r3, [r3]	@ movhi
 3811 03ea 9BB2     		uxth	r3, r3
 3812 03ec 9BB2     		uxth	r3, r3
 3813 03ee 23F0F003 		bic	r3, r3, #240
 3814 03f2 1B05     		lsls	r3, r3, #20
 3815 03f4 1B0D     		lsrs	r3, r3, #20
 3816 03f6 9BB2     		uxth	r3, r3
 3817 03f8 43F07F43 		orr	r3, r3, #-16777216
 3818 03fc 43F47F03 		orr	r3, r3, #16711680
 3819 0400 43F44043 		orr	r3, r3, #49152
 3820 0404 43F08003 		orr	r3, r3, #128
 3821 0408 9BB2     		uxth	r3, r3
 3822 040a 9BB2     		uxth	r3, r3
 3823 040c 1380     		strh	r3, [r2]	@ movhi
 3824              	.LBB17:
 989:Drivers/STM32F3xx_HAL_Driver/Src/stm32f3xx_hal_pcd.c ****       /* Configure DISABLE status for the Endpoint*/
 990:Drivers/STM32F3xx_HAL_Driver/Src/stm32f3xx_hal_pcd.c ****       PCD_SET_EP_TX_STATUS(hpcd->Instance, ep->num, USB_EP_TX_DIS);
 3825              		.loc 1 990 0
 3826 040e 7B68     		ldr	r3, [r7, #4]
 3827 0410 1B68     		ldr	r3, [r3]
 3828 0412 1A46     		mov	r2, r3
 3829 0414 FB68     		ldr	r3, [r7, #12]
 3830 0416 1B78     		ldrb	r3, [r3]	@ zero_extendqisi2
 3831 0418 9B00     		lsls	r3, r3, #2
 3832 041a 1344     		add	r3, r3, r2
 3833 041c 1B88     		ldrh	r3, [r3]	@ movhi
 3834 041e 9BB2     		uxth	r3, r3
 3835 0420 23F4E043 		bic	r3, r3, #28672
 3836 0424 23F04003 		bic	r3, r3, #64
 3837 0428 9CB2     		uxth	r4, r3
 3838 042a 7B68     		ldr	r3, [r7, #4]
 3839 042c 1B68     		ldr	r3, [r3]
 3840 042e 1A46     		mov	r2, r3
ARM GAS  /tmp/ccgaLh4p.s 			page 85


 3841 0430 FB68     		ldr	r3, [r7, #12]
 3842 0432 1B78     		ldrb	r3, [r3]	@ zero_extendqisi2
 3843 0434 9B00     		lsls	r3, r3, #2
 3844 0436 1A44     		add	r2, r2, r3
 3845 0438 134B     		ldr	r3, .L132
 3846 043a 2343     		orrs	r3, r3, r4
 3847 043c 9BB2     		uxth	r3, r3
 3848 043e 1380     		strh	r3, [r2]	@ movhi
 3849              	.LBE17:
 3850              	.LBB18:
 991:Drivers/STM32F3xx_HAL_Driver/Src/stm32f3xx_hal_pcd.c ****       PCD_SET_EP_RX_STATUS(hpcd->Instance, ep->num, USB_EP_RX_DIS);
 3851              		.loc 1 991 0
 3852 0440 7B68     		ldr	r3, [r7, #4]
 3853 0442 1B68     		ldr	r3, [r3]
 3854 0444 1A46     		mov	r2, r3
 3855 0446 FB68     		ldr	r3, [r7, #12]
 3856 0448 1B78     		ldrb	r3, [r3]	@ zero_extendqisi2
 3857 044a 9B00     		lsls	r3, r3, #2
 3858 044c 1344     		add	r3, r3, r2
 3859 044e 1B88     		ldrh	r3, [r3]	@ movhi
 3860 0450 9BB2     		uxth	r3, r3
 3861 0452 23F48043 		bic	r3, r3, #16384
 3862 0456 23F07003 		bic	r3, r3, #112
 3863 045a 9CB2     		uxth	r4, r3
 3864 045c 7B68     		ldr	r3, [r7, #4]
 3865 045e 1B68     		ldr	r3, [r3]
 3866 0460 1A46     		mov	r2, r3
 3867 0462 FB68     		ldr	r3, [r7, #12]
 3868 0464 1B78     		ldrb	r3, [r3]	@ zero_extendqisi2
 3869 0466 9B00     		lsls	r3, r3, #2
 3870 0468 1A44     		add	r2, r2, r3
 3871 046a 074B     		ldr	r3, .L132
 3872 046c 2343     		orrs	r3, r3, r4
 3873 046e 9BB2     		uxth	r3, r3
 3874 0470 1380     		strh	r3, [r2]	@ movhi
 3875              	.L124:
 3876              	.LBE18:
 992:Drivers/STM32F3xx_HAL_Driver/Src/stm32f3xx_hal_pcd.c ****     }
 993:Drivers/STM32F3xx_HAL_Driver/Src/stm32f3xx_hal_pcd.c ****   } 
 994:Drivers/STM32F3xx_HAL_Driver/Src/stm32f3xx_hal_pcd.c ****   
 995:Drivers/STM32F3xx_HAL_Driver/Src/stm32f3xx_hal_pcd.c ****   __HAL_UNLOCK(hpcd);   
 3877              		.loc 1 995 0
 3878 0472 7B68     		ldr	r3, [r7, #4]
 3879 0474 0022     		movs	r2, #0
 3880 0476 83F8E821 		strb	r2, [r3, #488]
 996:Drivers/STM32F3xx_HAL_Driver/Src/stm32f3xx_hal_pcd.c ****   return HAL_OK;
 3881              		.loc 1 996 0
 3882 047a 0023     		movs	r3, #0
 3883              	.L118:
 997:Drivers/STM32F3xx_HAL_Driver/Src/stm32f3xx_hal_pcd.c **** }
 3884              		.loc 1 997 0
 3885 047c 1846     		mov	r0, r3
 3886 047e 1037     		adds	r7, r7, #16
 3887              	.LCFI134:
 3888              		.cfi_def_cfa_offset 8
 3889 0480 BD46     		mov	sp, r7
 3890              	.LCFI135:
ARM GAS  /tmp/ccgaLh4p.s 			page 86


 3891              		.cfi_def_cfa_register 13
 3892              		@ sp needed
 3893 0482 90BC     		pop	{r4, r7}
 3894              	.LCFI136:
 3895              		.cfi_restore 7
 3896              		.cfi_restore 4
 3897              		.cfi_def_cfa_offset 0
 3898 0484 7047     		bx	lr
 3899              	.L133:
 3900 0486 00BF     		.align	2
 3901              	.L132:
 3902 0488 8080FFFF 		.word	-32640
 3903              		.cfi_endproc
 3904              	.LFE135:
 3906              		.section	.text.HAL_PCD_EP_Receive,"ax",%progbits
 3907              		.align	2
 3908              		.global	HAL_PCD_EP_Receive
 3909              		.thumb
 3910              		.thumb_func
 3912              	HAL_PCD_EP_Receive:
 3913              	.LFB136:
 998:Drivers/STM32F3xx_HAL_Driver/Src/stm32f3xx_hal_pcd.c **** 
 999:Drivers/STM32F3xx_HAL_Driver/Src/stm32f3xx_hal_pcd.c **** 
1000:Drivers/STM32F3xx_HAL_Driver/Src/stm32f3xx_hal_pcd.c **** /**
1001:Drivers/STM32F3xx_HAL_Driver/Src/stm32f3xx_hal_pcd.c ****   * @brief  Receive an amount of data  
1002:Drivers/STM32F3xx_HAL_Driver/Src/stm32f3xx_hal_pcd.c ****   * @param  hpcd: PCD handle
1003:Drivers/STM32F3xx_HAL_Driver/Src/stm32f3xx_hal_pcd.c ****   * @param  ep_addr: endpoint address
1004:Drivers/STM32F3xx_HAL_Driver/Src/stm32f3xx_hal_pcd.c ****   * @param  pBuf: pointer to the reception buffer   
1005:Drivers/STM32F3xx_HAL_Driver/Src/stm32f3xx_hal_pcd.c ****   * @param  len: amount of data to be received
1006:Drivers/STM32F3xx_HAL_Driver/Src/stm32f3xx_hal_pcd.c ****   * @retval HAL status
1007:Drivers/STM32F3xx_HAL_Driver/Src/stm32f3xx_hal_pcd.c ****   */
1008:Drivers/STM32F3xx_HAL_Driver/Src/stm32f3xx_hal_pcd.c **** HAL_StatusTypeDef HAL_PCD_EP_Receive(PCD_HandleTypeDef *hpcd, uint8_t ep_addr, uint8_t *pBuf, uint3
1009:Drivers/STM32F3xx_HAL_Driver/Src/stm32f3xx_hal_pcd.c **** {
 3914              		.loc 1 1009 0
 3915              		.cfi_startproc
 3916              		@ args = 0, pretend = 0, frame = 32
 3917              		@ frame_needed = 1, uses_anonymous_args = 0
 3918              		@ link register save eliminated.
 3919 0000 90B4     		push	{r4, r7}
 3920              	.LCFI137:
 3921              		.cfi_def_cfa_offset 8
 3922              		.cfi_offset 4, -8
 3923              		.cfi_offset 7, -4
 3924 0002 88B0     		sub	sp, sp, #32
 3925              	.LCFI138:
 3926              		.cfi_def_cfa_offset 40
 3927 0004 00AF     		add	r7, sp, #0
 3928              	.LCFI139:
 3929              		.cfi_def_cfa_register 7
 3930 0006 F860     		str	r0, [r7, #12]
 3931 0008 7A60     		str	r2, [r7, #4]
 3932 000a 3B60     		str	r3, [r7]
 3933 000c 0B46     		mov	r3, r1
 3934 000e FB72     		strb	r3, [r7, #11]
1010:Drivers/STM32F3xx_HAL_Driver/Src/stm32f3xx_hal_pcd.c ****   
1011:Drivers/STM32F3xx_HAL_Driver/Src/stm32f3xx_hal_pcd.c ****  PCD_EPTypeDef *ep;
1012:Drivers/STM32F3xx_HAL_Driver/Src/stm32f3xx_hal_pcd.c ****   
ARM GAS  /tmp/ccgaLh4p.s 			page 87


1013:Drivers/STM32F3xx_HAL_Driver/Src/stm32f3xx_hal_pcd.c ****   ep = &hpcd->OUT_ep[ep_addr & 0x7F];
 3935              		.loc 1 1013 0
 3936 0010 FB7A     		ldrb	r3, [r7, #11]	@ zero_extendqisi2
 3937 0012 03F07F02 		and	r2, r3, #127
 3938 0016 1346     		mov	r3, r2
 3939 0018 DB00     		lsls	r3, r3, #3
 3940 001a 9B1A     		subs	r3, r3, r2
 3941 001c 9B00     		lsls	r3, r3, #2
 3942 001e 03F58473 		add	r3, r3, #264
 3943 0022 FA68     		ldr	r2, [r7, #12]
 3944 0024 1344     		add	r3, r3, r2
 3945 0026 BB61     		str	r3, [r7, #24]
1014:Drivers/STM32F3xx_HAL_Driver/Src/stm32f3xx_hal_pcd.c ****   
1015:Drivers/STM32F3xx_HAL_Driver/Src/stm32f3xx_hal_pcd.c ****   /*setup and start the Xfer */
1016:Drivers/STM32F3xx_HAL_Driver/Src/stm32f3xx_hal_pcd.c ****   ep->xfer_buff = pBuf;  
 3946              		.loc 1 1016 0
 3947 0028 BB69     		ldr	r3, [r7, #24]
 3948 002a 7A68     		ldr	r2, [r7, #4]
 3949 002c 1A61     		str	r2, [r3, #16]
1017:Drivers/STM32F3xx_HAL_Driver/Src/stm32f3xx_hal_pcd.c ****   ep->xfer_len = len;
 3950              		.loc 1 1017 0
 3951 002e BB69     		ldr	r3, [r7, #24]
 3952 0030 3A68     		ldr	r2, [r7]
 3953 0032 5A61     		str	r2, [r3, #20]
1018:Drivers/STM32F3xx_HAL_Driver/Src/stm32f3xx_hal_pcd.c ****   ep->xfer_count = 0;
 3954              		.loc 1 1018 0
 3955 0034 BB69     		ldr	r3, [r7, #24]
 3956 0036 0022     		movs	r2, #0
 3957 0038 9A61     		str	r2, [r3, #24]
1019:Drivers/STM32F3xx_HAL_Driver/Src/stm32f3xx_hal_pcd.c ****   ep->is_in = 0;
 3958              		.loc 1 1019 0
 3959 003a BB69     		ldr	r3, [r7, #24]
 3960 003c 0022     		movs	r2, #0
 3961 003e 5A70     		strb	r2, [r3, #1]
1020:Drivers/STM32F3xx_HAL_Driver/Src/stm32f3xx_hal_pcd.c ****   ep->num = ep_addr & 0x7F;
 3962              		.loc 1 1020 0
 3963 0040 FB7A     		ldrb	r3, [r7, #11]
 3964 0042 03F07F03 		and	r3, r3, #127
 3965 0046 DAB2     		uxtb	r2, r3
 3966 0048 BB69     		ldr	r3, [r7, #24]
 3967 004a 1A70     		strb	r2, [r3]
1021:Drivers/STM32F3xx_HAL_Driver/Src/stm32f3xx_hal_pcd.c ****    
1022:Drivers/STM32F3xx_HAL_Driver/Src/stm32f3xx_hal_pcd.c ****   __HAL_LOCK(hpcd); 
 3968              		.loc 1 1022 0
 3969 004c FB68     		ldr	r3, [r7, #12]
 3970 004e 93F8E831 		ldrb	r3, [r3, #488]	@ zero_extendqisi2
 3971 0052 012B     		cmp	r3, #1
 3972 0054 01D1     		bne	.L135
 3973              		.loc 1 1022 0 is_stmt 0 discriminator 1
 3974 0056 0223     		movs	r3, #2
 3975 0058 DEE0     		b	.L136
 3976              	.L135:
 3977              		.loc 1 1022 0 discriminator 2
 3978 005a FB68     		ldr	r3, [r7, #12]
 3979 005c 0122     		movs	r2, #1
 3980 005e 83F8E821 		strb	r2, [r3, #488]
1023:Drivers/STM32F3xx_HAL_Driver/Src/stm32f3xx_hal_pcd.c ****    
ARM GAS  /tmp/ccgaLh4p.s 			page 88


1024:Drivers/STM32F3xx_HAL_Driver/Src/stm32f3xx_hal_pcd.c ****   /* Multi packet transfer*/
1025:Drivers/STM32F3xx_HAL_Driver/Src/stm32f3xx_hal_pcd.c ****   if (ep->xfer_len > ep->maxpacket)
 3981              		.loc 1 1025 0 is_stmt 1 discriminator 2
 3982 0062 BB69     		ldr	r3, [r7, #24]
 3983 0064 5A69     		ldr	r2, [r3, #20]
 3984 0066 BB69     		ldr	r3, [r7, #24]
 3985 0068 DB68     		ldr	r3, [r3, #12]
 3986 006a 9A42     		cmp	r2, r3
 3987 006c 09D9     		bls	.L137
1026:Drivers/STM32F3xx_HAL_Driver/Src/stm32f3xx_hal_pcd.c ****   {
1027:Drivers/STM32F3xx_HAL_Driver/Src/stm32f3xx_hal_pcd.c ****     len=ep->maxpacket;
 3988              		.loc 1 1027 0
 3989 006e BB69     		ldr	r3, [r7, #24]
 3990 0070 DB68     		ldr	r3, [r3, #12]
 3991 0072 3B60     		str	r3, [r7]
1028:Drivers/STM32F3xx_HAL_Driver/Src/stm32f3xx_hal_pcd.c ****     ep->xfer_len-=len; 
 3992              		.loc 1 1028 0
 3993 0074 BB69     		ldr	r3, [r7, #24]
 3994 0076 5A69     		ldr	r2, [r3, #20]
 3995 0078 3B68     		ldr	r3, [r7]
 3996 007a D21A     		subs	r2, r2, r3
 3997 007c BB69     		ldr	r3, [r7, #24]
 3998 007e 5A61     		str	r2, [r3, #20]
 3999 0080 05E0     		b	.L138
 4000              	.L137:
1029:Drivers/STM32F3xx_HAL_Driver/Src/stm32f3xx_hal_pcd.c ****   }
1030:Drivers/STM32F3xx_HAL_Driver/Src/stm32f3xx_hal_pcd.c ****   else
1031:Drivers/STM32F3xx_HAL_Driver/Src/stm32f3xx_hal_pcd.c ****   {
1032:Drivers/STM32F3xx_HAL_Driver/Src/stm32f3xx_hal_pcd.c ****     len=ep->xfer_len;
 4001              		.loc 1 1032 0
 4002 0082 BB69     		ldr	r3, [r7, #24]
 4003 0084 5B69     		ldr	r3, [r3, #20]
 4004 0086 3B60     		str	r3, [r7]
1033:Drivers/STM32F3xx_HAL_Driver/Src/stm32f3xx_hal_pcd.c ****     ep->xfer_len =0;
 4005              		.loc 1 1033 0
 4006 0088 BB69     		ldr	r3, [r7, #24]
 4007 008a 0022     		movs	r2, #0
 4008 008c 5A61     		str	r2, [r3, #20]
 4009              	.L138:
1034:Drivers/STM32F3xx_HAL_Driver/Src/stm32f3xx_hal_pcd.c ****   }
1035:Drivers/STM32F3xx_HAL_Driver/Src/stm32f3xx_hal_pcd.c ****   
1036:Drivers/STM32F3xx_HAL_Driver/Src/stm32f3xx_hal_pcd.c ****   /* configure and validate Rx endpoint */
1037:Drivers/STM32F3xx_HAL_Driver/Src/stm32f3xx_hal_pcd.c ****   if (ep->doublebuffer == 0) 
 4010              		.loc 1 1037 0
 4011 008e BB69     		ldr	r3, [r7, #24]
 4012 0090 9B7A     		ldrb	r3, [r3, #10]	@ zero_extendqisi2
 4013 0092 002B     		cmp	r3, #0
 4014 0094 3FD1     		bne	.L139
 4015              	.LBB19:
1038:Drivers/STM32F3xx_HAL_Driver/Src/stm32f3xx_hal_pcd.c ****   {
1039:Drivers/STM32F3xx_HAL_Driver/Src/stm32f3xx_hal_pcd.c ****     /*Set RX buffer count*/
1040:Drivers/STM32F3xx_HAL_Driver/Src/stm32f3xx_hal_pcd.c ****     PCD_SET_EP_RX_CNT(hpcd->Instance, ep->num, len);
 4016              		.loc 1 1040 0
 4017 0096 FB68     		ldr	r3, [r7, #12]
 4018 0098 1B68     		ldr	r3, [r3]
 4019 009a B3F85030 		ldrh	r3, [r3, #80]	@ movhi
 4020 009e 9BB2     		uxth	r3, r3
ARM GAS  /tmp/ccgaLh4p.s 			page 89


 4021 00a0 1A46     		mov	r2, r3
 4022 00a2 BB69     		ldr	r3, [r7, #24]
 4023 00a4 1B78     		ldrb	r3, [r3]	@ zero_extendqisi2
 4024 00a6 DB00     		lsls	r3, r3, #3
 4025 00a8 1344     		add	r3, r3, r2
 4026 00aa 0633     		adds	r3, r3, #6
 4027 00ac 5B00     		lsls	r3, r3, #1
 4028 00ae 1A46     		mov	r2, r3
 4029 00b0 FB68     		ldr	r3, [r7, #12]
