Archive member included to satisfy reference by file (symbol)

/usr/lib/gcc/arm-none-eabi/5.1.0/../../../../arm-none-eabi/lib/armv7e-m/softfp/libc_nano.a(lib_a-atexit.o)
                              /usr/lib/gcc/arm-none-eabi/5.1.0/../../../../arm-none-eabi/lib/armv7e-m/softfp/crt0.o (atexit)
/usr/lib/gcc/arm-none-eabi/5.1.0/../../../../arm-none-eabi/lib/armv7e-m/softfp/libc_nano.a(lib_a-exit.o)
                              /usr/lib/gcc/arm-none-eabi/5.1.0/../../../../arm-none-eabi/lib/armv7e-m/softfp/crt0.o (exit)
/usr/lib/gcc/arm-none-eabi/5.1.0/../../../../arm-none-eabi/lib/armv7e-m/softfp/libc_nano.a(lib_a-fini.o)
                              /usr/lib/gcc/arm-none-eabi/5.1.0/../../../../arm-none-eabi/lib/armv7e-m/softfp/crt0.o (__libc_fini_array)
/usr/lib/gcc/arm-none-eabi/5.1.0/../../../../arm-none-eabi/lib/armv7e-m/softfp/libc_nano.a(lib_a-impure.o)
                              /usr/lib/gcc/arm-none-eabi/5.1.0/../../../../arm-none-eabi/lib/armv7e-m/softfp/libc_nano.a(lib_a-exit.o) (_global_impure_ptr)
/usr/lib/gcc/arm-none-eabi/5.1.0/../../../../arm-none-eabi/lib/armv7e-m/softfp/libc_nano.a(lib_a-init.o)
                              /usr/lib/gcc/arm-none-eabi/5.1.0/../../../../arm-none-eabi/lib/armv7e-m/softfp/crt0.o (__libc_init_array)
/usr/lib/gcc/arm-none-eabi/5.1.0/../../../../arm-none-eabi/lib/armv7e-m/softfp/libc_nano.a(lib_a-malloc.o)
                              build/triggerchannel.o (malloc)
/usr/lib/gcc/arm-none-eabi/5.1.0/../../../../arm-none-eabi/lib/armv7e-m/softfp/libc_nano.a(lib_a-memcpy.o)
                              build/midi.o (memcpy)
/usr/lib/gcc/arm-none-eabi/5.1.0/../../../../arm-none-eabi/lib/armv7e-m/softfp/libc_nano.a(lib_a-memset.o)
                              /usr/lib/gcc/arm-none-eabi/5.1.0/../../../../arm-none-eabi/lib/armv7e-m/softfp/crt0.o (memset)
/usr/lib/gcc/arm-none-eabi/5.1.0/../../../../arm-none-eabi/lib/armv7e-m/softfp/libc_nano.a(lib_a-nano-freer.o)
                              /usr/lib/gcc/arm-none-eabi/5.1.0/../../../../arm-none-eabi/lib/armv7e-m/softfp/libc_nano.a(lib_a-malloc.o) (_free_r)
/usr/lib/gcc/arm-none-eabi/5.1.0/../../../../arm-none-eabi/lib/armv7e-m/softfp/libc_nano.a(lib_a-nano-mallocr.o)
                              /usr/lib/gcc/arm-none-eabi/5.1.0/../../../../arm-none-eabi/lib/armv7e-m/softfp/libc_nano.a(lib_a-malloc.o) (_malloc_r)
/usr/lib/gcc/arm-none-eabi/5.1.0/../../../../arm-none-eabi/lib/armv7e-m/softfp/libc_nano.a(lib_a-sbrkr.o)
                              /usr/lib/gcc/arm-none-eabi/5.1.0/../../../../arm-none-eabi/lib/armv7e-m/softfp/libc_nano.a(lib_a-nano-mallocr.o) (_sbrk_r)
/usr/lib/gcc/arm-none-eabi/5.1.0/../../../../arm-none-eabi/lib/armv7e-m/softfp/libc_nano.a(lib_a-sprintf.o)
                              build/hihatchannel.o (sprintf)
/usr/lib/gcc/arm-none-eabi/5.1.0/../../../../arm-none-eabi/lib/armv7e-m/softfp/libc_nano.a(lib_a-__atexit.o)
                              /usr/lib/gcc/arm-none-eabi/5.1.0/../../../../arm-none-eabi/lib/armv7e-m/softfp/libc_nano.a(lib_a-atexit.o) (__register_exitproc)
/usr/lib/gcc/arm-none-eabi/5.1.0/../../../../arm-none-eabi/lib/armv7e-m/softfp/libc_nano.a(lib_a-__call_atexit.o)
                              /usr/lib/gcc/arm-none-eabi/5.1.0/../../../../arm-none-eabi/lib/armv7e-m/softfp/libc_nano.a(lib_a-__atexit.o) (__call_exitprocs)
/usr/lib/gcc/arm-none-eabi/5.1.0/../../../../arm-none-eabi/lib/armv7e-m/softfp/libc_nano.a(lib_a-nano-svfprintf.o)
                              /usr/lib/gcc/arm-none-eabi/5.1.0/../../../../arm-none-eabi/lib/armv7e-m/softfp/libc_nano.a(lib_a-sprintf.o) (_svfprintf_r)
/usr/lib/gcc/arm-none-eabi/5.1.0/../../../../arm-none-eabi/lib/armv7e-m/softfp/libc_nano.a(lib_a-nano-vfprintf_i.o)
                              /usr/lib/gcc/arm-none-eabi/5.1.0/../../../../arm-none-eabi/lib/armv7e-m/softfp/libc_nano.a(lib_a-nano-svfprintf.o) (_printf_i)
/usr/lib/gcc/arm-none-eabi/5.1.0/../../../../arm-none-eabi/lib/armv7e-m/softfp/libc_nano.a(lib_a-reent.o)
                              /usr/lib/gcc/arm-none-eabi/5.1.0/../../../../arm-none-eabi/lib/armv7e-m/softfp/libc_nano.a(lib_a-sbrkr.o) (errno)
/usr/lib/gcc/arm-none-eabi/5.1.0/../../../../arm-none-eabi/lib/armv7e-m/softfp/libc_nano.a(lib_a-memchr.o)
                              /usr/lib/gcc/arm-none-eabi/5.1.0/../../../../arm-none-eabi/lib/armv7e-m/softfp/libc_nano.a(lib_a-nano-svfprintf.o) (memchr)
/usr/lib/gcc/arm-none-eabi/5.1.0/../../../../arm-none-eabi/lib/armv7e-m/softfp/libc_nano.a(lib_a-memmove.o)
                              /usr/lib/gcc/arm-none-eabi/5.1.0/../../../../arm-none-eabi/lib/armv7e-m/softfp/libc_nano.a(lib_a-nano-svfprintf.o) (memmove)
/usr/lib/gcc/arm-none-eabi/5.1.0/../../../../arm-none-eabi/lib/armv7e-m/softfp/libc_nano.a(lib_a-nano-reallocr.o)
                              /usr/lib/gcc/arm-none-eabi/5.1.0/../../../../arm-none-eabi/lib/armv7e-m/softfp/libc_nano.a(lib_a-nano-svfprintf.o) (_realloc_r)
/usr/lib/gcc/arm-none-eabi/5.1.0/../../../../arm-none-eabi/lib/armv7e-m/softfp/libc_nano.a(lib_a-nano-msizer.o)
                              /usr/lib/gcc/arm-none-eabi/5.1.0/../../../../arm-none-eabi/lib/armv7e-m/softfp/libc_nano.a(lib_a-nano-reallocr.o) (_malloc_usable_size_r)
/usr/lib/gcc/arm-none-eabi/5.1.0/../../../../arm-none-eabi/lib/armv7e-m/softfp/libnosys.a(sbrk.o)
                              /usr/lib/gcc/arm-none-eabi/5.1.0/../../../../arm-none-eabi/lib/armv7e-m/softfp/libc_nano.a(lib_a-sbrkr.o) (_sbrk)
/usr/lib/gcc/arm-none-eabi/5.1.0/../../../../arm-none-eabi/lib/armv7e-m/softfp/libnosys.a(_exit.o)
                              /usr/lib/gcc/arm-none-eabi/5.1.0/../../../../arm-none-eabi/lib/armv7e-m/softfp/libc_nano.a(lib_a-exit.o) (_exit)

Allocating common symbols
Common symbol       size              file

hUsbDeviceFS        0x224             build/usb_device.o
adc4Samples         0x8               build/main.o
hUsbDevice_0        0x4               build/usbd_audio_if.o
hdma_adc4           0x38              build/adc.o
hspi2               0x60              build/spi.o
errno               0x4               /usr/lib/gcc/arm-none-eabi/5.1.0/../../../../arm-none-eabi/lib/armv7e-m/softfp/libc_nano.a(lib_a-reent.o)
huart3              0x6c              build/usart.o
hadc2               0x4c              build/adc.o
triggerChannelsRim  0x2f8             build/main.o
midi_TxBuffer       0xa               build/main.o
triggerChannelsHead
                    0x2f8             build/main.o
midi_messageBufferReadHead
                    0x1               build/main.o
hdma_adc3           0x38              build/adc.o
pFlash              0x20              build/stm32f3xx_hal_flash.o
htim3               0x3c              build/tim.o
hadc1               0x4c              build/adc.o
hadc3               0x4c              build/adc.o
adc2Samples         0x70              build/main.o
huart1              0x6c              build/usart.o
buffer              0x50              build/hihatchannel.o
hdma_adc1           0x38              build/adc.o
hiHatChannels       0x88              build/main.o
htim1               0x3c              build/tim.o
adc1Samples         0xa0              build/main.o
adc3Samples         0x30              build/main.o
htim2               0x3c              build/tim.o
hadc4               0x4c              build/adc.o
hdma_adc2           0x38              build/adc.o
midi_MessageBuffer  0x28              build/main.o
hpcd_USB_FS         0x220             build/usbd_conf.o
USBD_StrDesc        0x200             build/usbd_desc.o
midi_messageBufferWriteHead
                    0x1               build/main.o

Discarded input sections

 .text          0x0000000000000000        0x0 /usr/lib/gcc/arm-none-eabi/5.1.0/armv7e-m/softfp/crti.o
 .data          0x0000000000000000        0x0 /usr/lib/gcc/arm-none-eabi/5.1.0/armv7e-m/softfp/crti.o
 .bss           0x0000000000000000        0x0 /usr/lib/gcc/arm-none-eabi/5.1.0/armv7e-m/softfp/crti.o
 .text          0x0000000000000000        0x0 /usr/lib/gcc/arm-none-eabi/5.1.0/armv7e-m/softfp/crtbegin.o
 .data          0x0000000000000000        0x0 /usr/lib/gcc/arm-none-eabi/5.1.0/armv7e-m/softfp/crtbegin.o
 .bss           0x0000000000000000        0x0 /usr/lib/gcc/arm-none-eabi/5.1.0/armv7e-m/softfp/crtbegin.o
 .data.__dso_handle
                0x0000000000000000        0x4 /usr/lib/gcc/arm-none-eabi/5.1.0/armv7e-m/softfp/crtbegin.o
 .text          0x0000000000000000       0x68 /usr/lib/gcc/arm-none-eabi/5.1.0/../../../../arm-none-eabi/lib/armv7e-m/softfp/crt0.o
 .data          0x0000000000000000        0x0 /usr/lib/gcc/arm-none-eabi/5.1.0/../../../../arm-none-eabi/lib/armv7e-m/softfp/crt0.o
 .bss           0x0000000000000000        0x0 /usr/lib/gcc/arm-none-eabi/5.1.0/../../../../arm-none-eabi/lib/armv7e-m/softfp/crt0.o
 .ARM.extab     0x0000000000000000        0x0 /usr/lib/gcc/arm-none-eabi/5.1.0/../../../../arm-none-eabi/lib/armv7e-m/softfp/crt0.o
 .ARM.exidx     0x0000000000000000        0x8 /usr/lib/gcc/arm-none-eabi/5.1.0/../../../../arm-none-eabi/lib/armv7e-m/softfp/crt0.o
 .ARM.attributes
                0x0000000000000000       0x20 /usr/lib/gcc/arm-none-eabi/5.1.0/../../../../arm-none-eabi/lib/armv7e-m/softfp/crt0.o
 .text          0x0000000000000000        0x0 build/system_stm32f3xx.o
 .data          0x0000000000000000        0x0 build/system_stm32f3xx.o
 .bss           0x0000000000000000        0x0 build/system_stm32f3xx.o
 .data.AHBPrescTable
                0x0000000000000000       0x10 build/system_stm32f3xx.o
 .text.SystemCoreClockUpdate
                0x0000000000000000       0xd8 build/system_stm32f3xx.o
 .text          0x0000000000000000        0x0 build/stm32f3xx_hal.o
 .data          0x0000000000000000        0x0 build/stm32f3xx_hal.o
 .bss           0x0000000000000000        0x0 build/stm32f3xx_hal.o
 .text.HAL_DeInit
                0x0000000000000000       0x3c build/stm32f3xx_hal.o
 .text.HAL_MspInit
                0x0000000000000000       0x10 build/stm32f3xx_hal.o
 .text.HAL_MspDeInit
                0x0000000000000000       0x10 build/stm32f3xx_hal.o
 .text.HAL_SuspendTick
                0x0000000000000000       0x20 build/stm32f3xx_hal.o
 .text.HAL_ResumeTick
                0x0000000000000000       0x20 build/stm32f3xx_hal.o
 .text.HAL_GetHalVersion
                0x0000000000000000       0x14 build/stm32f3xx_hal.o
 .text.HAL_GetREVID
                0x0000000000000000       0x18 build/stm32f3xx_hal.o
 .text.HAL_GetDEVID
                0x0000000000000000       0x1c build/stm32f3xx_hal.o
 .text.HAL_EnableDBGSleepMode
                0x0000000000000000       0x20 build/stm32f3xx_hal.o
 .text.HAL_DisableDBGSleepMode
                0x0000000000000000       0x20 build/stm32f3xx_hal.o
 .text.HAL_EnableDBGStopMode
                0x0000000000000000       0x20 build/stm32f3xx_hal.o
 .text.HAL_DisableDBGStopMode
                0x0000000000000000       0x20 build/stm32f3xx_hal.o
 .text.HAL_EnableDBGStandbyMode
                0x0000000000000000       0x20 build/stm32f3xx_hal.o
 .text.HAL_DisableDBGStandbyMode
                0x0000000000000000       0x20 build/stm32f3xx_hal.o
 .text          0x0000000000000000        0x0 build/stm32f3xx_hal_adc.o
 .data          0x0000000000000000        0x0 build/stm32f3xx_hal_adc.o
 .bss           0x0000000000000000        0x0 build/stm32f3xx_hal_adc.o
 .text.HAL_ADC_Init
                0x0000000000000000       0x18 build/stm32f3xx_hal_adc.o
 .text.HAL_ADC_DeInit
                0x0000000000000000       0x18 build/stm32f3xx_hal_adc.o
 .text.HAL_ADC_MspInit
                0x0000000000000000       0x14 build/stm32f3xx_hal_adc.o
 .text.HAL_ADC_MspDeInit
                0x0000000000000000       0x14 build/stm32f3xx_hal_adc.o
 .text.HAL_ADC_Start
                0x0000000000000000       0x18 build/stm32f3xx_hal_adc.o
 .text.HAL_ADC_Stop
                0x0000000000000000       0x18 build/stm32f3xx_hal_adc.o
 .text.HAL_ADC_PollForConversion
                0x0000000000000000       0x18 build/stm32f3xx_hal_adc.o
 .text.HAL_ADC_PollForEvent
                0x0000000000000000       0x1c build/stm32f3xx_hal_adc.o
 .text.HAL_ADC_Start_IT
                0x0000000000000000       0x18 build/stm32f3xx_hal_adc.o
 .text.HAL_ADC_Stop_IT
                0x0000000000000000       0x18 build/stm32f3xx_hal_adc.o
 .text.HAL_ADC_Start_DMA
                0x0000000000000000       0x1c build/stm32f3xx_hal_adc.o
 .text.HAL_ADC_Stop_DMA
                0x0000000000000000       0x18 build/stm32f3xx_hal_adc.o
 .text.HAL_ADC_GetValue
                0x0000000000000000       0x1c build/stm32f3xx_hal_adc.o
 .text.HAL_ADC_IRQHandler
                0x0000000000000000       0x14 build/stm32f3xx_hal_adc.o
 .text.HAL_ADC_LevelOutOfWindowCallback
                0x0000000000000000       0x14 build/stm32f3xx_hal_adc.o
 .text.HAL_ADC_ConfigChannel
                0x0000000000000000       0x18 build/stm32f3xx_hal_adc.o
 .text.HAL_ADC_AnalogWDGConfig
                0x0000000000000000       0x18 build/stm32f3xx_hal_adc.o
 .text.HAL_ADC_GetState
                0x0000000000000000       0x1c build/stm32f3xx_hal_adc.o
 .text.HAL_ADC_GetError
                0x0000000000000000       0x18 build/stm32f3xx_hal_adc.o
 .text          0x0000000000000000        0x0 build/stm32f3xx_hal_adc_ex.o
 .data          0x0000000000000000        0x0 build/stm32f3xx_hal_adc_ex.o
 .bss           0x0000000000000000        0x0 build/stm32f3xx_hal_adc_ex.o
 .text.HAL_ADC_DeInit
                0x0000000000000000      0x2fc build/stm32f3xx_hal_adc_ex.o
 .text.HAL_ADC_Start
                0x0000000000000000       0xd4 build/stm32f3xx_hal_adc_ex.o
 .text.HAL_ADC_Stop
                0x0000000000000000       0x60 build/stm32f3xx_hal_adc_ex.o
 .text.HAL_ADC_PollForConversion
                0x0000000000000000       0xb4 build/stm32f3xx_hal_adc_ex.o
 .text.HAL_ADC_PollForEvent
                0x0000000000000000      0x104 build/stm32f3xx_hal_adc_ex.o
 .text.HAL_ADC_Start_IT
                0x0000000000000000      0x110 build/stm32f3xx_hal_adc_ex.o
 .text.HAL_ADC_Stop_IT
                0x0000000000000000       0x70 build/stm32f3xx_hal_adc_ex.o
 .text.HAL_ADC_Stop_DMA
                0x0000000000000000       0xa8 build/stm32f3xx_hal_adc_ex.o
 .text.HAL_ADC_GetValue
                0x0000000000000000       0x24 build/stm32f3xx_hal_adc_ex.o
 .text.HAL_ADC_IRQHandler
                0x0000000000000000      0x318 build/stm32f3xx_hal_adc_ex.o
 .text.HAL_ADCEx_Calibration_Start
                0x0000000000000000       0xc0 build/stm32f3xx_hal_adc_ex.o
 .text.HAL_ADCEx_Calibration_GetValue
                0x0000000000000000       0x34 build/stm32f3xx_hal_adc_ex.o
 .text.HAL_ADCEx_Calibration_SetValue
                0x0000000000000000       0xd8 build/stm32f3xx_hal_adc_ex.o
 .text.HAL_ADCEx_InjectedStart
                0x0000000000000000       0xe0 build/stm32f3xx_hal_adc_ex.o
 .text.HAL_ADCEx_InjectedStop
                0x0000000000000000       0x90 build/stm32f3xx_hal_adc_ex.o
 .text.HAL_ADCEx_InjectedPollForConversion
                0x0000000000000000       0xa8 build/stm32f3xx_hal_adc_ex.o
 .text.HAL_ADCEx_InjectedStart_IT
                0x0000000000000000      0x13c build/stm32f3xx_hal_adc_ex.o
 .text.HAL_ADCEx_InjectedStop_IT
                0x0000000000000000       0xa0 build/stm32f3xx_hal_adc_ex.o
 .text.HAL_ADCEx_MultiModeStart_DMA
                0x0000000000000000      0x158 build/stm32f3xx_hal_adc_ex.o
 .text.HAL_ADCEx_MultiModeStop_DMA
                0x0000000000000000      0x184 build/stm32f3xx_hal_adc_ex.o
 .text.HAL_ADCEx_MultiModeGetValue
                0x0000000000000000       0x40 build/stm32f3xx_hal_adc_ex.o
 .text.HAL_ADCEx_InjectedGetValue
                0x0000000000000000       0x64 build/stm32f3xx_hal_adc_ex.o
 .text.HAL_ADCEx_InjectedConvCpltCallback
                0x0000000000000000       0x14 build/stm32f3xx_hal_adc_ex.o
 .text.HAL_ADCEx_InjectedQueueOverflowCallback
                0x0000000000000000       0x14 build/stm32f3xx_hal_adc_ex.o
 .text.HAL_ADCEx_InjectedConfigChannel
                0x0000000000000000      0x778 build/stm32f3xx_hal_adc_ex.o
 .text.HAL_ADC_AnalogWDGConfig
                0x0000000000000000      0x2a0 build/stm32f3xx_hal_adc_ex.o
 .text.HAL_ADCEx_MultiModeConfigChannel
                0x0000000000000000      0x140 build/stm32f3xx_hal_adc_ex.o
 .text.ADC_ConversionStop
                0x0000000000000000      0x150 build/stm32f3xx_hal_adc_ex.o
 .bss.tmp_JSQR_ContextQueueBeingBuilt.7050
                0x0000000000000000        0x4 build/stm32f3xx_hal_adc_ex.o
 .bss.tmp_JSQR_ContextQueueBeingBuilt_Channel_Count.7049
                0x0000000000000000        0x4 build/stm32f3xx_hal_adc_ex.o
 .bss.tmp_JSQR_ContextQueueBeingBuilt_ADCInstance.7048
                0x0000000000000000        0x4 build/stm32f3xx_hal_adc_ex.o
 .text          0x0000000000000000        0x0 build/stm32f3xx_hal_cortex.o
 .data          0x0000000000000000        0x0 build/stm32f3xx_hal_cortex.o
 .bss           0x0000000000000000        0x0 build/stm32f3xx_hal_cortex.o
 .text.NVIC_DisableIRQ
                0x0000000000000000       0x34 build/stm32f3xx_hal_cortex.o
 .text.NVIC_GetPendingIRQ
                0x0000000000000000       0x40 build/stm32f3xx_hal_cortex.o
 .text.NVIC_SetPendingIRQ
                0x0000000000000000       0x34 build/stm32f3xx_hal_cortex.o
 .text.NVIC_ClearPendingIRQ
                0x0000000000000000       0x34 build/stm32f3xx_hal_cortex.o
 .text.NVIC_GetActive
                0x0000000000000000       0x40 build/stm32f3xx_hal_cortex.o
 .text.NVIC_GetPriority
                0x0000000000000000       0x50 build/stm32f3xx_hal_cortex.o
 .text.NVIC_DecodePriority
                0x0000000000000000       0x70 build/stm32f3xx_hal_cortex.o
 .text.NVIC_SystemReset
                0x0000000000000000       0x28 build/stm32f3xx_hal_cortex.o
 .text.HAL_NVIC_DisableIRQ
                0x0000000000000000       0x1c build/stm32f3xx_hal_cortex.o
 .text.HAL_NVIC_SystemReset
                0x0000000000000000        0xc build/stm32f3xx_hal_cortex.o
 .text.HAL_NVIC_GetPriorityGrouping
                0x0000000000000000       0x10 build/stm32f3xx_hal_cortex.o
 .text.HAL_NVIC_GetPriority
                0x0000000000000000       0x2c build/stm32f3xx_hal_cortex.o
 .text.HAL_NVIC_SetPendingIRQ
                0x0000000000000000       0x1c build/stm32f3xx_hal_cortex.o
 .text.HAL_NVIC_GetPendingIRQ
                0x0000000000000000       0x20 build/stm32f3xx_hal_cortex.o
 .text.HAL_NVIC_ClearPendingIRQ
                0x0000000000000000       0x1c build/stm32f3xx_hal_cortex.o
 .text.HAL_NVIC_GetActive
                0x0000000000000000       0x20 build/stm32f3xx_hal_cortex.o
 .text.HAL_SYSTICK_CLKSourceConfig
                0x0000000000000000       0x38 build/stm32f3xx_hal_cortex.o
 .text          0x0000000000000000        0x0 build/stm32f3xx_hal_dma.o
 .data          0x0000000000000000        0x0 build/stm32f3xx_hal_dma.o
 .bss           0x0000000000000000        0x0 build/stm32f3xx_hal_dma.o
 .text.HAL_DMA_DeInit
                0x0000000000000000      0x5ac build/stm32f3xx_hal_dma.o
 .text.HAL_DMA_Start
                0x0000000000000000       0x64 build/stm32f3xx_hal_dma.o
 .text.HAL_DMA_Abort
                0x0000000000000000       0x7c build/stm32f3xx_hal_dma.o
 .text.HAL_DMA_PollForTransfer
                0x0000000000000000      0x9b4 build/stm32f3xx_hal_dma.o
 .text.HAL_DMA_IRQHandler
                0x0000000000000000      0xbc4 build/stm32f3xx_hal_dma.o
 .text.HAL_DMA_GetState
                0x0000000000000000       0x1c build/stm32f3xx_hal_dma.o
 .text.HAL_DMA_GetError
                0x0000000000000000       0x18 build/stm32f3xx_hal_dma.o
 .text          0x0000000000000000        0x0 build/stm32f3xx_hal_flash.o
 .data          0x0000000000000000        0x0 build/stm32f3xx_hal_flash.o
 .bss           0x0000000000000000        0x0 build/stm32f3xx_hal_flash.o
 .text.HAL_FLASH_Program
                0x0000000000000000       0xec build/stm32f3xx_hal_flash.o
 .text.HAL_FLASH_Program_IT
                0x0000000000000000       0x90 build/stm32f3xx_hal_flash.o
 .text.HAL_FLASH_IRQHandler
                0x0000000000000000      0x178 build/stm32f3xx_hal_flash.o
 .text.HAL_FLASH_EndOfOperationCallback
                0x0000000000000000       0x14 build/stm32f3xx_hal_flash.o
 .text.HAL_FLASH_OperationErrorCallback
                0x0000000000000000       0x14 build/stm32f3xx_hal_flash.o
 .text.HAL_FLASH_Unlock
                0x0000000000000000       0x38 build/stm32f3xx_hal_flash.o
 .text.HAL_FLASH_Lock
                0x0000000000000000       0x20 build/stm32f3xx_hal_flash.o
 .text.HAL_FLASH_OB_Unlock
                0x0000000000000000       0x38 build/stm32f3xx_hal_flash.o
 .text.HAL_FLASH_OB_Lock
                0x0000000000000000       0x20 build/stm32f3xx_hal_flash.o
 .text.HAL_FLASH_OB_Launch
                0x0000000000000000       0x24 build/stm32f3xx_hal_flash.o
 .text.HAL_FLASH_GetError
                0x0000000000000000       0x18 build/stm32f3xx_hal_flash.o
 .text.FLASH_Program_HalfWord
                0x0000000000000000       0x34 build/stm32f3xx_hal_flash.o
 .text.FLASH_WaitForLastOperation
                0x0000000000000000       0x6c build/stm32f3xx_hal_flash.o
 .text.FLASH_PageErase
                0x0000000000000000       0x3c build/stm32f3xx_hal_flash.o
 .text.FLASH_SetErrorCode
                0x0000000000000000       0x44 build/stm32f3xx_hal_flash.o
 .debug_info    0x0000000000000000      0x597 build/stm32f3xx_hal_flash.o
 .debug_abbrev  0x0000000000000000      0x1e1 build/stm32f3xx_hal_flash.o
 .debug_loc     0x0000000000000000      0x474 build/stm32f3xx_hal_flash.o
 .debug_aranges
                0x0000000000000000       0x90 build/stm32f3xx_hal_flash.o
 .debug_ranges  0x0000000000000000       0x80 build/stm32f3xx_hal_flash.o
 .debug_line    0x0000000000000000      0x33c build/stm32f3xx_hal_flash.o
 .debug_str     0x0000000000000000      0x553 build/stm32f3xx_hal_flash.o
 .comment       0x0000000000000000       0x1e build/stm32f3xx_hal_flash.o
 .debug_frame   0x0000000000000000      0x250 build/stm32f3xx_hal_flash.o
 .ARM.attributes
                0x0000000000000000       0x37 build/stm32f3xx_hal_flash.o
 COMMON         0x0000000000000000       0x20 build/stm32f3xx_hal_flash.o
 .text          0x0000000000000000        0x0 build/stm32f3xx_hal_flash_ex.o
 .data          0x0000000000000000        0x0 build/stm32f3xx_hal_flash_ex.o
 .bss           0x0000000000000000        0x0 build/stm32f3xx_hal_flash_ex.o
 .text.HAL_FLASHEx_Erase
                0x0000000000000000       0xf0 build/stm32f3xx_hal_flash_ex.o
 .text.HAL_FLASHEx_Erase_IT
                0x0000000000000000       0x70 build/stm32f3xx_hal_flash_ex.o
 .text.HAL_FLASHEx_OBErase
                0x0000000000000000       0x90 build/stm32f3xx_hal_flash_ex.o
 .text.HAL_FLASHEx_OBProgram
                0x0000000000000000       0x9c build/stm32f3xx_hal_flash_ex.o
 .text.HAL_FLASHEx_OBGetConfig
                0x0000000000000000       0x38 build/stm32f3xx_hal_flash_ex.o
 .text.FLASH_MassErase
                0x0000000000000000       0x30 build/stm32f3xx_hal_flash_ex.o
 .text.FLASH_OB_EnableWRP
                0x0000000000000000      0x128 build/stm32f3xx_hal_flash_ex.o
 .text.FLASH_OB_DisableWRP
                0x0000000000000000      0x124 build/stm32f3xx_hal_flash_ex.o
 .text.FLASH_OB_RDP_LevelConfig
                0x0000000000000000       0x64 build/stm32f3xx_hal_flash_ex.o
 .text.FLASH_OB_UserConfig
                0x0000000000000000       0x6c build/stm32f3xx_hal_flash_ex.o
 .text.FLASH_OB_ProgramData
                0x0000000000000000       0x64 build/stm32f3xx_hal_flash_ex.o
 .text.FLASH_OB_GetWRP
                0x0000000000000000       0x18 build/stm32f3xx_hal_flash_ex.o
 .text.FLASH_OB_GetRDP
                0x0000000000000000       0x34 build/stm32f3xx_hal_flash_ex.o
 .text.FLASH_OB_GetUser
                0x0000000000000000       0x1c build/stm32f3xx_hal_flash_ex.o
 .debug_info    0x0000000000000000      0x7c4 build/stm32f3xx_hal_flash_ex.o
 .debug_abbrev  0x0000000000000000      0x1d0 build/stm32f3xx_hal_flash_ex.o
 .debug_loc     0x0000000000000000      0x448 build/stm32f3xx_hal_flash_ex.o
 .debug_aranges
                0x0000000000000000       0x88 build/stm32f3xx_hal_flash_ex.o
 .debug_ranges  0x0000000000000000       0x78 build/stm32f3xx_hal_flash_ex.o
 .debug_line    0x0000000000000000      0x374 build/stm32f3xx_hal_flash_ex.o
 .debug_str     0x0000000000000000      0x646 build/stm32f3xx_hal_flash_ex.o
 .comment       0x0000000000000000       0x1e build/stm32f3xx_hal_flash_ex.o
 .debug_frame   0x0000000000000000      0x234 build/stm32f3xx_hal_flash_ex.o
 .ARM.attributes
                0x0000000000000000       0x37 build/stm32f3xx_hal_flash_ex.o
 .text          0x0000000000000000        0x0 build/stm32f3xx_hal_gpio.o
 .data          0x0000000000000000        0x0 build/stm32f3xx_hal_gpio.o
 .bss           0x0000000000000000        0x0 build/stm32f3xx_hal_gpio.o
 .text.HAL_GPIO_DeInit
                0x0000000000000000      0x140 build/stm32f3xx_hal_gpio.o
 .text.HAL_GPIO_TogglePin
                0x0000000000000000       0x24 build/stm32f3xx_hal_gpio.o
 .text.HAL_GPIO_LockPin
                0x0000000000000000       0x50 build/stm32f3xx_hal_gpio.o
 .text.HAL_GPIO_EXTI_Callback
                0x0000000000000000       0x18 build/stm32f3xx_hal_gpio.o
 .text          0x0000000000000000        0x0 build/stm32f3xx_hal_pcd.o
 .data          0x0000000000000000        0x0 build/stm32f3xx_hal_pcd.o
 .bss           0x0000000000000000        0x0 build/stm32f3xx_hal_pcd.o
 .text.HAL_PCD_DeInit
                0x0000000000000000       0x38 build/stm32f3xx_hal_pcd.o
 .text.HAL_PCD_MspInit
                0x0000000000000000       0x14 build/stm32f3xx_hal_pcd.o
 .text.HAL_PCD_MspDeInit
                0x0000000000000000       0x14 build/stm32f3xx_hal_pcd.o
 .text.HAL_PCD_Stop
                0x0000000000000000       0x54 build/stm32f3xx_hal_pcd.o
 .text.HAL_PCD_DataOutStageCallback
                0x0000000000000000       0x18 build/stm32f3xx_hal_pcd.o
 .text.HAL_PCD_DataInStageCallback
                0x0000000000000000       0x18 build/stm32f3xx_hal_pcd.o
 .text.HAL_PCD_SetupStageCallback
                0x0000000000000000       0x14 build/stm32f3xx_hal_pcd.o
 .text.HAL_PCD_SOFCallback
                0x0000000000000000       0x14 build/stm32f3xx_hal_pcd.o
 .text.HAL_PCD_ResetCallback
                0x0000000000000000       0x14 build/stm32f3xx_hal_pcd.o
 .text.HAL_PCD_SuspendCallback
                0x0000000000000000       0x14 build/stm32f3xx_hal_pcd.o
 .text.HAL_PCD_ResumeCallback
                0x0000000000000000       0x14 build/stm32f3xx_hal_pcd.o
 .text.HAL_PCD_ISOOUTIncompleteCallback
                0x0000000000000000       0x18 build/stm32f3xx_hal_pcd.o
 .text.HAL_PCD_ISOINIncompleteCallback
                0x0000000000000000       0x18 build/stm32f3xx_hal_pcd.o
 .text.HAL_PCD_ConnectCallback
                0x0000000000000000       0x14 build/stm32f3xx_hal_pcd.o
 .text.HAL_PCD_DisconnectCallback
                0x0000000000000000       0x14 build/stm32f3xx_hal_pcd.o
 .text.HAL_PCD_DevConnect
                0x0000000000000000       0x38 build/stm32f3xx_hal_pcd.o
 .text.HAL_PCD_DevDisconnect
                0x0000000000000000       0x38 build/stm32f3xx_hal_pcd.o
 .text.HAL_PCD_EP_GetRxCount
                0x0000000000000000       0x34 build/stm32f3xx_hal_pcd.o
 .text.HAL_PCD_EP_Flush
                0x0000000000000000       0x1c build/stm32f3xx_hal_pcd.o
 .text.HAL_PCD_ActiveRemoteWakeup
                0x0000000000000000       0x30 build/stm32f3xx_hal_pcd.o
 .text.HAL_PCD_DeActiveRemoteWakeup
                0x0000000000000000       0x30 build/stm32f3xx_hal_pcd.o
 .text.HAL_PCD_GetState
                0x0000000000000000       0x1c build/stm32f3xx_hal_pcd.o
 .text          0x0000000000000000        0x0 build/stm32f3xx_hal_pcd_ex.o
 .data          0x0000000000000000        0x0 build/stm32f3xx_hal_pcd_ex.o
 .bss           0x0000000000000000        0x0 build/stm32f3xx_hal_pcd_ex.o
 .text          0x0000000000000000        0x0 build/stm32f3xx_hal_pwr.o
 .data          0x0000000000000000        0x0 build/stm32f3xx_hal_pwr.o
 .bss           0x0000000000000000        0x0 build/stm32f3xx_hal_pwr.o
 .text.HAL_PWR_DeInit
                0x0000000000000000       0x2c build/stm32f3xx_hal_pwr.o
 .text.HAL_PWR_EnableBkUpAccess
                0x0000000000000000       0x40 build/stm32f3xx_hal_pwr.o
 .text.HAL_PWR_DisableBkUpAccess
                0x0000000000000000       0x40 build/stm32f3xx_hal_pwr.o
 .text.HAL_PWR_EnableWakeUpPin
                0x0000000000000000       0x54 build/stm32f3xx_hal_pwr.o
 .text.HAL_PWR_DisableWakeUpPin
                0x0000000000000000       0x54 build/stm32f3xx_hal_pwr.o
 .text.HAL_PWR_EnterSLEEPMode
                0x0000000000000000       0x5c build/stm32f3xx_hal_pwr.o
 .text.HAL_PWR_EnterSTOPMode
                0x0000000000000000       0x68 build/stm32f3xx_hal_pwr.o
 .text.HAL_PWR_EnterSTANDBYMode
                0x0000000000000000       0x30 build/stm32f3xx_hal_pwr.o
 .debug_info    0x0000000000000000      0x785 build/stm32f3xx_hal_pwr.o
 .debug_abbrev  0x0000000000000000      0x1d9 build/stm32f3xx_hal_pwr.o
 .debug_loc     0x0000000000000000      0x2b0 build/stm32f3xx_hal_pwr.o
 .debug_aranges
                0x0000000000000000       0x58 build/stm32f3xx_hal_pwr.o
 .debug_ranges  0x0000000000000000       0x48 build/stm32f3xx_hal_pwr.o
 .debug_line    0x0000000000000000      0x24d build/stm32f3xx_hal_pwr.o
 .debug_str     0x0000000000000000      0x3b8 build/stm32f3xx_hal_pwr.o
 .comment       0x0000000000000000       0x1e build/stm32f3xx_hal_pwr.o
 .debug_frame   0x0000000000000000      0x148 build/stm32f3xx_hal_pwr.o
 .ARM.attributes
                0x0000000000000000       0x37 build/stm32f3xx_hal_pwr.o
 .text          0x0000000000000000        0x0 build/stm32f3xx_hal_pwr_ex.o
 .data          0x0000000000000000        0x0 build/stm32f3xx_hal_pwr_ex.o
 .bss           0x0000000000000000        0x0 build/stm32f3xx_hal_pwr_ex.o
 .text.HAL_PWR_PVDConfig
                0x0000000000000000       0xc0 build/stm32f3xx_hal_pwr_ex.o
 .text.HAL_PWR_EnablePVD
                0x0000000000000000       0x40 build/stm32f3xx_hal_pwr_ex.o
 .text.HAL_PWR_DisablePVD
                0x0000000000000000       0x40 build/stm32f3xx_hal_pwr_ex.o
 .text.HAL_PWR_PVD_IRQHandler
                0x0000000000000000       0x24 build/stm32f3xx_hal_pwr_ex.o
 .text.HAL_PWR_PVDCallback
                0x0000000000000000       0x10 build/stm32f3xx_hal_pwr_ex.o
 .debug_info    0x0000000000000000      0x3e4 build/stm32f3xx_hal_pwr_ex.o
 .debug_abbrev  0x0000000000000000      0x190 build/stm32f3xx_hal_pwr_ex.o
 .debug_loc     0x0000000000000000      0x184 build/stm32f3xx_hal_pwr_ex.o
 .debug_aranges
                0x0000000000000000       0x40 build/stm32f3xx_hal_pwr_ex.o
 .debug_ranges  0x0000000000000000       0x30 build/stm32f3xx_hal_pwr_ex.o
 .debug_line    0x0000000000000000      0x1fe build/stm32f3xx_hal_pwr_ex.o
 .debug_str     0x0000000000000000      0x2ec build/stm32f3xx_hal_pwr_ex.o
 .comment       0x0000000000000000       0x1e build/stm32f3xx_hal_pwr_ex.o
 .debug_frame   0x0000000000000000       0xc8 build/stm32f3xx_hal_pwr_ex.o
 .ARM.attributes
                0x0000000000000000       0x37 build/stm32f3xx_hal_pwr_ex.o
 .text          0x0000000000000000        0x0 build/stm32f3xx_hal_rcc.o
 .data          0x0000000000000000        0x0 build/stm32f3xx_hal_rcc.o
 .bss           0x0000000000000000        0x0 build/stm32f3xx_hal_rcc.o
 .text.HAL_RCC_DeInit
                0x0000000000000000       0x64 build/stm32f3xx_hal_rcc.o
 .text.HAL_RCC_OscConfig
                0x0000000000000000       0x18 build/stm32f3xx_hal_rcc.o
 .text.HAL_RCC_MCOConfig
                0x0000000000000000       0x58 build/stm32f3xx_hal_rcc.o
 .text.HAL_RCC_DisableCSS
                0x0000000000000000       0x18 build/stm32f3xx_hal_rcc.o
 .text.HAL_RCC_GetSysClockFreq
                0x0000000000000000       0x10 build/stm32f3xx_hal_rcc.o
 .text.HAL_RCC_GetOscConfig
                0x0000000000000000       0x14 build/stm32f3xx_hal_rcc.o
 .text.HAL_RCC_GetClockConfig
                0x0000000000000000       0x64 build/stm32f3xx_hal_rcc.o
 .text          0x0000000000000000        0x0 build/stm32f3xx_hal_rcc_ex.o
 .data          0x0000000000000000        0x0 build/stm32f3xx_hal_rcc_ex.o
 .bss           0x0000000000000000        0x0 build/stm32f3xx_hal_rcc_ex.o
 .text.HAL_RCCEx_GetPeriphCLKConfig
                0x0000000000000000      0x12c build/stm32f3xx_hal_rcc_ex.o
 .text.HAL_RCC_GetOscConfig
                0x0000000000000000      0x118 build/stm32f3xx_hal_rcc_ex.o
 .text          0x0000000000000000        0x0 build/stm32f3xx_hal_spi.o
 .data          0x0000000000000000        0x0 build/stm32f3xx_hal_spi.o
 .bss           0x0000000000000000        0x0 build/stm32f3xx_hal_spi.o
 .text.HAL_SPI_DeInit
                0x0000000000000000       0x54 build/stm32f3xx_hal_spi.o
 .text.HAL_SPI_MspInit
                0x0000000000000000       0x14 build/stm32f3xx_hal_spi.o
 .text.HAL_SPI_MspDeInit
                0x0000000000000000       0x14 build/stm32f3xx_hal_spi.o
 .text.HAL_SPI_Transmit
                0x0000000000000000      0x218 build/stm32f3xx_hal_spi.o
 .text.HAL_SPI_Receive
                0x0000000000000000      0x350 build/stm32f3xx_hal_spi.o
 .text.HAL_SPI_Transmit_IT
                0x0000000000000000      0x130 build/stm32f3xx_hal_spi.o
 .text.HAL_SPI_Receive_IT
                0x0000000000000000      0x1a8 build/stm32f3xx_hal_spi.o
 .text.HAL_SPI_TransmitReceive_IT
                0x0000000000000000      0x1b4 build/stm32f3xx_hal_spi.o
 .text.HAL_SPI_Transmit_DMA
                0x0000000000000000      0x1a0 build/stm32f3xx_hal_spi.o
 .text.HAL_SPI_Receive_DMA
                0x0000000000000000      0x1bc build/stm32f3xx_hal_spi.o
 .text.HAL_SPI_TransmitReceive_DMA
                0x0000000000000000      0x2b0 build/stm32f3xx_hal_spi.o
 .text.HAL_SPI_IRQHandler
                0x0000000000000000      0x12c build/stm32f3xx_hal_spi.o
 .text.SPI_DMATransmitCplt
                0x0000000000000000       0x9c build/stm32f3xx_hal_spi.o
 .text.SPI_DMAReceiveCplt
                0x0000000000000000      0x124 build/stm32f3xx_hal_spi.o
 .text.SPI_DMATransmitReceiveCplt
                0x0000000000000000      0x11c build/stm32f3xx_hal_spi.o
 .text.SPI_DMAError
                0x0000000000000000       0x44 build/stm32f3xx_hal_spi.o
 .text.HAL_SPI_TxCpltCallback
                0x0000000000000000       0x14 build/stm32f3xx_hal_spi.o
 .text.HAL_SPI_RxCpltCallback
                0x0000000000000000       0x14 build/stm32f3xx_hal_spi.o
 .text.HAL_SPI_TxRxCpltCallback
                0x0000000000000000       0x14 build/stm32f3xx_hal_spi.o
 .text.HAL_SPI_ErrorCallback
                0x0000000000000000       0x14 build/stm32f3xx_hal_spi.o
 .text.HAL_SPI_GetState
                0x0000000000000000       0x1c build/stm32f3xx_hal_spi.o
 .text.SPI_2linesRxISR_8BIT
                0x0000000000000000       0xc0 build/stm32f3xx_hal_spi.o
 .text.SPI_2linesRxISR_8BITCRC
                0x0000000000000000       0x4c build/stm32f3xx_hal_spi.o
 .text.SPI_2linesTxISR_8BIT
                0x0000000000000000       0xa0 build/stm32f3xx_hal_spi.o
 .text.SPI_2linesRxISR_16BIT
                0x0000000000000000       0x74 build/stm32f3xx_hal_spi.o
 .text.SPI_2linesRxISR_16BITCRC
                0x0000000000000000       0x30 build/stm32f3xx_hal_spi.o
 .text.SPI_2linesTxISR_16BIT
                0x0000000000000000       0x74 build/stm32f3xx_hal_spi.o
 .text.SPI_RxISR_8BITCRC
                0x0000000000000000       0x34 build/stm32f3xx_hal_spi.o
 .text.SPI_RxISR_8BIT
                0x0000000000000000       0x80 build/stm32f3xx_hal_spi.o
 .text.SPI_RxISR_16BITCRC
                0x0000000000000000       0x30 build/stm32f3xx_hal_spi.o
 .text.SPI_RxISR_16BIT
                0x0000000000000000       0x80 build/stm32f3xx_hal_spi.o
 .text.SPI_TxISR_8BIT
                0x0000000000000000       0x5c build/stm32f3xx_hal_spi.o
 .text.SPI_TxISR_16BIT
                0x0000000000000000       0x5c build/stm32f3xx_hal_spi.o
 .text.SPI_EndRxTransaction
                0x0000000000000000       0x94 build/stm32f3xx_hal_spi.o
 .text.SPI_CloseRxTx_ISR
                0x0000000000000000       0xa4 build/stm32f3xx_hal_spi.o
 .text.SPI_CloseRx_ISR
                0x0000000000000000       0x7c build/stm32f3xx_hal_spi.o
 .text.SPI_CloseTx_ISR
                0x0000000000000000       0x5c build/stm32f3xx_hal_spi.o
 .text          0x0000000000000000        0x0 build/stm32f3xx_hal_tim.o
 .data          0x0000000000000000        0x0 build/stm32f3xx_hal_tim.o
 .bss           0x0000000000000000        0x0 build/stm32f3xx_hal_tim.o
 .text.HAL_TIM_Base_DeInit
                0x0000000000000000       0x60 build/stm32f3xx_hal_tim.o
 .text.HAL_TIM_Base_MspInit
                0x0000000000000000       0x14 build/stm32f3xx_hal_tim.o
 .text.HAL_TIM_Base_MspDeInit
                0x0000000000000000       0x14 build/stm32f3xx_hal_tim.o
 .text.HAL_TIM_Base_Start
                0x0000000000000000       0x38 build/stm32f3xx_hal_tim.o
 .text.HAL_TIM_Base_Stop
                0x0000000000000000       0x58 build/stm32f3xx_hal_tim.o
 .text.HAL_TIM_Base_Stop_IT
                0x0000000000000000       0x58 build/stm32f3xx_hal_tim.o
 .text.HAL_TIM_Base_Start_DMA
                0x0000000000000000       0x98 build/stm32f3xx_hal_tim.o
 .text.HAL_TIM_Base_Stop_DMA
                0x0000000000000000       0x60 build/stm32f3xx_hal_tim.o
 .text.HAL_TIM_OC_Init
                0x0000000000000000       0x50 build/stm32f3xx_hal_tim.o
 .text.HAL_TIM_OC_DeInit
                0x0000000000000000       0x60 build/stm32f3xx_hal_tim.o
 .text.HAL_TIM_OC_MspInit
                0x0000000000000000       0x14 build/stm32f3xx_hal_tim.o
 .text.HAL_TIM_OC_MspDeInit
                0x0000000000000000       0x14 build/stm32f3xx_hal_tim.o
 .text.HAL_TIM_OC_Start
                0x0000000000000000       0x94 build/stm32f3xx_hal_tim.o
 .text.HAL_TIM_OC_Stop
                0x0000000000000000       0xd4 build/stm32f3xx_hal_tim.o
 .text.HAL_TIM_OC_Start_IT
                0x0000000000000000      0x120 build/stm32f3xx_hal_tim.o
 .text.HAL_TIM_OC_Stop_IT
                0x0000000000000000      0x160 build/stm32f3xx_hal_tim.o
 .text.HAL_TIM_OC_Start_DMA
                0x0000000000000000      0x1f0 build/stm32f3xx_hal_tim.o
 .text.HAL_TIM_OC_Stop_DMA
                0x0000000000000000      0x168 build/stm32f3xx_hal_tim.o
 .text.HAL_TIM_PWM_Init
                0x0000000000000000       0x50 build/stm32f3xx_hal_tim.o
 .text.HAL_TIM_PWM_DeInit
                0x0000000000000000       0x60 build/stm32f3xx_hal_tim.o
 .text.HAL_TIM_PWM_MspInit
                0x0000000000000000       0x14 build/stm32f3xx_hal_tim.o
 .text.HAL_TIM_PWM_MspDeInit
                0x0000000000000000       0x14 build/stm32f3xx_hal_tim.o
 .text.HAL_TIM_PWM_Start
                0x0000000000000000       0x94 build/stm32f3xx_hal_tim.o
 .text.HAL_TIM_PWM_Stop
                0x0000000000000000       0xdc build/stm32f3xx_hal_tim.o
 .text.HAL_TIM_PWM_Start_IT
                0x0000000000000000      0x120 build/stm32f3xx_hal_tim.o
 .text.HAL_TIM_PWM_Stop_IT
                0x0000000000000000      0x160 build/stm32f3xx_hal_tim.o
 .text.HAL_TIM_PWM_Start_DMA
                0x0000000000000000      0x1f0 build/stm32f3xx_hal_tim.o
 .text.HAL_TIM_PWM_Stop_DMA
                0x0000000000000000      0x168 build/stm32f3xx_hal_tim.o
 .text.HAL_TIM_IC_Init
                0x0000000000000000       0x50 build/stm32f3xx_hal_tim.o
 .text.HAL_TIM_IC_DeInit
                0x0000000000000000       0x60 build/stm32f3xx_hal_tim.o
 .text.HAL_TIM_IC_MspInit
                0x0000000000000000       0x14 build/stm32f3xx_hal_tim.o
 .text.HAL_TIM_IC_MspDeInit
                0x0000000000000000       0x14 build/stm32f3xx_hal_tim.o
 .text.HAL_TIM_IC_Start
                0x0000000000000000       0x34 build/stm32f3xx_hal_tim.o
 .text.HAL_TIM_IC_Stop
                0x0000000000000000       0x54 build/stm32f3xx_hal_tim.o
 .text.HAL_TIM_IC_Start_IT
                0x0000000000000000       0xc0 build/stm32f3xx_hal_tim.o
 .text.HAL_TIM_IC_Stop_IT
                0x0000000000000000       0xe0 build/stm32f3xx_hal_tim.o
 .text.HAL_TIM_IC_Start_DMA
                0x0000000000000000      0x190 build/stm32f3xx_hal_tim.o
 .text.HAL_TIM_IC_Stop_DMA
                0x0000000000000000       0xe8 build/stm32f3xx_hal_tim.o
 .text.HAL_TIM_OnePulse_Init
                0x0000000000000000       0x70 build/stm32f3xx_hal_tim.o
 .text.HAL_TIM_OnePulse_DeInit
                0x0000000000000000       0x60 build/stm32f3xx_hal_tim.o
 .text.HAL_TIM_OnePulse_MspInit
                0x0000000000000000       0x14 build/stm32f3xx_hal_tim.o
 .text.HAL_TIM_OnePulse_MspDeInit
                0x0000000000000000       0x14 build/stm32f3xx_hal_tim.o
 .text.HAL_TIM_OnePulse_Start
                0x0000000000000000       0x90 build/stm32f3xx_hal_tim.o
 .text.HAL_TIM_OnePulse_Stop
                0x0000000000000000       0xe0 build/stm32f3xx_hal_tim.o
 .text.HAL_TIM_OnePulse_Start_IT
                0x0000000000000000       0xb0 build/stm32f3xx_hal_tim.o
 .text.HAL_TIM_OnePulse_Stop_IT
                0x0000000000000000      0x100 build/stm32f3xx_hal_tim.o
 .text.HAL_TIM_Encoder_Init
                0x0000000000000000      0x128 build/stm32f3xx_hal_tim.o
 .text.HAL_TIM_Encoder_DeInit
                0x0000000000000000       0x60 build/stm32f3xx_hal_tim.o
 .text.HAL_TIM_Encoder_MspInit
                0x0000000000000000       0x14 build/stm32f3xx_hal_tim.o
 .text.HAL_TIM_Encoder_MspDeInit
                0x0000000000000000       0x14 build/stm32f3xx_hal_tim.o
 .text.HAL_TIM_Encoder_Start
                0x0000000000000000       0x70 build/stm32f3xx_hal_tim.o
 .text.HAL_TIM_Encoder_Stop
                0x0000000000000000       0x90 build/stm32f3xx_hal_tim.o
 .text.HAL_TIM_Encoder_Start_IT
                0x0000000000000000       0xb0 build/stm32f3xx_hal_tim.o
 .text.HAL_TIM_Encoder_Stop_IT
                0x0000000000000000       0xd4 build/stm32f3xx_hal_tim.o
 .text.HAL_TIM_Encoder_Start_DMA
                0x0000000000000000      0x1a8 build/stm32f3xx_hal_tim.o
 .text.HAL_TIM_Encoder_Stop_DMA
                0x0000000000000000       0xd4 build/stm32f3xx_hal_tim.o
 .text.HAL_TIM_OC_ConfigChannel
                0x0000000000000000       0xc0 build/stm32f3xx_hal_tim.o
 .text.HAL_TIM_IC_ConfigChannel
                0x0000000000000000      0x138 build/stm32f3xx_hal_tim.o
 .text.HAL_TIM_PWM_ConfigChannel
                0x0000000000000000      0x18c build/stm32f3xx_hal_tim.o
 .text.HAL_TIM_OnePulse_ConfigChannel
                0x0000000000000000      0x188 build/stm32f3xx_hal_tim.o
 .text.HAL_TIM_DMABurst_WriteStart
                0x0000000000000000      0x1e4 build/stm32f3xx_hal_tim.o
 .text.HAL_TIM_DMABurst_WriteStop
                0x0000000000000000       0xb0 build/stm32f3xx_hal_tim.o
 .text.HAL_TIM_DMABurst_ReadStart
                0x0000000000000000      0x1e4 build/stm32f3xx_hal_tim.o
 .text.HAL_TIM_DMABurst_ReadStop
                0x0000000000000000       0xb0 build/stm32f3xx_hal_tim.o
 .text.HAL_TIM_GenerateEvent
                0x0000000000000000       0x50 build/stm32f3xx_hal_tim.o
 .text.HAL_TIM_ConfigOCrefClear
                0x0000000000000000      0x154 build/stm32f3xx_hal_tim.o
 .text.HAL_TIM_ConfigTI1Input
                0x0000000000000000       0x3c build/stm32f3xx_hal_tim.o
 .text.HAL_TIM_SlaveConfigSynchronization
                0x0000000000000000      0x14c build/stm32f3xx_hal_tim.o
 .text.HAL_TIM_ReadCapturedValue
                0x0000000000000000       0xa4 build/stm32f3xx_hal_tim.o
 .text.HAL_TIM_ErrorCallback
                0x0000000000000000       0x14 build/stm32f3xx_hal_tim.o
 .text.HAL_TIM_Base_GetState
                0x0000000000000000       0x1c build/stm32f3xx_hal_tim.o
 .text.HAL_TIM_OC_GetState
                0x0000000000000000       0x1c build/stm32f3xx_hal_tim.o
 .text.HAL_TIM_PWM_GetState
                0x0000000000000000       0x1c build/stm32f3xx_hal_tim.o
 .text.HAL_TIM_IC_GetState
                0x0000000000000000       0x1c build/stm32f3xx_hal_tim.o
 .text.HAL_TIM_OnePulse_GetState
                0x0000000000000000       0x1c build/stm32f3xx_hal_tim.o
 .text.HAL_TIM_Encoder_GetState
                0x0000000000000000       0x1c build/stm32f3xx_hal_tim.o
 .text.HAL_TIM_DMAError
                0x0000000000000000       0x24 build/stm32f3xx_hal_tim.o
 .text.HAL_TIM_DMADelayPulseCplt
                0x0000000000000000       0x70 build/stm32f3xx_hal_tim.o
 .text.HAL_TIM_DMACaptureCplt
                0x0000000000000000       0x70 build/stm32f3xx_hal_tim.o
 .text.TIM_DMAPeriodElapsedCplt
                0x0000000000000000       0x24 build/stm32f3xx_hal_tim.o
 .text.TIM_DMATriggerCplt
                0x0000000000000000       0x24 build/stm32f3xx_hal_tim.o
 .text.TIM_OC1_SetConfig
                0x0000000000000000      0x12c build/stm32f3xx_hal_tim.o
 .text.TIM_OC2_SetConfig
                0x0000000000000000      0x120 build/stm32f3xx_hal_tim.o
 .text.TIM_OC3_SetConfig
                0x0000000000000000      0x11c build/stm32f3xx_hal_tim.o
 .text.TIM_OC4_SetConfig
                0x0000000000000000       0xe0 build/stm32f3xx_hal_tim.o
 .text.TIM_TI1_SetConfig
                0x0000000000000000       0xd8 build/stm32f3xx_hal_tim.o
 .text.TIM_TI2_SetConfig
                0x0000000000000000       0x84 build/stm32f3xx_hal_tim.o
 .text.TIM_TI3_SetConfig
                0x0000000000000000       0x80 build/stm32f3xx_hal_tim.o
 .text.TIM_TI4_SetConfig
                0x0000000000000000       0x84 build/stm32f3xx_hal_tim.o
 .text.TIM_CCxChannelCmd
                0x0000000000000000       0x48 build/stm32f3xx_hal_tim.o
 .text          0x0000000000000000        0x0 build/stm32f3xx_hal_tim_ex.o
 .data          0x0000000000000000        0x0 build/stm32f3xx_hal_tim_ex.o
 .bss           0x0000000000000000        0x0 build/stm32f3xx_hal_tim_ex.o
 .text.TIM_OC5_SetConfig
                0x0000000000000000       0xd4 build/stm32f3xx_hal_tim_ex.o
 .text.TIM_OC6_SetConfig
                0x0000000000000000       0xd8 build/stm32f3xx_hal_tim_ex.o
 .text.HAL_TIMEx_HallSensor_Init
                0x0000000000000000      0x11c build/stm32f3xx_hal_tim_ex.o
 .text.HAL_TIMEx_HallSensor_DeInit
                0x0000000000000000       0x60 build/stm32f3xx_hal_tim_ex.o
 .text.HAL_TIMEx_HallSensor_MspInit
                0x0000000000000000       0x14 build/stm32f3xx_hal_tim_ex.o
 .text.HAL_TIMEx_HallSensor_MspDeInit
                0x0000000000000000       0x14 build/stm32f3xx_hal_tim_ex.o
 .text.HAL_TIMEx_HallSensor_Start
                0x0000000000000000       0x30 build/stm32f3xx_hal_tim_ex.o
 .text.HAL_TIMEx_HallSensor_Stop
                0x0000000000000000       0x50 build/stm32f3xx_hal_tim_ex.o
 .text.HAL_TIMEx_HallSensor_Start_IT
                0x0000000000000000       0x40 build/stm32f3xx_hal_tim_ex.o
 .text.HAL_TIMEx_HallSensor_Stop_IT
                0x0000000000000000       0x60 build/stm32f3xx_hal_tim_ex.o
 .text.HAL_TIMEx_HallSensor_Start_DMA
                0x0000000000000000       0xa8 build/stm32f3xx_hal_tim_ex.o
 .text.HAL_TIMEx_HallSensor_Stop_DMA
                0x0000000000000000       0x60 build/stm32f3xx_hal_tim_ex.o
 .text.HAL_TIMEx_OCN_Start
                0x0000000000000000       0x44 build/stm32f3xx_hal_tim_ex.o
 .text.HAL_TIMEx_OCN_Stop
                0x0000000000000000       0x84 build/stm32f3xx_hal_tim_ex.o
 .text.HAL_TIMEx_OCN_Start_IT
                0x0000000000000000       0xe0 build/stm32f3xx_hal_tim_ex.o
 .text.HAL_TIMEx_OCN_Stop_IT
                0x0000000000000000      0x138 build/stm32f3xx_hal_tim_ex.o
 .text.HAL_TIMEx_OCN_Start_DMA
                0x0000000000000000      0x1a0 build/stm32f3xx_hal_tim_ex.o
 .text.HAL_TIMEx_OCN_Stop_DMA
                0x0000000000000000      0x118 build/stm32f3xx_hal_tim_ex.o
 .text.HAL_TIMEx_PWMN_Start
                0x0000000000000000       0x44 build/stm32f3xx_hal_tim_ex.o
 .text.HAL_TIMEx_PWMN_Stop
                0x0000000000000000       0x84 build/stm32f3xx_hal_tim_ex.o
 .text.HAL_TIMEx_PWMN_Start_IT
                0x0000000000000000       0xe0 build/stm32f3xx_hal_tim_ex.o
 .text.HAL_TIMEx_PWMN_Stop_IT
                0x0000000000000000      0x138 build/stm32f3xx_hal_tim_ex.o
 .text.HAL_TIMEx_PWMN_Start_DMA
                0x0000000000000000      0x1a0 build/stm32f3xx_hal_tim_ex.o
 .text.HAL_TIMEx_PWMN_Stop_DMA
                0x0000000000000000      0x118 build/stm32f3xx_hal_tim_ex.o
 .text.HAL_TIMEx_OnePulseN_Start
                0x0000000000000000       0x34 build/stm32f3xx_hal_tim_ex.o
 .text.HAL_TIMEx_OnePulseN_Stop
                0x0000000000000000       0x84 build/stm32f3xx_hal_tim_ex.o
 .text.HAL_TIMEx_OnePulseN_Start_IT
                0x0000000000000000       0x54 build/stm32f3xx_hal_tim_ex.o
 .text.HAL_TIMEx_OnePulseN_Stop_IT
                0x0000000000000000       0xa4 build/stm32f3xx_hal_tim_ex.o
 .text.HAL_TIMEx_ConfigCommutationEvent
                0x0000000000000000       0xa0 build/stm32f3xx_hal_tim_ex.o
 .text.HAL_TIMEx_ConfigCommutationEvent_IT
                0x0000000000000000       0xb0 build/stm32f3xx_hal_tim_ex.o
 .text.HAL_TIMEx_ConfigCommutationEvent_DMA
                0x0000000000000000       0xc8 build/stm32f3xx_hal_tim_ex.o
 .text.HAL_TIM_OC_ConfigChannel
                0x0000000000000000       0xfc build/stm32f3xx_hal_tim_ex.o
 .text.HAL_TIM_PWM_ConfigChannel
                0x0000000000000000      0x230 build/stm32f3xx_hal_tim_ex.o
 .text.HAL_TIM_ConfigOCrefClear
                0x0000000000000000      0x208 build/stm32f3xx_hal_tim_ex.o
 .text.HAL_TIMEx_ConfigBreakDeadTime
                0x0000000000000000      0x134 build/stm32f3xx_hal_tim_ex.o
 .text.HAL_TIMEx_RemapConfig
                0x0000000000000000       0x4c build/stm32f3xx_hal_tim_ex.o
 .text.HAL_TIMEx_GroupChannel5
                0x0000000000000000       0x68 build/stm32f3xx_hal_tim_ex.o
 .text.HAL_TIMEx_HallSensor_GetState
                0x0000000000000000       0x1c build/stm32f3xx_hal_tim_ex.o
 .text.HAL_TIMEx_DMACommutationCplt
                0x0000000000000000       0x24 build/stm32f3xx_hal_tim_ex.o
 .text.TIM_CCxNChannelCmd
                0x0000000000000000       0x48 build/stm32f3xx_hal_tim_ex.o
 .text          0x0000000000000000        0x0 build/stm32f3xx_hal_uart.o
 .data          0x0000000000000000        0x0 build/stm32f3xx_hal_uart.o
 .bss           0x0000000000000000        0x0 build/stm32f3xx_hal_uart.o
 .text.HAL_HalfDuplex_Init
                0x0000000000000000       0xa8 build/stm32f3xx_hal_uart.o
 .text.HAL_LIN_Init
                0x0000000000000000       0xcc build/stm32f3xx_hal_uart.o
 .text.HAL_MultiProcessor_Init
                0x0000000000000000       0xd0 build/stm32f3xx_hal_uart.o
 .text.HAL_UART_DeInit
                0x0000000000000000       0x6c build/stm32f3xx_hal_uart.o
 .text.HAL_UART_MspInit
                0x0000000000000000       0x14 build/stm32f3xx_hal_uart.o
 .text.HAL_UART_MspDeInit
                0x0000000000000000       0x14 build/stm32f3xx_hal_uart.o
 .text.HAL_UART_Transmit
                0x0000000000000000      0x138 build/stm32f3xx_hal_uart.o
 .text.HAL_UART_Receive
                0x0000000000000000      0x180 build/stm32f3xx_hal_uart.o
 .text.HAL_UART_Receive_IT
                0x0000000000000000      0x118 build/stm32f3xx_hal_uart.o
 .text.HAL_UART_Transmit_DMA
                0x0000000000000000       0xe8 build/stm32f3xx_hal_uart.o
 .text.HAL_UART_Receive_DMA
                0x0000000000000000       0xe0 build/stm32f3xx_hal_uart.o
 .text.HAL_UART_DMAPause
                0x0000000000000000       0x98 build/stm32f3xx_hal_uart.o
 .text.HAL_UART_DMAResume
                0x0000000000000000       0xb0 build/stm32f3xx_hal_uart.o
 .text.HAL_UART_DMAStop
                0x0000000000000000       0x8c build/stm32f3xx_hal_uart.o
 .text.HAL_UART_TxCpltCallback
                0x0000000000000000       0x14 build/stm32f3xx_hal_uart.o
 .text.HAL_UART_TxHalfCpltCallback
                0x0000000000000000       0x14 build/stm32f3xx_hal_uart.o
 .text.HAL_UART_RxHalfCpltCallback
                0x0000000000000000       0x14 build/stm32f3xx_hal_uart.o
 .text.HAL_UART_ErrorCallback
                0x0000000000000000       0x14 build/stm32f3xx_hal_uart.o
 .text.HAL_MultiProcessor_EnableMuteMode
                0x0000000000000000       0x50 build/stm32f3xx_hal_uart.o
 .text.HAL_MultiProcessor_DisableMuteMode
                0x0000000000000000       0x50 build/stm32f3xx_hal_uart.o
 .text.HAL_MultiProcessor_EnterMuteMode
                0x0000000000000000       0x24 build/stm32f3xx_hal_uart.o
 .text.UART_Wakeup_AddressConfig
                0x0000000000000000       0x44 build/stm32f3xx_hal_uart.o
 .text.HAL_HalfDuplex_EnableTransmitter
                0x0000000000000000       0x64 build/stm32f3xx_hal_uart.o
 .text.HAL_HalfDuplex_EnableReceiver
                0x0000000000000000       0x64 build/stm32f3xx_hal_uart.o
 .text.HAL_LIN_SendBreak
                0x0000000000000000       0x54 build/stm32f3xx_hal_uart.o
 .text.HAL_UART_GetError
                0x0000000000000000       0x1c build/stm32f3xx_hal_uart.o
 .text.UART_DMATransmitCplt
                0x0000000000000000       0x74 build/stm32f3xx_hal_uart.o
 .text.UART_DMATxHalfCplt
                0x0000000000000000       0x1c build/stm32f3xx_hal_uart.o
 .text.UART_DMAReceiveCplt
                0x0000000000000000       0x50 build/stm32f3xx_hal_uart.o
 .text.UART_DMARxHalfCplt
                0x0000000000000000       0x1c build/stm32f3xx_hal_uart.o
 .text.UART_DMAError
                0x0000000000000000       0x48 build/stm32f3xx_hal_uart.o
 .text          0x0000000000000000        0x0 build/stm32f3xx_hal_uart_ex.o
 .data          0x0000000000000000        0x0 build/stm32f3xx_hal_uart_ex.o
 .bss           0x0000000000000000        0x0 build/stm32f3xx_hal_uart_ex.o
 .text.HAL_RS485Ex_Init
                0x0000000000000000       0xd0 build/stm32f3xx_hal_uart_ex.o
 .text.HAL_MultiProcessorEx_AddressLength_Set
                0x0000000000000000       0x60 build/stm32f3xx_hal_uart_ex.o
 .text.HAL_UARTEx_StopModeWakeUpSourceConfig
                0x0000000000000000       0xa8 build/stm32f3xx_hal_uart_ex.o
 .text.HAL_UARTEx_EnableStopMode
                0x0000000000000000       0x54 build/stm32f3xx_hal_uart_ex.o
 .text.HAL_UARTEx_DisableStopMode
                0x0000000000000000       0x54 build/stm32f3xx_hal_uart_ex.o
 .debug_info    0x0000000000000000      0x80f build/stm32f3xx_hal_uart_ex.o
 .debug_abbrev  0x0000000000000000      0x176 build/stm32f3xx_hal_uart_ex.o
 .debug_loc     0x0000000000000000      0x1a8 build/stm32f3xx_hal_uart_ex.o
 .debug_aranges
                0x0000000000000000       0x40 build/stm32f3xx_hal_uart_ex.o
 .debug_ranges  0x0000000000000000       0x30 build/stm32f3xx_hal_uart_ex.o
 .debug_line    0x0000000000000000      0x275 build/stm32f3xx_hal_uart_ex.o
 .debug_str     0x0000000000000000      0x808 build/stm32f3xx_hal_uart_ex.o
 .comment       0x0000000000000000       0x1e build/stm32f3xx_hal_uart_ex.o
 .debug_frame   0x0000000000000000       0xd8 build/stm32f3xx_hal_uart_ex.o
 .ARM.attributes
                0x0000000000000000       0x37 build/stm32f3xx_hal_uart_ex.o
 .text          0x0000000000000000        0x0 build/usbd_audio.o
 .data          0x0000000000000000        0x0 build/usbd_audio.o
 .bss           0x0000000000000000        0x0 build/usbd_audio.o
 .text.USBD_AUDIO_Sync
                0x0000000000000000      0x184 build/usbd_audio.o
 .text          0x0000000000000000        0x0 build/usbd_core.o
 .data          0x0000000000000000        0x0 build/usbd_core.o
 .bss           0x0000000000000000        0x0 build/usbd_core.o
 .text.USBD_DeInit
                0x0000000000000000       0x3c build/usbd_core.o
 .text.USBD_Stop
                0x0000000000000000       0x2c build/usbd_core.o
 .text.USBD_LL_IsoINIncomplete
                0x0000000000000000       0x1c build/usbd_core.o
 .text.USBD_LL_IsoOUTIncomplete
                0x0000000000000000       0x1c build/usbd_core.o
 .text.USBD_LL_DevConnected
                0x0000000000000000       0x18 build/usbd_core.o
 .text.USBD_LL_DevDisconnected
                0x0000000000000000       0x30 build/usbd_core.o
 .text          0x0000000000000000        0x0 build/usbd_ctlreq.o
 .data          0x0000000000000000        0x0 build/usbd_ctlreq.o
 .bss           0x0000000000000000        0x0 build/usbd_ctlreq.o
 .text          0x0000000000000000        0x0 build/usbd_ioreq.o
 .data          0x0000000000000000        0x0 build/usbd_ioreq.o
 .bss           0x0000000000000000        0x0 build/usbd_ioreq.o
 .text.USBD_GetRxCount
                0x0000000000000000       0x24 build/usbd_ioreq.o
 .text          0x0000000000000000        0x0 build/adc.o
 .data          0x0000000000000000        0x0 build/adc.o
 .bss           0x0000000000000000        0x0 build/adc.o
 .text.HAL_ADC_MspDeInit
                0x0000000000000000      0x158 build/adc.o
 .text          0x0000000000000000        0x0 build/gpio.o
 .data          0x0000000000000000        0x0 build/gpio.o
 .bss           0x0000000000000000        0x0 build/gpio.o
 .text          0x0000000000000000        0x0 build/main.o
 .data          0x0000000000000000        0x0 build/main.o
 .bss           0x0000000000000000        0x0 build/main.o
 .bss.irqflag_timer3
                0x0000000000000000        0x4 build/main.o
 .text          0x0000000000000000        0x0 build/spi.o
 .data          0x0000000000000000        0x0 build/spi.o
 .bss           0x0000000000000000        0x0 build/spi.o
 .text.HAL_SPI_MspDeInit
                0x0000000000000000       0x4c build/spi.o
 .text          0x0000000000000000        0x0 build/stm32f3xx_hal_msp.o
 .data          0x0000000000000000        0x0 build/stm32f3xx_hal_msp.o
 .bss           0x0000000000000000        0x0 build/stm32f3xx_hal_msp.o
 .text          0x0000000000000000        0x0 build/stm32f3xx_it.o
 .data          0x0000000000000000        0x0 build/stm32f3xx_it.o
 .bss           0x0000000000000000        0x0 build/stm32f3xx_it.o
 .text          0x0000000000000000        0x0 build/tim.o
 .data          0x0000000000000000        0x0 build/tim.o
 .bss           0x0000000000000000        0x0 build/tim.o
 .text.HAL_TIM_Base_MspDeInit
                0x0000000000000000       0x74 build/tim.o
 .text          0x0000000000000000        0x0 build/usart.o
 .data          0x0000000000000000        0x0 build/usart.o
 .bss           0x0000000000000000        0x0 build/usart.o
 .text.HAL_UART_MspDeInit
                0x0000000000000000       0x70 build/usart.o
 .text          0x0000000000000000        0x0 build/usb_device.o
 .data          0x0000000000000000        0x0 build/usb_device.o
 .bss           0x0000000000000000        0x0 build/usb_device.o
 .text          0x0000000000000000        0x0 build/usbd_audio_if.o
 .data          0x0000000000000000        0x0 build/usbd_audio_if.o
 .bss           0x0000000000000000        0x0 build/usbd_audio_if.o
 .text.TransferComplete_CallBack_FS
                0x0000000000000000       0x18 build/usbd_audio_if.o
 .text.HalfTransfer_CallBack_FS
                0x0000000000000000       0x18 build/usbd_audio_if.o
 .text          0x0000000000000000        0x0 build/usbd_conf.o
 .data          0x0000000000000000        0x0 build/usbd_conf.o
 .bss           0x0000000000000000        0x0 build/usbd_conf.o
 .text.HAL_PCD_MspDeInit
                0x0000000000000000       0x40 build/usbd_conf.o
 .text.HAL_PCD_ISOOUTIncompleteCallback
                0x0000000000000000       0x24 build/usbd_conf.o
 .text.HAL_PCD_ISOINIncompleteCallback
                0x0000000000000000       0x24 build/usbd_conf.o
 .text.HAL_PCD_ConnectCallback
                0x0000000000000000       0x1c build/usbd_conf.o
 .text.HAL_PCD_DisconnectCallback
                0x0000000000000000       0x1c build/usbd_conf.o
 .text.USBD_LL_DeInit
                0x0000000000000000       0x20 build/usbd_conf.o
 .text.USBD_LL_Stop
                0x0000000000000000       0x20 build/usbd_conf.o
 .text.USBD_LL_FlushEP
                0x0000000000000000       0x28 build/usbd_conf.o
 .text.USBD_LL_GetRxDataSize
                0x0000000000000000       0x28 build/usbd_conf.o
 .text.USBD_LL_Delay
                0x0000000000000000       0x18 build/usbd_conf.o
 .text.HAL_PCDEx_SetConnectionState
                0x0000000000000000       0x18 build/usbd_conf.o
 .text          0x0000000000000000        0x0 build/usbd_desc.o
 .data          0x0000000000000000        0x0 build/usbd_desc.o
 .bss           0x0000000000000000        0x0 build/usbd_desc.o
 .text          0x0000000000000000        0x0 build/mcp4251.o
 .data          0x0000000000000000        0x0 build/mcp4251.o
 .bss           0x0000000000000000        0x0 build/mcp4251.o
 .text          0x0000000000000000        0x0 build/dma.o
 .data          0x0000000000000000        0x0 build/dma.o
 .bss           0x0000000000000000        0x0 build/dma.o
 .text          0x0000000000000000        0x0 build/triggerchannel.o
 .data          0x0000000000000000        0x0 build/triggerchannel.o
 .bss           0x0000000000000000        0x0 build/triggerchannel.o
 .text.triggerchannel_getLastSample
                0x0000000000000000       0x24 build/triggerchannel.o
 .text          0x0000000000000000        0x0 build/hihatchannel.o
 .data          0x0000000000000000        0x0 build/hihatchannel.o
 .bss           0x0000000000000000        0x0 build/hihatchannel.o
 .text          0x0000000000000000        0x0 build/performance.o
 .data          0x0000000000000000        0x0 build/performance.o
 .bss           0x0000000000000000        0x0 build/performance.o
 .text.performance_setProcessing1
                0x0000000000000000       0x18 build/performance.o
 .text.performance_setIdle1
                0x0000000000000000       0x18 build/performance.o
 .text.performance_setProcessing2
                0x0000000000000000       0x18 build/performance.o
 .text.performance_setIdle2
                0x0000000000000000       0x18 build/performance.o
 .debug_info    0x0000000000000000      0x213 build/performance.o
 .debug_abbrev  0x0000000000000000       0xc9 build/performance.o
 .debug_loc     0x0000000000000000       0xb0 build/performance.o
 .debug_aranges
                0x0000000000000000       0x38 build/performance.o
 .debug_ranges  0x0000000000000000       0x28 build/performance.o
 .debug_line    0x0000000000000000      0x171 build/performance.o
 .debug_str     0x0000000000000000      0x26a build/performance.o
 .comment       0x0000000000000000       0x1e build/performance.o
 .debug_frame   0x0000000000000000       0x80 build/performance.o
 .ARM.attributes
                0x0000000000000000       0x37 build/performance.o
 .text          0x0000000000000000        0x0 build/midi.o
 .data          0x0000000000000000        0x0 build/midi.o
 .bss           0x0000000000000000        0x0 build/midi.o
 .text          0x0000000000000000       0x14 build/startup_stm32f303xc.o
 .data          0x0000000000000000        0x0 build/startup_stm32f303xc.o
 .bss           0x0000000000000000        0x0 build/startup_stm32f303xc.o
 .text          0x0000000000000000        0x0 /usr/lib/gcc/arm-none-eabi/5.1.0/../../../../arm-none-eabi/lib/armv7e-m/softfp/libc_nano.a(lib_a-atexit.o)
 .data          0x0000000000000000        0x0 /usr/lib/gcc/arm-none-eabi/5.1.0/../../../../arm-none-eabi/lib/armv7e-m/softfp/libc_nano.a(lib_a-atexit.o)
 .bss           0x0000000000000000        0x0 /usr/lib/gcc/arm-none-eabi/5.1.0/../../../../arm-none-eabi/lib/armv7e-m/softfp/libc_nano.a(lib_a-atexit.o)
 .text.atexit   0x0000000000000000        0xc /usr/lib/gcc/arm-none-eabi/5.1.0/../../../../arm-none-eabi/lib/armv7e-m/softfp/libc_nano.a(lib_a-atexit.o)
 .debug_frame   0x0000000000000000       0x20 /usr/lib/gcc/arm-none-eabi/5.1.0/../../../../arm-none-eabi/lib/armv7e-m/softfp/libc_nano.a(lib_a-atexit.o)
 .ARM.attributes
                0x0000000000000000       0x32 /usr/lib/gcc/arm-none-eabi/5.1.0/../../../../arm-none-eabi/lib/armv7e-m/softfp/libc_nano.a(lib_a-atexit.o)
 .text          0x0000000000000000        0x0 /usr/lib/gcc/arm-none-eabi/5.1.0/../../../../arm-none-eabi/lib/armv7e-m/softfp/libc_nano.a(lib_a-exit.o)
 .data          0x0000000000000000        0x0 /usr/lib/gcc/arm-none-eabi/5.1.0/../../../../arm-none-eabi/lib/armv7e-m/softfp/libc_nano.a(lib_a-exit.o)
 .bss           0x0000000000000000        0x0 /usr/lib/gcc/arm-none-eabi/5.1.0/../../../../arm-none-eabi/lib/armv7e-m/softfp/libc_nano.a(lib_a-exit.o)
 .text.exit     0x0000000000000000       0x28 /usr/lib/gcc/arm-none-eabi/5.1.0/../../../../arm-none-eabi/lib/armv7e-m/softfp/libc_nano.a(lib_a-exit.o)
 .debug_frame   0x0000000000000000       0x28 /usr/lib/gcc/arm-none-eabi/5.1.0/../../../../arm-none-eabi/lib/armv7e-m/softfp/libc_nano.a(lib_a-exit.o)
 .ARM.attributes
                0x0000000000000000       0x32 /usr/lib/gcc/arm-none-eabi/5.1.0/../../../../arm-none-eabi/lib/armv7e-m/softfp/libc_nano.a(lib_a-exit.o)
 .text          0x0000000000000000        0x0 /usr/lib/gcc/arm-none-eabi/5.1.0/../../../../arm-none-eabi/lib/armv7e-m/softfp/libc_nano.a(lib_a-fini.o)
 .data          0x0000000000000000        0x0 /usr/lib/gcc/arm-none-eabi/5.1.0/../../../../arm-none-eabi/lib/armv7e-m/softfp/libc_nano.a(lib_a-fini.o)
 .bss           0x0000000000000000        0x0 /usr/lib/gcc/arm-none-eabi/5.1.0/../../../../arm-none-eabi/lib/armv7e-m/softfp/libc_nano.a(lib_a-fini.o)
 .text.__libc_fini_array
                0x0000000000000000       0x28 /usr/lib/gcc/arm-none-eabi/5.1.0/../../../../arm-none-eabi/lib/armv7e-m/softfp/libc_nano.a(lib_a-fini.o)
 .debug_frame   0x0000000000000000       0x34 /usr/lib/gcc/arm-none-eabi/5.1.0/../../../../arm-none-eabi/lib/armv7e-m/softfp/libc_nano.a(lib_a-fini.o)
 .ARM.attributes
                0x0000000000000000       0x32 /usr/lib/gcc/arm-none-eabi/5.1.0/../../../../arm-none-eabi/lib/armv7e-m/softfp/libc_nano.a(lib_a-fini.o)
 .text          0x0000000000000000        0x0 /usr/lib/gcc/arm-none-eabi/5.1.0/../../../../arm-none-eabi/lib/armv7e-m/softfp/libc_nano.a(lib_a-impure.o)
 .data          0x0000000000000000        0x0 /usr/lib/gcc/arm-none-eabi/5.1.0/../../../../arm-none-eabi/lib/armv7e-m/softfp/libc_nano.a(lib_a-impure.o)
 .bss           0x0000000000000000        0x0 /usr/lib/gcc/arm-none-eabi/5.1.0/../../../../arm-none-eabi/lib/armv7e-m/softfp/libc_nano.a(lib_a-impure.o)
 .rodata._global_impure_ptr
                0x0000000000000000        0x4 /usr/lib/gcc/arm-none-eabi/5.1.0/../../../../arm-none-eabi/lib/armv7e-m/softfp/libc_nano.a(lib_a-impure.o)
 .text          0x0000000000000000        0x0 /usr/lib/gcc/arm-none-eabi/5.1.0/../../../../arm-none-eabi/lib/armv7e-m/softfp/libc_nano.a(lib_a-init.o)
 .data          0x0000000000000000        0x0 /usr/lib/gcc/arm-none-eabi/5.1.0/../../../../arm-none-eabi/lib/armv7e-m/softfp/libc_nano.a(lib_a-init.o)
 .bss           0x0000000000000000        0x0 /usr/lib/gcc/arm-none-eabi/5.1.0/../../../../arm-none-eabi/lib/armv7e-m/softfp/libc_nano.a(lib_a-init.o)
 .text          0x0000000000000000        0x0 /usr/lib/gcc/arm-none-eabi/5.1.0/../../../../arm-none-eabi/lib/armv7e-m/softfp/libc_nano.a(lib_a-malloc.o)
 .data          0x0000000000000000        0x0 /usr/lib/gcc/arm-none-eabi/5.1.0/../../../../arm-none-eabi/lib/armv7e-m/softfp/libc_nano.a(lib_a-malloc.o)
 .bss           0x0000000000000000        0x0 /usr/lib/gcc/arm-none-eabi/5.1.0/../../../../arm-none-eabi/lib/armv7e-m/softfp/libc_nano.a(lib_a-malloc.o)
 .text          0x0000000000000000        0x0 /usr/lib/gcc/arm-none-eabi/5.1.0/../../../../arm-none-eabi/lib/armv7e-m/softfp/libc_nano.a(lib_a-memcpy.o)
 .data          0x0000000000000000        0x0 /usr/lib/gcc/arm-none-eabi/5.1.0/../../../../arm-none-eabi/lib/armv7e-m/softfp/libc_nano.a(lib_a-memcpy.o)
 .bss           0x0000000000000000        0x0 /usr/lib/gcc/arm-none-eabi/5.1.0/../../../../arm-none-eabi/lib/armv7e-m/softfp/libc_nano.a(lib_a-memcpy.o)
 .text          0x0000000000000000        0x0 /usr/lib/gcc/arm-none-eabi/5.1.0/../../../../arm-none-eabi/lib/armv7e-m/softfp/libc_nano.a(lib_a-memset.o)
 .data          0x0000000000000000        0x0 /usr/lib/gcc/arm-none-eabi/5.1.0/../../../../arm-none-eabi/lib/armv7e-m/softfp/libc_nano.a(lib_a-memset.o)
 .bss           0x0000000000000000        0x0 /usr/lib/gcc/arm-none-eabi/5.1.0/../../../../arm-none-eabi/lib/armv7e-m/softfp/libc_nano.a(lib_a-memset.o)
 .text          0x0000000000000000        0x0 /usr/lib/gcc/arm-none-eabi/5.1.0/../../../../arm-none-eabi/lib/armv7e-m/softfp/libc_nano.a(lib_a-nano-freer.o)
 .data          0x0000000000000000        0x0 /usr/lib/gcc/arm-none-eabi/5.1.0/../../../../arm-none-eabi/lib/armv7e-m/softfp/libc_nano.a(lib_a-nano-freer.o)
 .bss           0x0000000000000000        0x0 /usr/lib/gcc/arm-none-eabi/5.1.0/../../../../arm-none-eabi/lib/armv7e-m/softfp/libc_nano.a(lib_a-nano-freer.o)
 .text          0x0000000000000000        0x0 /usr/lib/gcc/arm-none-eabi/5.1.0/../../../../arm-none-eabi/lib/armv7e-m/softfp/libc_nano.a(lib_a-nano-mallocr.o)
 .data          0x0000000000000000        0x0 /usr/lib/gcc/arm-none-eabi/5.1.0/../../../../arm-none-eabi/lib/armv7e-m/softfp/libc_nano.a(lib_a-nano-mallocr.o)
 .bss           0x0000000000000000        0x0 /usr/lib/gcc/arm-none-eabi/5.1.0/../../../../arm-none-eabi/lib/armv7e-m/softfp/libc_nano.a(lib_a-nano-mallocr.o)
 .text          0x0000000000000000        0x0 /usr/lib/gcc/arm-none-eabi/5.1.0/../../../../arm-none-eabi/lib/armv7e-m/softfp/libc_nano.a(lib_a-sbrkr.o)
 .data          0x0000000000000000        0x0 /usr/lib/gcc/arm-none-eabi/5.1.0/../../../../arm-none-eabi/lib/armv7e-m/softfp/libc_nano.a(lib_a-sbrkr.o)
 .bss           0x0000000000000000        0x0 /usr/lib/gcc/arm-none-eabi/5.1.0/../../../../arm-none-eabi/lib/armv7e-m/softfp/libc_nano.a(lib_a-sbrkr.o)
 .text          0x0000000000000000        0x0 /usr/lib/gcc/arm-none-eabi/5.1.0/../../../../arm-none-eabi/lib/armv7e-m/softfp/libc_nano.a(lib_a-sprintf.o)
 .data          0x0000000000000000        0x0 /usr/lib/gcc/arm-none-eabi/5.1.0/../../../../arm-none-eabi/lib/armv7e-m/softfp/libc_nano.a(lib_a-sprintf.o)
 .bss           0x0000000000000000        0x0 /usr/lib/gcc/arm-none-eabi/5.1.0/../../../../arm-none-eabi/lib/armv7e-m/softfp/libc_nano.a(lib_a-sprintf.o)
 .text._sprintf_r
                0x0000000000000000       0x40 /usr/lib/gcc/arm-none-eabi/5.1.0/../../../../arm-none-eabi/lib/armv7e-m/softfp/libc_nano.a(lib_a-sprintf.o)
 .text          0x0000000000000000        0x0 /usr/lib/gcc/arm-none-eabi/5.1.0/../../../../arm-none-eabi/lib/armv7e-m/softfp/libc_nano.a(lib_a-__atexit.o)
 .data          0x0000000000000000        0x0 /usr/lib/gcc/arm-none-eabi/5.1.0/../../../../arm-none-eabi/lib/armv7e-m/softfp/libc_nano.a(lib_a-__atexit.o)
 .bss           0x0000000000000000        0x0 /usr/lib/gcc/arm-none-eabi/5.1.0/../../../../arm-none-eabi/lib/armv7e-m/softfp/libc_nano.a(lib_a-__atexit.o)
 .text.__register_exitproc
                0x0000000000000000       0xb8 /usr/lib/gcc/arm-none-eabi/5.1.0/../../../../arm-none-eabi/lib/armv7e-m/softfp/libc_nano.a(lib_a-__atexit.o)
 .bss._global_atexit0
                0x0000000000000000       0x8c /usr/lib/gcc/arm-none-eabi/5.1.0/../../../../arm-none-eabi/lib/armv7e-m/softfp/libc_nano.a(lib_a-__atexit.o)
 .data.__atexit_dummy
                0x0000000000000000        0x4 /usr/lib/gcc/arm-none-eabi/5.1.0/../../../../arm-none-eabi/lib/armv7e-m/softfp/libc_nano.a(lib_a-__atexit.o)
 .debug_frame   0x0000000000000000       0x34 /usr/lib/gcc/arm-none-eabi/5.1.0/../../../../arm-none-eabi/lib/armv7e-m/softfp/libc_nano.a(lib_a-__atexit.o)
 .ARM.attributes
                0x0000000000000000       0x32 /usr/lib/gcc/arm-none-eabi/5.1.0/../../../../arm-none-eabi/lib/armv7e-m/softfp/libc_nano.a(lib_a-__atexit.o)
 .text          0x0000000000000000        0x0 /usr/lib/gcc/arm-none-eabi/5.1.0/../../../../arm-none-eabi/lib/armv7e-m/softfp/libc_nano.a(lib_a-__call_atexit.o)
 .data          0x0000000000000000        0x0 /usr/lib/gcc/arm-none-eabi/5.1.0/../../../../arm-none-eabi/lib/armv7e-m/softfp/libc_nano.a(lib_a-__call_atexit.o)
 .bss           0x0000000000000000        0x0 /usr/lib/gcc/arm-none-eabi/5.1.0/../../../../arm-none-eabi/lib/armv7e-m/softfp/libc_nano.a(lib_a-__call_atexit.o)
 .text.__call_exitprocs
                0x0000000000000000       0xd4 /usr/lib/gcc/arm-none-eabi/5.1.0/../../../../arm-none-eabi/lib/armv7e-m/softfp/libc_nano.a(lib_a-__call_atexit.o)
 .bss._global_atexit
                0x0000000000000000        0x4 /usr/lib/gcc/arm-none-eabi/5.1.0/../../../../arm-none-eabi/lib/armv7e-m/softfp/libc_nano.a(lib_a-__call_atexit.o)
 .debug_frame   0x0000000000000000       0x3c /usr/lib/gcc/arm-none-eabi/5.1.0/../../../../arm-none-eabi/lib/armv7e-m/softfp/libc_nano.a(lib_a-__call_atexit.o)
 .ARM.attributes
                0x0000000000000000       0x32 /usr/lib/gcc/arm-none-eabi/5.1.0/../../../../arm-none-eabi/lib/armv7e-m/softfp/libc_nano.a(lib_a-__call_atexit.o)
 .text          0x0000000000000000        0x0 /usr/lib/gcc/arm-none-eabi/5.1.0/../../../../arm-none-eabi/lib/armv7e-m/softfp/libc_nano.a(lib_a-nano-svfprintf.o)
 .data          0x0000000000000000        0x0 /usr/lib/gcc/arm-none-eabi/5.1.0/../../../../arm-none-eabi/lib/armv7e-m/softfp/libc_nano.a(lib_a-nano-svfprintf.o)
 .bss           0x0000000000000000        0x0 /usr/lib/gcc/arm-none-eabi/5.1.0/../../../../arm-none-eabi/lib/armv7e-m/softfp/libc_nano.a(lib_a-nano-svfprintf.o)
 .text.__ssprint_r
                0x0000000000000000       0xfe /usr/lib/gcc/arm-none-eabi/5.1.0/../../../../arm-none-eabi/lib/armv7e-m/softfp/libc_nano.a(lib_a-nano-svfprintf.o)
 .text          0x0000000000000000        0x0 /usr/lib/gcc/arm-none-eabi/5.1.0/../../../../arm-none-eabi/lib/armv7e-m/softfp/libc_nano.a(lib_a-nano-vfprintf_i.o)
 .data          0x0000000000000000        0x0 /usr/lib/gcc/arm-none-eabi/5.1.0/../../../../arm-none-eabi/lib/armv7e-m/softfp/libc_nano.a(lib_a-nano-vfprintf_i.o)
 .bss           0x0000000000000000        0x0 /usr/lib/gcc/arm-none-eabi/5.1.0/../../../../arm-none-eabi/lib/armv7e-m/softfp/libc_nano.a(lib_a-nano-vfprintf_i.o)
 .text          0x0000000000000000        0x0 /usr/lib/gcc/arm-none-eabi/5.1.0/../../../../arm-none-eabi/lib/armv7e-m/softfp/libc_nano.a(lib_a-reent.o)
 .data          0x0000000000000000        0x0 /usr/lib/gcc/arm-none-eabi/5.1.0/../../../../arm-none-eabi/lib/armv7e-m/softfp/libc_nano.a(lib_a-reent.o)
 .bss           0x0000000000000000        0x0 /usr/lib/gcc/arm-none-eabi/5.1.0/../../../../arm-none-eabi/lib/armv7e-m/softfp/libc_nano.a(lib_a-reent.o)
 .text.cleanup_glue
                0x0000000000000000       0x1a /usr/lib/gcc/arm-none-eabi/5.1.0/../../../../arm-none-eabi/lib/armv7e-m/softfp/libc_nano.a(lib_a-reent.o)
 .text._reclaim_reent
                0x0000000000000000       0xb4 /usr/lib/gcc/arm-none-eabi/5.1.0/../../../../arm-none-eabi/lib/armv7e-m/softfp/libc_nano.a(lib_a-reent.o)
 .text          0x0000000000000000        0x0 /usr/lib/gcc/arm-none-eabi/5.1.0/../../../../arm-none-eabi/lib/armv7e-m/softfp/libc_nano.a(lib_a-memchr.o)
 .data          0x0000000000000000        0x0 /usr/lib/gcc/arm-none-eabi/5.1.0/../../../../arm-none-eabi/lib/armv7e-m/softfp/libc_nano.a(lib_a-memchr.o)
 .bss           0x0000000000000000        0x0 /usr/lib/gcc/arm-none-eabi/5.1.0/../../../../arm-none-eabi/lib/armv7e-m/softfp/libc_nano.a(lib_a-memchr.o)
 .text          0x0000000000000000        0x0 /usr/lib/gcc/arm-none-eabi/5.1.0/../../../../arm-none-eabi/lib/armv7e-m/softfp/libc_nano.a(lib_a-memmove.o)
 .data          0x0000000000000000        0x0 /usr/lib/gcc/arm-none-eabi/5.1.0/../../../../arm-none-eabi/lib/armv7e-m/softfp/libc_nano.a(lib_a-memmove.o)
 .bss           0x0000000000000000        0x0 /usr/lib/gcc/arm-none-eabi/5.1.0/../../../../arm-none-eabi/lib/armv7e-m/softfp/libc_nano.a(lib_a-memmove.o)
 .text          0x0000000000000000        0x0 /usr/lib/gcc/arm-none-eabi/5.1.0/../../../../arm-none-eabi/lib/armv7e-m/softfp/libc_nano.a(lib_a-nano-reallocr.o)
 .data          0x0000000000000000        0x0 /usr/lib/gcc/arm-none-eabi/5.1.0/../../../../arm-none-eabi/lib/armv7e-m/softfp/libc_nano.a(lib_a-nano-reallocr.o)
 .bss           0x0000000000000000        0x0 /usr/lib/gcc/arm-none-eabi/5.1.0/../../../../arm-none-eabi/lib/armv7e-m/softfp/libc_nano.a(lib_a-nano-reallocr.o)
 .text          0x0000000000000000        0x0 /usr/lib/gcc/arm-none-eabi/5.1.0/../../../../arm-none-eabi/lib/armv7e-m/softfp/libc_nano.a(lib_a-nano-msizer.o)
 .data          0x0000000000000000        0x0 /usr/lib/gcc/arm-none-eabi/5.1.0/../../../../arm-none-eabi/lib/armv7e-m/softfp/libc_nano.a(lib_a-nano-msizer.o)
 .bss           0x0000000000000000        0x0 /usr/lib/gcc/arm-none-eabi/5.1.0/../../../../arm-none-eabi/lib/armv7e-m/softfp/libc_nano.a(lib_a-nano-msizer.o)
 .text          0x0000000000000000        0x0 /usr/lib/gcc/arm-none-eabi/5.1.0/../../../../arm-none-eabi/lib/armv7e-m/softfp/libnosys.a(sbrk.o)
 .data          0x0000000000000000        0x0 /usr/lib/gcc/arm-none-eabi/5.1.0/../../../../arm-none-eabi/lib/armv7e-m/softfp/libnosys.a(sbrk.o)
 .bss           0x0000000000000000        0x0 /usr/lib/gcc/arm-none-eabi/5.1.0/../../../../arm-none-eabi/lib/armv7e-m/softfp/libnosys.a(sbrk.o)
 .text          0x0000000000000000        0x0 /usr/lib/gcc/arm-none-eabi/5.1.0/../../../../arm-none-eabi/lib/armv7e-m/softfp/libnosys.a(_exit.o)
 .data          0x0000000000000000        0x0 /usr/lib/gcc/arm-none-eabi/5.1.0/../../../../arm-none-eabi/lib/armv7e-m/softfp/libnosys.a(_exit.o)
 .bss           0x0000000000000000        0x0 /usr/lib/gcc/arm-none-eabi/5.1.0/../../../../arm-none-eabi/lib/armv7e-m/softfp/libnosys.a(_exit.o)
 .text._exit    0x0000000000000000        0x4 /usr/lib/gcc/arm-none-eabi/5.1.0/../../../../arm-none-eabi/lib/armv7e-m/softfp/libnosys.a(_exit.o)
 .debug_frame   0x0000000000000000       0x20 /usr/lib/gcc/arm-none-eabi/5.1.0/../../../../arm-none-eabi/lib/armv7e-m/softfp/libnosys.a(_exit.o)
 .ARM.attributes
                0x0000000000000000       0x32 /usr/lib/gcc/arm-none-eabi/5.1.0/../../../../arm-none-eabi/lib/armv7e-m/softfp/libnosys.a(_exit.o)
 .text          0x0000000000000000        0x0 /usr/lib/gcc/arm-none-eabi/5.1.0/armv7e-m/softfp/crtend.o
 .data          0x0000000000000000        0x0 /usr/lib/gcc/arm-none-eabi/5.1.0/armv7e-m/softfp/crtend.o
 .bss           0x0000000000000000        0x0 /usr/lib/gcc/arm-none-eabi/5.1.0/armv7e-m/softfp/crtend.o
 .eh_frame      0x0000000000000000        0x4 /usr/lib/gcc/arm-none-eabi/5.1.0/armv7e-m/softfp/crtend.o
 .text          0x0000000000000000        0x0 /usr/lib/gcc/arm-none-eabi/5.1.0/armv7e-m/softfp/crtn.o
 .data          0x0000000000000000        0x0 /usr/lib/gcc/arm-none-eabi/5.1.0/armv7e-m/softfp/crtn.o
 .bss           0x0000000000000000        0x0 /usr/lib/gcc/arm-none-eabi/5.1.0/armv7e-m/softfp/crtn.o

Memory Configuration

Name             Origin             Length             Attributes
FLASH            0x0000000008000000 0x0000000000040000 xr
RAM              0x0000000020000000 0x000000000000a000 xrw
CCMRAM           0x0000000010000000 0x0000000000002000 rw
*default*        0x0000000000000000 0xffffffffffffffff

Linker script and memory map

LOAD /usr/lib/gcc/arm-none-eabi/5.1.0/armv7e-m/softfp/crti.o
LOAD /usr/lib/gcc/arm-none-eabi/5.1.0/armv7e-m/softfp/crtbegin.o
LOAD /usr/lib/gcc/arm-none-eabi/5.1.0/../../../../arm-none-eabi/lib/armv7e-m/softfp/crt0.o
LOAD build/system_stm32f3xx.o
LOAD build/stm32f3xx_hal.o
LOAD build/stm32f3xx_hal_adc.o
LOAD build/stm32f3xx_hal_adc_ex.o
LOAD build/stm32f3xx_hal_cortex.o
LOAD build/stm32f3xx_hal_dma.o
LOAD build/stm32f3xx_hal_flash.o
LOAD build/stm32f3xx_hal_flash_ex.o
LOAD build/stm32f3xx_hal_gpio.o
LOAD build/stm32f3xx_hal_pcd.o
LOAD build/stm32f3xx_hal_pcd_ex.o
LOAD build/stm32f3xx_hal_pwr.o
LOAD build/stm32f3xx_hal_pwr_ex.o
LOAD build/stm32f3xx_hal_rcc.o
LOAD build/stm32f3xx_hal_rcc_ex.o
LOAD build/stm32f3xx_hal_spi.o
LOAD build/stm32f3xx_hal_tim.o
LOAD build/stm32f3xx_hal_tim_ex.o
LOAD build/stm32f3xx_hal_uart.o
LOAD build/stm32f3xx_hal_uart_ex.o
LOAD build/usbd_audio.o
LOAD build/usbd_core.o
LOAD build/usbd_ctlreq.o
LOAD build/usbd_ioreq.o
LOAD build/adc.o
LOAD build/gpio.o
LOAD build/main.o
LOAD build/spi.o
LOAD build/stm32f3xx_hal_msp.o
LOAD build/stm32f3xx_it.o
LOAD build/tim.o
LOAD build/usart.o
LOAD build/usb_device.o
LOAD build/usbd_audio_if.o
LOAD build/usbd_conf.o
LOAD build/usbd_desc.o
LOAD build/mcp4251.o
LOAD build/dma.o
LOAD build/triggerchannel.o
LOAD build/hihatchannel.o
LOAD build/performance.o
LOAD build/midi.o
LOAD build/startup_stm32f303xc.o
LOAD /usr/lib/gcc/arm-none-eabi/5.1.0/../../../../arm-none-eabi/lib/armv7e-m/softfp/libc_nano.a
LOAD /usr/lib/gcc/arm-none-eabi/5.1.0/../../../../arm-none-eabi/lib/armv7e-m/softfp/libm.a
LOAD /usr/lib/gcc/arm-none-eabi/5.1.0/../../../../arm-none-eabi/lib/armv7e-m/softfp/libnosys.a
START GROUP
LOAD /usr/lib/gcc/arm-none-eabi/5.1.0/armv7e-m/softfp/libgcc.a
LOAD /usr/lib/gcc/arm-none-eabi/5.1.0/../../../../arm-none-eabi/lib/armv7e-m/softfp/libc_nano.a
END GROUP
START GROUP
LOAD /usr/lib/gcc/arm-none-eabi/5.1.0/armv7e-m/softfp/libgcc.a
LOAD /usr/lib/gcc/arm-none-eabi/5.1.0/../../../../arm-none-eabi/lib/armv7e-m/softfp/libc_nano.a
END GROUP
LOAD /usr/lib/gcc/arm-none-eabi/5.1.0/armv7e-m/softfp/crtend.o
LOAD /usr/lib/gcc/arm-none-eabi/5.1.0/armv7e-m/softfp/crtn.o
                0x0000000020009fff                _estack = 0x20009fff

.text           0x0000000008000000     0xb159
 *(.isr_vector)
 .isr_vector    0x0000000008000000      0x188 build/startup_stm32f303xc.o
                0x0000000008000000                g_pfnVectors
 *(.text*)
 .text.__do_global_dtors_aux
                0x0000000008000188       0x28 /usr/lib/gcc/arm-none-eabi/5.1.0/armv7e-m/softfp/crtbegin.o
 .text.frame_dummy
                0x00000000080001b0       0x34 /usr/lib/gcc/arm-none-eabi/5.1.0/armv7e-m/softfp/crtbegin.o
 .text.SystemInit
                0x00000000080001e4       0x94 build/system_stm32f3xx.o
                0x00000000080001e4                SystemInit
 .text.HAL_Init
                0x0000000008000278       0x2c build/stm32f3xx_hal.o
                0x0000000008000278                HAL_Init
 .text.HAL_InitTick
                0x00000000080002a4       0x38 build/stm32f3xx_hal.o
                0x00000000080002a4                HAL_InitTick
 .text.HAL_IncTick
                0x00000000080002dc       0x1c build/stm32f3xx_hal.o
                0x00000000080002dc                HAL_IncTick
 .text.HAL_GetTick
                0x00000000080002f8       0x18 build/stm32f3xx_hal.o
                0x00000000080002f8                HAL_GetTick
 .text.HAL_Delay
                0x0000000008000310       0x28 build/stm32f3xx_hal.o
                0x0000000008000310                HAL_Delay
 .text.HAL_ADC_ConvCpltCallback
                0x0000000008000338       0x14 build/stm32f3xx_hal_adc.o
                0x0000000008000338                HAL_ADC_ConvCpltCallback
 .text.HAL_ADC_ConvHalfCpltCallback
                0x000000000800034c       0x14 build/stm32f3xx_hal_adc.o
                0x000000000800034c                HAL_ADC_ConvHalfCpltCallback
 .text.HAL_ADC_ErrorCallback
                0x0000000008000360       0x14 build/stm32f3xx_hal_adc.o
                0x0000000008000360                HAL_ADC_ErrorCallback
 .text.HAL_ADC_Init
                0x0000000008000374      0x318 build/stm32f3xx_hal_adc_ex.o
                0x0000000008000374                HAL_ADC_Init
 .text.HAL_ADC_Start_DMA
                0x000000000800068c      0x12c build/stm32f3xx_hal_adc_ex.o
                0x000000000800068c                HAL_ADC_Start_DMA
 .text.HAL_ADC_ConfigChannel
                0x00000000080007b8      0x640 build/stm32f3xx_hal_adc_ex.o
                0x00000000080007b8                HAL_ADC_ConfigChannel
 .text.ADC_DMAConvCplt
                0x0000000008000df8       0x54 build/stm32f3xx_hal_adc_ex.o
 .text.ADC_DMAHalfConvCplt
                0x0000000008000e4c       0x1c build/stm32f3xx_hal_adc_ex.o
 .text.ADC_DMAError
                0x0000000008000e68       0x30 build/stm32f3xx_hal_adc_ex.o
 .text.ADC_Enable
                0x0000000008000e98       0xb4 build/stm32f3xx_hal_adc_ex.o
 .text.ADC_Disable
                0x0000000008000f4c       0xb8 build/stm32f3xx_hal_adc_ex.o
 .text.NVIC_SetPriorityGrouping
                0x0000000008001004       0x48 build/stm32f3xx_hal_cortex.o
 .text.NVIC_GetPriorityGrouping
                0x000000000800104c       0x1c build/stm32f3xx_hal_cortex.o
 .text.NVIC_EnableIRQ
                0x0000000008001068       0x34 build/stm32f3xx_hal_cortex.o
 .text.NVIC_SetPriority
                0x000000000800109c       0x54 build/stm32f3xx_hal_cortex.o
 .text.NVIC_EncodePriority
                0x00000000080010f0       0x68 build/stm32f3xx_hal_cortex.o
 .text.SysTick_Config
                0x0000000008001158       0x44 build/stm32f3xx_hal_cortex.o
 .text.HAL_NVIC_SetPriorityGrouping
                0x000000000800119c       0x18 build/stm32f3xx_hal_cortex.o
                0x000000000800119c                HAL_NVIC_SetPriorityGrouping
 .text.HAL_NVIC_SetPriority
                0x00000000080011b4       0x38 build/stm32f3xx_hal_cortex.o
                0x00000000080011b4                HAL_NVIC_SetPriority
 .text.HAL_NVIC_EnableIRQ
                0x00000000080011ec       0x1c build/stm32f3xx_hal_cortex.o
                0x00000000080011ec                HAL_NVIC_EnableIRQ
 .text.HAL_SYSTICK_Config
                0x0000000008001208       0x18 build/stm32f3xx_hal_cortex.o
                0x0000000008001208                HAL_SYSTICK_Config
 .text.HAL_SYSTICK_IRQHandler
                0x0000000008001220        0xc build/stm32f3xx_hal_cortex.o
                0x0000000008001220                HAL_SYSTICK_IRQHandler
 .text.HAL_SYSTICK_Callback
                0x000000000800122c       0x10 build/stm32f3xx_hal_cortex.o
                0x000000000800122c                HAL_SYSTICK_Callback
 .text.HAL_DMA_Init
                0x000000000800123c       0x84 build/stm32f3xx_hal_dma.o
                0x000000000800123c                HAL_DMA_Init
 .text.HAL_DMA_Start_IT
                0x00000000080012c0       0x94 build/stm32f3xx_hal_dma.o
                0x00000000080012c0                HAL_DMA_Start_IT
 .text.DMA_SetConfig
                0x0000000008001354       0x4c build/stm32f3xx_hal_dma.o
 .text.HAL_GPIO_Init
                0x00000000080013a0      0x300 build/stm32f3xx_hal_gpio.o
                0x00000000080013a0                HAL_GPIO_Init
 .text.HAL_GPIO_ReadPin
                0x00000000080016a0       0x30 build/stm32f3xx_hal_gpio.o
                0x00000000080016a0                HAL_GPIO_ReadPin
 .text.HAL_GPIO_WritePin
                0x00000000080016d0       0x30 build/stm32f3xx_hal_gpio.o
                0x00000000080016d0                HAL_GPIO_WritePin
 .text.HAL_GPIO_EXTI_IRQHandler
                0x0000000008001700       0x30 build/stm32f3xx_hal_gpio.o
                0x0000000008001700                HAL_GPIO_EXTI_IRQHandler
 .text.HAL_PCD_Init
                0x0000000008001730      0x1ac build/stm32f3xx_hal_pcd.o
                0x0000000008001730                HAL_PCD_Init
 .text.HAL_PCD_Start
                0x00000000080018dc       0x1c build/stm32f3xx_hal_pcd.o
                0x00000000080018dc                HAL_PCD_Start
 .text.PCD_EP_ISR_Handler
                0x00000000080018f8      0x680 build/stm32f3xx_hal_pcd.o
 .text.HAL_PCD_IRQHandler
                0x0000000008001f78      0x18c build/stm32f3xx_hal_pcd.o
                0x0000000008001f78                HAL_PCD_IRQHandler
 .text.HAL_PCD_SetAddress
                0x0000000008002104       0x54 build/stm32f3xx_hal_pcd.o
                0x0000000008002104                HAL_PCD_SetAddress
 .text.HAL_PCD_EP_Open
                0x0000000008002158      0x79c build/stm32f3xx_hal_pcd.o
                0x0000000008002158                HAL_PCD_EP_Open
 .text.HAL_PCD_EP_Close
                0x00000000080028f4      0x48c build/stm32f3xx_hal_pcd.o
                0x00000000080028f4                HAL_PCD_EP_Close
 .text.HAL_PCD_EP_Receive
                0x0000000008002d80      0x228 build/stm32f3xx_hal_pcd.o
                0x0000000008002d80                HAL_PCD_EP_Receive
 .text.HAL_PCD_EP_Transmit
                0x0000000008002fa8      0x2b8 build/stm32f3xx_hal_pcd.o
                0x0000000008002fa8                HAL_PCD_EP_Transmit
 .text.HAL_PCD_EP_SetStall
                0x0000000008003260      0x158 build/stm32f3xx_hal_pcd.o
                0x0000000008003260                HAL_PCD_EP_SetStall
 .text.HAL_PCD_EP_ClrStall
                0x00000000080033b8      0x1cc build/stm32f3xx_hal_pcd.o
                0x00000000080033b8                HAL_PCD_EP_ClrStall
 .text.HAL_PCDEx_PMAConfig
                0x0000000008003584       0x88 build/stm32f3xx_hal_pcd_ex.o
                0x0000000008003584                HAL_PCDEx_PMAConfig
 .text.PCD_WritePMA
                0x000000000800360c       0x80 build/stm32f3xx_hal_pcd_ex.o
                0x000000000800360c                PCD_WritePMA
 .text.PCD_ReadPMA
                0x000000000800368c       0x64 build/stm32f3xx_hal_pcd_ex.o
                0x000000000800368c                PCD_ReadPMA
 .text.HAL_PCDEx_SetConnectionState
                0x00000000080036f0       0x18 build/stm32f3xx_hal_pcd_ex.o
                0x00000000080036f0                HAL_PCDEx_SetConnectionState
 .text.HAL_RCC_ClockConfig
                0x0000000008003708      0x76c build/stm32f3xx_hal_rcc.o
                0x0000000008003708                HAL_RCC_ClockConfig
 .text.HAL_RCC_EnableCSS
                0x0000000008003e74       0x18 build/stm32f3xx_hal_rcc.o
                0x0000000008003e74                HAL_RCC_EnableCSS
 .text.HAL_RCC_GetHCLKFreq
                0x0000000008003e8c       0x58 build/stm32f3xx_hal_rcc.o
                0x0000000008003e8c                HAL_RCC_GetHCLKFreq
 .text.HAL_RCC_GetPCLK1Freq
                0x0000000008003ee4       0x4c build/stm32f3xx_hal_rcc.o
                0x0000000008003ee4                HAL_RCC_GetPCLK1Freq
 .text.HAL_RCC_GetPCLK2Freq
                0x0000000008003f30       0x4c build/stm32f3xx_hal_rcc.o
                0x0000000008003f30                HAL_RCC_GetPCLK2Freq
 .text.HAL_RCC_NMI_IRQHandler
                0x0000000008003f7c       0x28 build/stm32f3xx_hal_rcc.o
                0x0000000008003f7c                HAL_RCC_NMI_IRQHandler
 .text.HAL_RCC_CCSCallback
                0x0000000008003fa4       0x10 build/stm32f3xx_hal_rcc.o
                0x0000000008003fa4                HAL_RCC_CCSCallback
 .text.HAL_RCCEx_PeriphCLKConfig
                0x0000000008003fb4      0x2fc build/stm32f3xx_hal_rcc_ex.o
                0x0000000008003fb4                HAL_RCCEx_PeriphCLKConfig
 .text.HAL_RCC_OscConfig
                0x00000000080042b0     0x123c build/stm32f3xx_hal_rcc_ex.o
                0x00000000080042b0                HAL_RCC_OscConfig
 .text.HAL_RCC_GetSysClockFreq
                0x00000000080054ec       0xe4 build/stm32f3xx_hal_rcc_ex.o
                0x00000000080054ec                HAL_RCC_GetSysClockFreq
 .text.HAL_SPI_Init
                0x00000000080055d0      0x11c build/stm32f3xx_hal_spi.o
                0x00000000080055d0                HAL_SPI_Init
 .text.HAL_SPI_TransmitReceive
                0x00000000080056ec      0x450 build/stm32f3xx_hal_spi.o
                0x00000000080056ec                HAL_SPI_TransmitReceive
 .text.SPI_WaitFlagStateUntilTimeout
                0x0000000008005b3c       0xcc build/stm32f3xx_hal_spi.o
 .text.SPI_WaitFifoStateUntilTimeout
                0x0000000008005c08       0xe4 build/stm32f3xx_hal_spi.o
 .text.SPI_EndRxTxTransaction
                0x0000000008005cec       0x90 build/stm32f3xx_hal_spi.o
 .text.HAL_TIM_Base_Init
                0x0000000008005d7c       0x50 build/stm32f3xx_hal_tim.o
                0x0000000008005d7c                HAL_TIM_Base_Init
 .text.HAL_TIM_Base_Start_IT
                0x0000000008005dcc       0x38 build/stm32f3xx_hal_tim.o
                0x0000000008005dcc                HAL_TIM_Base_Start_IT
 .text.HAL_TIM_IRQHandler
                0x0000000008005e04      0x210 build/stm32f3xx_hal_tim.o
                0x0000000008005e04                HAL_TIM_IRQHandler
 .text.HAL_TIM_ConfigClockSource
                0x0000000008006014      0x1c4 build/stm32f3xx_hal_tim.o
                0x0000000008006014                HAL_TIM_ConfigClockSource
 .text.HAL_TIM_PeriodElapsedCallback
                0x00000000080061d8       0x14 build/stm32f3xx_hal_tim.o
                0x00000000080061d8                HAL_TIM_PeriodElapsedCallback
 .text.HAL_TIM_OC_DelayElapsedCallback
                0x00000000080061ec       0x14 build/stm32f3xx_hal_tim.o
                0x00000000080061ec                HAL_TIM_OC_DelayElapsedCallback
 .text.HAL_TIM_IC_CaptureCallback
                0x0000000008006200       0x14 build/stm32f3xx_hal_tim.o
                0x0000000008006200                HAL_TIM_IC_CaptureCallback
 .text.HAL_TIM_PWM_PulseFinishedCallback
                0x0000000008006214       0x14 build/stm32f3xx_hal_tim.o
                0x0000000008006214                HAL_TIM_PWM_PulseFinishedCallback
 .text.HAL_TIM_TriggerCallback
                0x0000000008006228       0x14 build/stm32f3xx_hal_tim.o
                0x0000000008006228                HAL_TIM_TriggerCallback
 .text.TIM_Base_SetConfig
                0x000000000800623c      0x114 build/stm32f3xx_hal_tim.o
                0x000000000800623c                TIM_Base_SetConfig
 .text.TIM_TI1_ConfigInputStage
                0x0000000008006350       0x68 build/stm32f3xx_hal_tim.o
 .text.TIM_TI2_ConfigInputStage
                0x00000000080063b8       0x68 build/stm32f3xx_hal_tim.o
 .text.TIM_ITRx_SetConfig
                0x0000000008006420       0x40 build/stm32f3xx_hal_tim.o
 .text.TIM_ETR_SetConfig
                0x0000000008006460       0x44 build/stm32f3xx_hal_tim.o
                0x0000000008006460                TIM_ETR_SetConfig
 .text.HAL_TIMEx_MasterConfigSynchronization
                0x00000000080064a4       0xa8 build/stm32f3xx_hal_tim_ex.o
                0x00000000080064a4                HAL_TIMEx_MasterConfigSynchronization
 .text.HAL_TIMEx_CommutationCallback
                0x000000000800654c       0x14 build/stm32f3xx_hal_tim_ex.o
                0x000000000800654c                HAL_TIMEx_CommutationCallback
 .text.HAL_TIMEx_BreakCallback
                0x0000000008006560       0x14 build/stm32f3xx_hal_tim_ex.o
                0x0000000008006560                HAL_TIMEx_BreakCallback
 .text.HAL_UART_Init
                0x0000000008006574       0x98 build/stm32f3xx_hal_uart.o
                0x0000000008006574                HAL_UART_Init
 .text.HAL_UART_Transmit_IT
                0x000000000800660c       0xbc build/stm32f3xx_hal_uart.o
                0x000000000800660c                HAL_UART_Transmit_IT
 .text.HAL_UART_IRQHandler
                0x00000000080066c8      0x1c4 build/stm32f3xx_hal_uart.o
                0x00000000080066c8                HAL_UART_IRQHandler
 .text.UART_WaitOnFlagUntilTimeout
                0x000000000800688c      0x130 build/stm32f3xx_hal_uart.o
                0x000000000800688c                UART_WaitOnFlagUntilTimeout
 .text.HAL_UART_RxCpltCallback
                0x00000000080069bc       0x14 build/stm32f3xx_hal_uart.o
                0x00000000080069bc                HAL_UART_RxCpltCallback
 .text.HAL_UART_WakeupCallback
                0x00000000080069d0       0x14 build/stm32f3xx_hal_uart.o
                0x00000000080069d0                HAL_UART_WakeupCallback
 .text.UART_SetConfig
                0x00000000080069e4      0x38c build/stm32f3xx_hal_uart.o
                0x00000000080069e4                UART_SetConfig
 .text.UART_AdvFeatureConfig
                0x0000000008006d70      0x144 build/stm32f3xx_hal_uart.o
                0x0000000008006d70                UART_AdvFeatureConfig
 .text.UART_CheckIdleState
                0x0000000008006eb4       0x7c build/stm32f3xx_hal_uart.o
                0x0000000008006eb4                UART_CheckIdleState
 .text.HAL_UART_GetState
                0x0000000008006f30       0x1c build/stm32f3xx_hal_uart.o
                0x0000000008006f30                HAL_UART_GetState
 .text.UART_Transmit_IT
                0x0000000008006f4c       0xb4 build/stm32f3xx_hal_uart.o
 .text.UART_EndTransmit_IT
                0x0000000008007000       0x54 build/stm32f3xx_hal_uart.o
 .text.UART_Receive_IT
                0x0000000008007054       0xf8 build/stm32f3xx_hal_uart.o
 .text.USBD_AUDIO_Init
                0x000000000800714c       0xa8 build/usbd_audio.o
 .text.USBD_AUDIO_DeInit
                0x00000000080071f4       0x48 build/usbd_audio.o
 .text.USBD_AUDIO_Setup
                0x000000000800723c       0xe0 build/usbd_audio.o
 .text.USBD_AUDIO_GetCfgDesc
                0x000000000800731c       0x20 build/usbd_audio.o
 .text.USBD_AUDIO_DataIn
                0x000000000800733c       0x1c build/usbd_audio.o
 .text.USBD_AUDIO_EP0_RxReady
                0x0000000008007358       0x64 build/usbd_audio.o
 .text.USBD_AUDIO_EP0_TxReady
                0x00000000080073bc       0x18 build/usbd_audio.o
 .text.USBD_AUDIO_SOF
                0x00000000080073d4       0x18 build/usbd_audio.o
 .text.USBD_AUDIO_IsoINIncomplete
                0x00000000080073ec       0x1c build/usbd_audio.o
 .text.USBD_AUDIO_IsoOutIncomplete
                0x0000000008007408       0x1c build/usbd_audio.o
 .text.USBD_AUDIO_DataOut
                0x0000000008007424       0xcc build/usbd_audio.o
 .text.AUDIO_REQ_GetCurrent
                0x00000000080074f0       0x40 build/usbd_audio.o
 .text.AUDIO_REQ_SetCurrent
                0x0000000008007530       0x68 build/usbd_audio.o
 .text.USBD_AUDIO_GetDeviceQualifierDesc
                0x0000000008007598       0x20 build/usbd_audio.o
 .text.USBD_AUDIO_RegisterInterface
                0x00000000080075b8       0x28 build/usbd_audio.o
                0x00000000080075b8                USBD_AUDIO_RegisterInterface
 .text.USBD_Init
                0x00000000080075e0       0x58 build/usbd_core.o
                0x00000000080075e0                USBD_Init
 .text.USBD_RegisterClass
                0x0000000008007638       0x34 build/usbd_core.o
                0x0000000008007638                USBD_RegisterClass
 .text.USBD_Start
                0x000000000800766c       0x18 build/usbd_core.o
                0x000000000800766c                USBD_Start
 .text.USBD_RunTestMode
                0x0000000008007684       0x18 build/usbd_core.o
                0x0000000008007684                USBD_RunTestMode
 .text.USBD_SetClassConfig
                0x000000000800769c       0x40 build/usbd_core.o
                0x000000000800769c                USBD_SetClassConfig
 .text.USBD_ClrClassConfig
                0x00000000080076dc       0x28 build/usbd_core.o
                0x00000000080076dc                USBD_ClrClassConfig
 .text.USBD_LL_SetupStage
                0x0000000008007704       0x94 build/usbd_core.o
                0x0000000008007704                USBD_LL_SetupStage
 .text.USBD_LL_DataOutStage
                0x0000000008007798       0xb8 build/usbd_core.o
                0x0000000008007798                USBD_LL_DataOutStage
 .text.USBD_LL_DataInStage
                0x0000000008007850      0x108 build/usbd_core.o
                0x0000000008007850                USBD_LL_DataInStage
 .text.USBD_LL_Reset
                0x0000000008007958       0x60 build/usbd_core.o
                0x0000000008007958                USBD_LL_Reset
 .text.USBD_LL_SetSpeed
                0x00000000080079b8       0x20 build/usbd_core.o
                0x00000000080079b8                USBD_LL_SetSpeed
 .text.USBD_LL_Suspend
                0x00000000080079d8       0x2c build/usbd_core.o
                0x00000000080079d8                USBD_LL_Suspend
 .text.USBD_LL_Resume
                0x0000000008007a04       0x24 build/usbd_core.o
                0x0000000008007a04                USBD_LL_Resume
 .text.USBD_LL_SOF
                0x0000000008007a28       0x34 build/usbd_core.o
                0x0000000008007a28                USBD_LL_SOF
 .text.USBD_StdDevReq
                0x0000000008007a5c       0xa0 build/usbd_ctlreq.o
                0x0000000008007a5c                USBD_StdDevReq
 .text.USBD_StdItfReq
                0x0000000008007afc       0x68 build/usbd_ctlreq.o
                0x0000000008007afc                USBD_StdItfReq
 .text.USBD_StdEPReq
                0x0000000008007b64      0x194 build/usbd_ctlreq.o
                0x0000000008007b64                USBD_StdEPReq
 .text.USBD_GetDescriptor
                0x0000000008007cf8      0x1e8 build/usbd_ctlreq.o
 .text.USBD_SetAddress
                0x0000000008007ee0       0x7c build/usbd_ctlreq.o
 .text.USBD_SetConfig
                0x0000000008007f5c      0x110 build/usbd_ctlreq.o
 .text.USBD_GetConfig
                0x000000000800806c       0x64 build/usbd_ctlreq.o
 .text.USBD_GetStatus
                0x00000000080080d0       0x54 build/usbd_ctlreq.o
 .text.USBD_SetFeature
                0x0000000008008124       0x38 build/usbd_ctlreq.o
 .text.USBD_ClrFeature
                0x000000000800815c       0x50 build/usbd_ctlreq.o
 .text.USBD_ParseSetupRequest
                0x00000000080081ac       0x7c build/usbd_ctlreq.o
                0x00000000080081ac                USBD_ParseSetupRequest
 .text.USBD_CtlError
                0x0000000008008228       0x24 build/usbd_ctlreq.o
                0x0000000008008228                USBD_CtlError
 .text.USBD_GetString
                0x000000000800824c       0x88 build/usbd_ctlreq.o
                0x000000000800824c                USBD_GetString
 .text.USBD_GetLen
                0x00000000080082d4       0x30 build/usbd_ctlreq.o
 .text.USBD_CtlSendData
                0x0000000008008304       0x38 build/usbd_ioreq.o
                0x0000000008008304                USBD_CtlSendData
 .text.USBD_CtlContinueSendData
                0x000000000800833c       0x24 build/usbd_ioreq.o
                0x000000000800833c                USBD_CtlContinueSendData
 .text.USBD_CtlPrepareRx
                0x0000000008008360       0x3c build/usbd_ioreq.o
                0x0000000008008360                USBD_CtlPrepareRx
 .text.USBD_CtlContinueRx
                0x000000000800839c       0x24 build/usbd_ioreq.o
                0x000000000800839c                USBD_CtlContinueRx
 .text.USBD_CtlSendStatus
                0x00000000080083c0       0x28 build/usbd_ioreq.o
                0x00000000080083c0                USBD_CtlSendStatus
 .text.USBD_CtlReceiveStatus
                0x00000000080083e8       0x28 build/usbd_ioreq.o
                0x00000000080083e8                USBD_CtlReceiveStatus
 .text.MX_ADC1_Init
                0x0000000008008410      0x12c build/adc.o
                0x0000000008008410                MX_ADC1_Init
 .text.MX_ADC2_Init
                0x000000000800853c       0xf8 build/adc.o
                0x000000000800853c                MX_ADC2_Init
 .text.MX_ADC3_Init
                0x0000000008008634       0xb0 build/adc.o
                0x0000000008008634                MX_ADC3_Init
 .text.MX_ADC4_Init
                0x00000000080086e4       0xa0 build/adc.o
                0x00000000080086e4                MX_ADC4_Init
 .text.HAL_ADC_MspInit
                0x0000000008008784      0x30c build/adc.o
                0x0000000008008784                HAL_ADC_MspInit
 .text.MX_GPIO_Init
                0x0000000008008a90       0xe4 build/gpio.o
                0x0000000008008a90                MX_GPIO_Init
 .text.initHeadChannels
                0x0000000008008b74      0x224 build/main.o
                0x0000000008008b74                initHeadChannels
 .text.initRimChannels
                0x0000000008008d98      0x26c build/main.o
                0x0000000008008d98                initRimChannels
 .text.initHiHatChannels
                0x0000000008009004       0x34 build/main.o
                0x0000000008009004                initHiHatChannels
 .text.HAL_GPIO_EXTI_Callback
                0x0000000008009038       0x44 build/main.o
                0x0000000008009038                HAL_GPIO_EXTI_Callback
 .text.HAL_UART_TxCpltCallback
                0x000000000800907c       0x20 build/main.o
                0x000000000800907c                HAL_UART_TxCpltCallback
 .text.HAL_UART_ErrorCallback
                0x000000000800909c       0x20 build/main.o
                0x000000000800909c                HAL_UART_ErrorCallback
 .text.onTimer1Triggered
                0x00000000080090bc       0x60 build/main.o
                0x00000000080090bc                onTimer1Triggered
 .text.onTimer2Triggered
                0x000000000800911c       0x38 build/main.o
                0x000000000800911c                onTimer2Triggered
 .text.onBtn0Triggered
                0x0000000008009154       0x14 build/main.o
                0x0000000008009154                onBtn0Triggered
 .text.onBtn1Triggered
                0x0000000008009168       0x18 build/main.o
                0x0000000008009168                onBtn1Triggered
 .text.onBtn2Triggered
                0x0000000008009180       0x10 build/main.o
                0x0000000008009180                onBtn2Triggered
 .text.main     0x0000000008009190       0xec build/main.o
                0x0000000008009190                main
 .text.SystemClock_Config
                0x000000000800927c       0x98 build/main.o
                0x000000000800927c                SystemClock_Config
 .text.MX_SPI2_Init
                0x0000000008009314       0x64 build/spi.o
                0x0000000008009314                MX_SPI2_Init
 .text.HAL_SPI_MspInit
                0x0000000008009378       0x7c build/spi.o
                0x0000000008009378                HAL_SPI_MspInit
 .text.HAL_MspInit
                0x00000000080093f4       0x1c build/stm32f3xx_hal_msp.o
                0x00000000080093f4                HAL_MspInit
 .text.TIM2_IRQHandler
                0x0000000008009410       0x30 build/stm32f3xx_it.o
                0x0000000008009410                TIM2_IRQHandler
 .text.SysTick_Handler
                0x0000000008009440       0x10 build/stm32f3xx_it.o
                0x0000000008009440                SysTick_Handler
 .text.USART1_IRQHandler
                0x0000000008009450       0x14 build/stm32f3xx_it.o
                0x0000000008009450                USART1_IRQHandler
 .text.EXTI15_10_IRQHandler
                0x0000000008009464       0x18 build/stm32f3xx_it.o
                0x0000000008009464                EXTI15_10_IRQHandler
 .text.TIM3_IRQHandler
                0x000000000800947c       0xc8 build/stm32f3xx_it.o
                0x000000000800947c                TIM3_IRQHandler
 .text.TIM1_UP_TIM16_IRQHandler
                0x0000000008009544       0x70 build/stm32f3xx_it.o
                0x0000000008009544                TIM1_UP_TIM16_IRQHandler
 .text.NMI_Handler
                0x00000000080095b4        0xc build/stm32f3xx_it.o
                0x00000000080095b4                NMI_Handler
 .text.USB_LP_CAN_RX0_IRQHandler
                0x00000000080095c0       0x14 build/stm32f3xx_it.o
                0x00000000080095c0                USB_LP_CAN_RX0_IRQHandler
 .text.USART3_IRQHandler
                0x00000000080095d4       0x14 build/stm32f3xx_it.o
                0x00000000080095d4                USART3_IRQHandler
 .text.MX_TIM1_Init
                0x00000000080095e8       0x6c build/tim.o
                0x00000000080095e8                MX_TIM1_Init
 .text.MX_TIM2_Init
                0x0000000008009654       0x60 build/tim.o
                0x0000000008009654                MX_TIM2_Init
 .text.MX_TIM3_Init
                0x00000000080096b4       0x60 build/tim.o
                0x00000000080096b4                MX_TIM3_Init
 .text.HAL_TIM_Base_MspInit
                0x0000000008009714       0x94 build/tim.o
                0x0000000008009714                HAL_TIM_Base_MspInit
 .text.MX_USART1_UART_Init
                0x00000000080097a8       0x54 build/usart.o
                0x00000000080097a8                MX_USART1_UART_Init
 .text.MX_USART3_UART_Init
                0x00000000080097fc       0x54 build/usart.o
                0x00000000080097fc                MX_USART3_UART_Init
 .text.HAL_UART_MspInit
                0x0000000008009850       0xb4 build/usart.o
                0x0000000008009850                HAL_UART_MspInit
 .text.MX_USB_DEVICE_Init
                0x0000000008009904       0x38 build/usb_device.o
                0x0000000008009904                MX_USB_DEVICE_Init
 .text.AUDIO_Init_FS
                0x000000000800993c       0x2c build/usbd_audio_if.o
 .text.AUDIO_DeInit_FS
                0x0000000008009968       0x18 build/usbd_audio_if.o
 .text.AUDIO_AudioCmd_FS
                0x0000000008009980       0x2c build/usbd_audio_if.o
 .text.AUDIO_VolumeCtl_FS
                0x00000000080099ac       0x1c build/usbd_audio_if.o
 .text.AUDIO_MuteCtl_FS
                0x00000000080099c8       0x1c build/usbd_audio_if.o
 .text.AUDIO_PeriodicTC_FS
                0x00000000080099e4       0x1c build/usbd_audio_if.o
 .text.AUDIO_GetState_FS
                0x0000000008009a00       0x14 build/usbd_audio_if.o
 .text.HAL_PCD_MspInit
                0x0000000008009a14       0x64 build/usbd_conf.o
                0x0000000008009a14                HAL_PCD_MspInit
 .text.HAL_PCD_SetupStageCallback
                0x0000000008009a78       0x24 build/usbd_conf.o
                0x0000000008009a78                HAL_PCD_SetupStageCallback
 .text.HAL_PCD_DataOutStageCallback
                0x0000000008009a9c       0x38 build/usbd_conf.o
                0x0000000008009a9c                HAL_PCD_DataOutStageCallback
 .text.HAL_PCD_DataInStageCallback
                0x0000000008009ad4       0x34 build/usbd_conf.o
                0x0000000008009ad4                HAL_PCD_DataInStageCallback
 .text.HAL_PCD_SOFCallback
                0x0000000008009b08       0x1c build/usbd_conf.o
                0x0000000008009b08                HAL_PCD_SOFCallback
 .text.HAL_PCD_ResetCallback
                0x0000000008009b24       0x44 build/usbd_conf.o
                0x0000000008009b24                HAL_PCD_ResetCallback
 .text.HAL_PCD_SuspendCallback
                0x0000000008009b68       0x1c build/usbd_conf.o
                0x0000000008009b68                HAL_PCD_SuspendCallback
 .text.HAL_PCD_ResumeCallback
                0x0000000008009b84       0x3c build/usbd_conf.o
                0x0000000008009b84                HAL_PCD_ResumeCallback
 .text.USBD_LL_Init
                0x0000000008009bc0       0x80 build/usbd_conf.o
                0x0000000008009bc0                USBD_LL_Init
 .text.USBD_LL_Start
                0x0000000008009c40       0x20 build/usbd_conf.o
                0x0000000008009c40                USBD_LL_Start
 .text.USBD_LL_OpenEP
                0x0000000008009c60       0x34 build/usbd_conf.o
                0x0000000008009c60                USBD_LL_OpenEP
 .text.USBD_LL_CloseEP
                0x0000000008009c94       0x28 build/usbd_conf.o
                0x0000000008009c94                USBD_LL_CloseEP
 .text.USBD_LL_StallEP
                0x0000000008009cbc       0x28 build/usbd_conf.o
                0x0000000008009cbc                USBD_LL_StallEP
 .text.USBD_LL_ClearStallEP
                0x0000000008009ce4       0x28 build/usbd_conf.o
                0x0000000008009ce4                USBD_LL_ClearStallEP
 .text.USBD_LL_IsStallEP
                0x0000000008009d0c       0x58 build/usbd_conf.o
                0x0000000008009d0c                USBD_LL_IsStallEP
 .text.USBD_LL_SetUSBAddress
                0x0000000008009d64       0x28 build/usbd_conf.o
                0x0000000008009d64                USBD_LL_SetUSBAddress
 .text.USBD_LL_Transmit
                0x0000000008009d8c       0x30 build/usbd_conf.o
                0x0000000008009d8c                USBD_LL_Transmit
 .text.USBD_LL_PrepareReceive
                0x0000000008009dbc       0x30 build/usbd_conf.o
                0x0000000008009dbc                USBD_LL_PrepareReceive
 .text.USBD_static_malloc
                0x0000000008009dec       0x1c build/usbd_conf.o
                0x0000000008009dec                USBD_static_malloc
 .text.USBD_static_free
                0x0000000008009e08       0x18 build/usbd_conf.o
                0x0000000008009e08                USBD_static_free
 .text.SystemClockConfig_Resume
                0x0000000008009e20        0xc build/usbd_conf.o
 .text.USBD_FS_DeviceDescriptor
                0x0000000008009e2c       0x24 build/usbd_desc.o
                0x0000000008009e2c                USBD_FS_DeviceDescriptor
 .text.USBD_FS_LangIDStrDescriptor
                0x0000000008009e50       0x24 build/usbd_desc.o
                0x0000000008009e50                USBD_FS_LangIDStrDescriptor
 .text.USBD_FS_ProductStrDescriptor
                0x0000000008009e74       0x3c build/usbd_desc.o
                0x0000000008009e74                USBD_FS_ProductStrDescriptor
 .text.USBD_FS_ManufacturerStrDescriptor
                0x0000000008009eb0       0x28 build/usbd_desc.o
                0x0000000008009eb0                USBD_FS_ManufacturerStrDescriptor
 .text.USBD_FS_SerialStrDescriptor
                0x0000000008009ed8       0x3c build/usbd_desc.o
                0x0000000008009ed8                USBD_FS_SerialStrDescriptor
 .text.USBD_FS_ConfigStrDescriptor
                0x0000000008009f14       0x3c build/usbd_desc.o
                0x0000000008009f14                USBD_FS_ConfigStrDescriptor
 .text.USBD_FS_InterfaceStrDescriptor
                0x0000000008009f50       0x3c build/usbd_desc.o
                0x0000000008009f50                USBD_FS_InterfaceStrDescriptor
 .text.mcp4261_setWiperPosition
                0x0000000008009f8c       0x70 build/mcp4251.o
                0x0000000008009f8c                mcp4261_setWiperPosition
 .text.MX_DMA_Init
                0x0000000008009ffc       0x2c build/dma.o
                0x0000000008009ffc                MX_DMA_Init
 .text.triggerchannel_init
                0x000000000800a028       0xac build/triggerchannel.o
                0x000000000800a028                triggerchannel_init
 .text.triggerchannel_setWiper
                0x000000000800a0d4       0x34 build/triggerchannel.o
                0x000000000800a0d4                triggerchannel_setWiper
 .text.triggerchannel_process
                0x000000000800a108       0x7c build/triggerchannel.o
                0x000000000800a108                triggerchannel_process
 .text.triggerchannel_process_triggerevent
                0x000000000800a184       0x38 build/triggerchannel.o
                0x000000000800a184                triggerchannel_process_triggerevent
 .text.triggerchannel_process_monitor
                0x000000000800a1bc       0x68 build/triggerchannel.o
                0x000000000800a1bc                triggerchannel_process_monitor
 .text.triggerchannel_transition_triggerevent_monitor
                0x000000000800a224       0x30 build/triggerchannel.o
                0x000000000800a224                triggerchannel_transition_triggerevent_monitor
 .text.triggerchannel_transition_monitor_triggerevent
                0x000000000800a254       0x28 build/triggerchannel.o
                0x000000000800a254                triggerchannel_transition_monitor_triggerevent
 .text.triggerchannel_addSample
                0x000000000800a27c       0x58 build/triggerchannel.o
                0x000000000800a27c                triggerchannel_addSample
 .text.triggerchannel_getLastSamplesMax
                0x000000000800a2d4       0x50 build/triggerchannel.o
                0x000000000800a2d4                triggerchannel_getLastSamplesMax
 .text.hihatchannel_init
                0x000000000800a324       0x88 build/hihatchannel.o
                0x000000000800a324                hihatchannel_init
 .text.hihatchannel_process
                0x000000000800a3ac       0x90 build/hihatchannel.o
                0x000000000800a3ac                hihatchannel_process
 .text.hihatchannel_onChange
                0x000000000800a43c       0xe4 build/hihatchannel.o
                0x000000000800a43c                hihatchannel_onChange
 .text.midi_sendNote
                0x000000000800a520       0x98 build/midi.o
                0x000000000800a520                midi_sendNote
 .text.midi_sendControlChange
                0x000000000800a5b8       0x64 build/midi.o
                0x000000000800a5b8                midi_sendControlChange
 .text.midi_createmessage
                0x000000000800a61c       0x6c build/midi.o
                0x000000000800a61c                midi_createmessage
 .text.midi_sendNextMessage
                0x000000000800a688       0xb4 build/midi.o
                0x000000000800a688                midi_sendNextMessage
 .text.midi_onTxComplete
                0x000000000800a73c        0xc build/midi.o
                0x000000000800a73c                midi_onTxComplete
 .text.Reset_Handler
                0x000000000800a748       0x50 build/startup_stm32f303xc.o
                0x000000000800a748                Reset_Handler
 .text.Default_Handler
                0x000000000800a798        0x2 build/startup_stm32f303xc.o
                0x000000000800a798                RTC_Alarm_IRQHandler
                0x000000000800a798                TIM8_TRG_COM_IRQHandler
                0x000000000800a798                TIM8_CC_IRQHandler
                0x000000000800a798                DebugMon_Handler
                0x000000000800a798                TIM1_CC_IRQHandler
                0x000000000800a798                HardFault_Handler
                0x000000000800a798                USB_HP_IRQHandler
                0x000000000800a798                PVD_IRQHandler
                0x000000000800a798                TAMP_STAMP_IRQHandler
                0x000000000800a798                PendSV_Handler
                0x000000000800a798                EXTI3_IRQHandler
                0x000000000800a798                USB_HP_CAN_TX_IRQHandler
                0x000000000800a798                EXTI0_IRQHandler
                0x000000000800a798                I2C2_EV_IRQHandler
                0x000000000800a798                FPU_IRQHandler
                0x000000000800a798                UsageFault_Handler
                0x000000000800a798                ADC1_2_IRQHandler
                0x000000000800a798                SPI1_IRQHandler
                0x000000000800a798                CAN_SCE_IRQHandler
                0x000000000800a798                TIM6_DAC_IRQHandler
                0x000000000800a798                TIM8_UP_IRQHandler
                0x000000000800a798                DMA2_Channel2_IRQHandler
                0x000000000800a798                DMA1_Channel4_IRQHandler
                0x000000000800a798                DMA1_Channel7_IRQHandler
                0x000000000800a798                UART5_IRQHandler
                0x000000000800a798                ADC3_IRQHandler
                0x000000000800a798                TIM4_IRQHandler
                0x000000000800a798                CAN_RX1_IRQHandler
                0x000000000800a798                DMA2_Channel1_IRQHandler
                0x000000000800a798                I2C1_EV_IRQHandler
                0x000000000800a798                DMA1_Channel6_IRQHandler
                0x000000000800a798                UART4_IRQHandler
                0x000000000800a798                DMA2_Channel4_IRQHandler
                0x000000000800a798                RCC_IRQHandler
                0x000000000800a798                DMA1_Channel1_IRQHandler
                0x000000000800a798                Default_Handler
                0x000000000800a798                USBWakeUp_RMP_IRQHandler
                0x000000000800a798                TIM7_IRQHandler
                0x000000000800a798                EXTI9_5_IRQHandler
                0x000000000800a798                RTC_WKUP_IRQHandler
                0x000000000800a798                SPI2_IRQHandler
                0x000000000800a798                MemManage_Handler
                0x000000000800a798                SVC_Handler
                0x000000000800a798                DMA2_Channel5_IRQHandler
                0x000000000800a798                DMA1_Channel5_IRQHandler
                0x000000000800a798                USB_LP_IRQHandler
                0x000000000800a798                EXTI4_IRQHandler
                0x000000000800a798                TIM1_TRG_COM_TIM17_IRQHandler
                0x000000000800a798                DMA1_Channel3_IRQHandler
                0x000000000800a798                ADC4_IRQHandler
                0x000000000800a798                WWDG_IRQHandler
                0x000000000800a798                COMP7_IRQHandler
                0x000000000800a798                COMP1_2_3_IRQHandler
                0x000000000800a798                EXTI1_IRQHandler
                0x000000000800a798                USART2_IRQHandler
                0x000000000800a798                COMP4_5_6_IRQHandler
                0x000000000800a798                I2C2_ER_IRQHandler
                0x000000000800a798                DMA1_Channel2_IRQHandler
                0x000000000800a798                TIM8_BRK_IRQHandler
                0x000000000800a798                FLASH_IRQHandler
                0x000000000800a798                BusFault_Handler
                0x000000000800a798                SPI3_IRQHandler
                0x000000000800a798                I2C1_ER_IRQHandler
                0x000000000800a798                USBWakeUp_IRQHandler
                0x000000000800a798                DMA2_Channel3_IRQHandler
                0x000000000800a798                EXTI2_TSC_IRQHandler
                0x000000000800a798                TIM1_BRK_TIM15_IRQHandler
 *fill*         0x000000000800a79a        0x2 
 .text.__libc_init_array
                0x000000000800a79c       0x4c /usr/lib/gcc/arm-none-eabi/5.1.0/../../../../arm-none-eabi/lib/armv7e-m/softfp/libc_nano.a(lib_a-init.o)
                0x000000000800a79c                __libc_init_array
 .text.malloc   0x000000000800a7e8       0x10 /usr/lib/gcc/arm-none-eabi/5.1.0/../../../../arm-none-eabi/lib/armv7e-m/softfp/libc_nano.a(lib_a-malloc.o)
                0x000000000800a7e8                malloc
 .text.free     0x000000000800a7f8       0x10 /usr/lib/gcc/arm-none-eabi/5.1.0/../../../../arm-none-eabi/lib/armv7e-m/softfp/libc_nano.a(lib_a-malloc.o)
                0x000000000800a7f8                free
 .text.memcpy   0x000000000800a808       0x16 /usr/lib/gcc/arm-none-eabi/5.1.0/../../../../arm-none-eabi/lib/armv7e-m/softfp/libc_nano.a(lib_a-memcpy.o)
                0x000000000800a808                memcpy
 .text.memset   0x000000000800a81e       0x10 /usr/lib/gcc/arm-none-eabi/5.1.0/../../../../arm-none-eabi/lib/armv7e-m/softfp/libc_nano.a(lib_a-memset.o)
                0x000000000800a81e                memset
 *fill*         0x000000000800a82e        0x2 
 .text._free_r  0x000000000800a830       0x8c /usr/lib/gcc/arm-none-eabi/5.1.0/../../../../arm-none-eabi/lib/armv7e-m/softfp/libc_nano.a(lib_a-nano-freer.o)
                0x000000000800a830                _free_r
 .text._malloc_r
                0x000000000800a8bc       0xa8 /usr/lib/gcc/arm-none-eabi/5.1.0/../../../../arm-none-eabi/lib/armv7e-m/softfp/libc_nano.a(lib_a-nano-mallocr.o)
                0x000000000800a8bc                _malloc_r
 .text._sbrk_r  0x000000000800a964       0x20 /usr/lib/gcc/arm-none-eabi/5.1.0/../../../../arm-none-eabi/lib/armv7e-m/softfp/libc_nano.a(lib_a-sbrkr.o)
                0x000000000800a964                _sbrk_r
 .text.sprintf  0x000000000800a984       0x48 /usr/lib/gcc/arm-none-eabi/5.1.0/../../../../arm-none-eabi/lib/armv7e-m/softfp/libc_nano.a(lib_a-sprintf.o)
                0x000000000800a984                sprintf
                0x000000000800a984                siprintf
 .text.__ssputs_r
                0x000000000800a9cc       0xb2 /usr/lib/gcc/arm-none-eabi/5.1.0/../../../../arm-none-eabi/lib/armv7e-m/softfp/libc_nano.a(lib_a-nano-svfprintf.o)
                0x000000000800a9cc                __ssputs_r
 *fill*         0x000000000800aa7e        0x2 
 .text._svfprintf_r
                0x000000000800aa80      0x1e8 /usr/lib/gcc/arm-none-eabi/5.1.0/../../../../arm-none-eabi/lib/armv7e-m/softfp/libc_nano.a(lib_a-nano-svfprintf.o)
                0x000000000800aa80                _svfprintf_r
                0x000000000800aa80                _svfiprintf_r
 .text._printf_common
                0x000000000800ac68       0xec /usr/lib/gcc/arm-none-eabi/5.1.0/../../../../arm-none-eabi/lib/armv7e-m/softfp/libc_nano.a(lib_a-nano-vfprintf_i.o)
                0x000000000800ac68                _printf_common
 .text._printf_i
                0x000000000800ad54      0x24c /usr/lib/gcc/arm-none-eabi/5.1.0/../../../../arm-none-eabi/lib/armv7e-m/softfp/libc_nano.a(lib_a-nano-vfprintf_i.o)
                0x000000000800ad54                _printf_i
 .text.memchr   0x000000000800afa0       0x1e /usr/lib/gcc/arm-none-eabi/5.1.0/../../../../arm-none-eabi/lib/armv7e-m/softfp/libc_nano.a(lib_a-memchr.o)
                0x000000000800afa0                memchr
 .text.memmove  0x000000000800afbe       0x36 /usr/lib/gcc/arm-none-eabi/5.1.0/../../../../arm-none-eabi/lib/armv7e-m/softfp/libc_nano.a(lib_a-memmove.o)
                0x000000000800afbe                memmove
 .text._realloc_r
                0x000000000800aff4       0x4c /usr/lib/gcc/arm-none-eabi/5.1.0/../../../../arm-none-eabi/lib/armv7e-m/softfp/libc_nano.a(lib_a-nano-reallocr.o)
                0x000000000800aff4                _realloc_r
 .text._malloc_usable_size_r
                0x000000000800b040       0x14 /usr/lib/gcc/arm-none-eabi/5.1.0/../../../../arm-none-eabi/lib/armv7e-m/softfp/libc_nano.a(lib_a-nano-msizer.o)
                0x000000000800b040                _malloc_usable_size_r
 .text._sbrk    0x000000000800b054       0x1c /usr/lib/gcc/arm-none-eabi/5.1.0/../../../../arm-none-eabi/lib/armv7e-m/softfp/libnosys.a(sbrk.o)
                0x000000000800b054                _sbrk
 *(.init)
 .init          0x000000000800b070        0x4 /usr/lib/gcc/arm-none-eabi/5.1.0/armv7e-m/softfp/crti.o
                0x000000000800b070                _init
 .init          0x000000000800b074        0x8 /usr/lib/gcc/arm-none-eabi/5.1.0/armv7e-m/softfp/crtn.o
 *(.fini)
 .fini          0x000000000800b07c        0x4 /usr/lib/gcc/arm-none-eabi/5.1.0/armv7e-m/softfp/crti.o
                0x000000000800b07c                _fini
 .fini          0x000000000800b080        0x8 /usr/lib/gcc/arm-none-eabi/5.1.0/armv7e-m/softfp/crtn.o
 *crtbegin.o(.ctors)
 *crtbegin?.o(.ctors)
 *(EXCLUDE_FILE(*crtend.o *crtend?.o) .ctors)
 *(SORT(.ctors.*))
 *(.ctors)
 *crtbegin.o(.dtors)
 *crtbegin?.o(.dtors)
 *(EXCLUDE_FILE(*crtend.o *crtend?.o) .dtors)
 *(SORT(.dtors.*))
 *(.dtors)
 *(.rodata*)
 .rodata.APBAHBPrescTable
                0x000000000800b088       0x10 build/stm32f3xx_hal_rcc.o
                0x000000000800b088                APBAHBPrescTable
 .rodata.PLLMULFactorTable
                0x000000000800b098       0x10 build/stm32f3xx_hal_rcc_ex.o
                0x000000000800b098                PLLMULFactorTable
 .rodata.PredivFactorTable
                0x000000000800b0a8       0x10 build/stm32f3xx_hal_rcc_ex.o
                0x000000000800b0a8                PredivFactorTable
 .rodata        0x000000000800b0b8        0x8 build/main.o
 .rodata        0x000000000800b0c0       0x58 build/usbd_desc.o
 .rodata        0x000000000800b118        0xc build/hihatchannel.o
 .rodata.str1.1
                0x000000000800b124        0x2 /usr/lib/gcc/arm-none-eabi/5.1.0/../../../../arm-none-eabi/lib/armv7e-m/softfp/libc_nano.a(lib_a-impure.o)
 .rodata.str1.1
                0x000000000800b126       0x11 /usr/lib/gcc/arm-none-eabi/5.1.0/../../../../arm-none-eabi/lib/armv7e-m/softfp/libc_nano.a(lib_a-nano-svfprintf.o)
 .rodata.str1.1
                0x000000000800b137       0x22 /usr/lib/gcc/arm-none-eabi/5.1.0/../../../../arm-none-eabi/lib/armv7e-m/softfp/libc_nano.a(lib_a-nano-vfprintf_i.o)
 *(.eh_fram e*)

.eh_frame       0x000000000800b15c        0x0
 .eh_frame      0x000000000800b15c        0x0 /usr/lib/gcc/arm-none-eabi/5.1.0/armv7e-m/softfp/crtbegin.o

.glue_7         0x000000000800b15c        0x0
 .glue_7        0x000000000800b15c        0x0 linker stubs

.glue_7t        0x000000000800b15c        0x0
 .glue_7t       0x000000000800b15c        0x0 linker stubs

.vfp11_veneer   0x000000000800b15c        0x0
 .vfp11_veneer  0x000000000800b15c        0x0 linker stubs

.v4_bx          0x000000000800b15c        0x0
 .v4_bx         0x000000000800b15c        0x0 linker stubs

.iplt           0x000000000800b15c        0x0
 .iplt          0x000000000800b15c        0x0 /usr/lib/gcc/arm-none-eabi/5.1.0/armv7e-m/softfp/crtbegin.o

.rel.dyn        0x000000000800b15c        0x0
 .rel.iplt      0x000000000800b15c        0x0 /usr/lib/gcc/arm-none-eabi/5.1.0/armv7e-m/softfp/crtbegin.o

.ARM.extab
 *(.ARM.extab* .gnu.linkonce.armextab.*)
                0x000000000800b15c                __exidx_start = .

.ARM.exidx
 *(.ARM.exidx* .gnu.linkonce.armexidx.*)
                0x000000000800b15c                __exidx_end = .
                0x000000000800b15c                __etext = .
                0x000000000800b159                _sidata = __etext

.data           0x0000000020000000      0x178 load address 0x000000000800b159
                0x0000000020000000                __data_start__ = .
                0x0000000020000000                _sdata = __data_start__
 *(vtable)
 *(.data*)
 .data.SystemCoreClock
                0x0000000020000000        0x4 build/system_stm32f3xx.o
                0x0000000020000000                SystemCoreClock
 .data.USBD_AUDIO
                0x0000000020000004       0x38 build/usbd_audio.o
                0x0000000020000004                USBD_AUDIO
 .data.USBD_AUDIO_CfgDesc
                0x000000002000003c       0x70 build/usbd_audio.o
 .data.USBD_AUDIO_DeviceQualifierDesc
                0x00000000200000ac        0xc build/usbd_audio.o
 .data.USBD_AUDIO_fops_FS
                0x00000000200000b8       0x1c build/usbd_audio_if.o
                0x00000000200000b8                USBD_AUDIO_fops_FS
 .data.FS_Desc  0x00000000200000d4       0x1c build/usbd_desc.o
                0x00000000200000d4                FS_Desc
 .data.USBD_FS_DeviceDesc
                0x00000000200000f0       0x14 build/usbd_desc.o
                0x00000000200000f0                USBD_FS_DeviceDesc
 .data.USBD_LangIDDesc
                0x0000000020000104        0x4 build/usbd_desc.o
                0x0000000020000104                USBD_LangIDDesc
 .data.impure_data
                0x0000000020000108       0x60 /usr/lib/gcc/arm-none-eabi/5.1.0/../../../../arm-none-eabi/lib/armv7e-m/softfp/libc_nano.a(lib_a-impure.o)
 .data._impure_ptr
                0x0000000020000168        0x4 /usr/lib/gcc/arm-none-eabi/5.1.0/../../../../arm-none-eabi/lib/armv7e-m/softfp/libc_nano.a(lib_a-impure.o)
                0x0000000020000168                _impure_ptr
                0x000000002000016c                . = ALIGN (0x4)
                0x000000002000016c                PROVIDE (__preinit_array_start, .)
 *(.preinit_array)
                0x000000002000016c                PROVIDE (__preinit_array_end, .)
                0x000000002000016c                . = ALIGN (0x4)
                0x000000002000016c                PROVIDE (__init_array_start, .)
 *(SORT(.init_array.*))
 *(.init_array)
 .init_array    0x000000002000016c        0x4 /usr/lib/gcc/arm-none-eabi/5.1.0/armv7e-m/softfp/crtbegin.o
                0x0000000020000170                PROVIDE (__init_array_end, .)
                0x0000000020000170                . = ALIGN (0x4)
                0x0000000020000170                PROVIDE (__fini_array_start, .)
 *(SORT(.fini_array.*))
 *(.fini_array)
 .fini_array    0x0000000020000170        0x4 /usr/lib/gcc/arm-none-eabi/5.1.0/armv7e-m/softfp/crtbegin.o
                0x0000000020000174                PROVIDE (__fini_array_end, .)
 *(.jcr*)
 .jcr           0x0000000020000174        0x0 /usr/lib/gcc/arm-none-eabi/5.1.0/armv7e-m/softfp/crtbegin.o
 .jcr           0x0000000020000174        0x4 /usr/lib/gcc/arm-none-eabi/5.1.0/armv7e-m/softfp/crtend.o
                0x0000000020000178                . = ALIGN (0x4)
                0x0000000020000178                __data_end__ = .
                0x0000000020000178                _edata = __data_end__

.igot.plt       0x0000000020000178        0x0 load address 0x000000000800b2d4
 .igot.plt      0x0000000020000178        0x0 /usr/lib/gcc/arm-none-eabi/5.1.0/armv7e-m/softfp/crtbegin.o

.bss            0x0000000020000178     0x2ec4 load address 0x000000000800b2d4
                0x0000000020000178                . = ALIGN (0x4)
                0x0000000020000178                __bss_start__ = .
                0x0000000020000178                _sbss = __bss_start__
 *(.bss*)
 .bss.completed.8346
                0x0000000020000178        0x1 /usr/lib/gcc/arm-none-eabi/5.1.0/armv7e-m/softfp/crtbegin.o
 *fill*         0x0000000020000179        0x3 
 .bss.object.8351
                0x000000002000017c       0x18 /usr/lib/gcc/arm-none-eabi/5.1.0/armv7e-m/softfp/crtbegin.o
 .bss.uwTick    0x0000000020000194        0x4 build/stm32f3xx_hal.o
 .bss.cfgidx.8713
                0x0000000020000198        0x1 build/usbd_ctlreq.o
 *fill*         0x0000000020000199        0x3 
 .bss.ADC12_CLK_ENABLED
                0x000000002000019c        0x4 build/adc.o
 .bss.ADC34_CLK_ENABLED
                0x00000000200001a0        0x4 build/adc.o
 .bss.irqflag_timer1
                0x00000000200001a4        0x4 build/main.o
                0x00000000200001a4                irqflag_timer1
 .bss.irqflag_timer2
                0x00000000200001a8        0x4 build/main.o
                0x00000000200001a8                irqflag_timer2
 .bss.irqflag_btns
                0x00000000200001ac        0xc build/main.o
                0x00000000200001ac                irqflag_btns
 .bss.btnDebounceIRQTimer
                0x00000000200001b8        0xc build/main.o
                0x00000000200001b8                btnDebounceIRQTimer
 .bss.irqcounter.6901
                0x00000000200001c4        0x4 build/stm32f3xx_it.o
 .bss.remotewakeupon
                0x00000000200001c8        0x4 build/usbd_conf.o
                0x00000000200001c8                remotewakeupon
 .bss.mem.8789  0x00000000200001cc     0x1bd0 build/usbd_conf.o
 .bss.__malloc_sbrk_start
                0x0000000020001d9c        0x4 /usr/lib/gcc/arm-none-eabi/5.1.0/../../../../arm-none-eabi/lib/armv7e-m/softfp/libc_nano.a(lib_a-nano-mallocr.o)
                0x0000000020001d9c                __malloc_sbrk_start
 .bss.__malloc_free_list
                0x0000000020001da0        0x4 /usr/lib/gcc/arm-none-eabi/5.1.0/../../../../arm-none-eabi/lib/armv7e-m/softfp/libc_nano.a(lib_a-nano-mallocr.o)
                0x0000000020001da0                __malloc_free_list
 .bss.heap_end.4169
                0x0000000020001da4        0x4 /usr/lib/gcc/arm-none-eabi/5.1.0/../../../../arm-none-eabi/lib/armv7e-m/softfp/libnosys.a(sbrk.o)
 *(COMMON)
 COMMON         0x0000000020001da8      0x210 build/adc.o
                0x0000000020001da8                hdma_adc4
                0x0000000020001de0                hadc2
                0x0000000020001e2c                hdma_adc3
                0x0000000020001e64                hadc1
                0x0000000020001eb0                hadc3
                0x0000000020001efc                hdma_adc1
                0x0000000020001f34                hadc4
                0x0000000020001f80                hdma_adc2
 COMMON         0x0000000020001fb8      0x7f9 build/main.o
                0x0000000020001fb8                adc4Samples
                0x0000000020001fc0                triggerChannelsRim
                0x00000000200022b8                midi_TxBuffer
                0x00000000200022c4                triggerChannelsHead
                0x00000000200025bc                midi_messageBufferReadHead
                0x00000000200025c0                adc2Samples
                0x0000000020002630                hiHatChannels
                0x00000000200026b8                adc1Samples
                0x0000000020002758                adc3Samples
                0x0000000020002788                midi_MessageBuffer
                0x00000000200027b0                midi_messageBufferWriteHead
 *fill*         0x00000000200027b1        0x3 
 COMMON         0x00000000200027b4       0x60 build/spi.o
                0x00000000200027b4                hspi2
 COMMON         0x0000000020002814       0xb4 build/tim.o
                0x0000000020002814                htim3
                0x0000000020002850                htim1
                0x000000002000288c                htim2
 COMMON         0x00000000200028c8       0xd8 build/usart.o
                0x00000000200028c8                huart3
                0x0000000020002934                huart1
 COMMON         0x00000000200029a0      0x224 build/usb_device.o
                0x00000000200029a0                hUsbDeviceFS
 COMMON         0x0000000020002bc4        0x4 build/usbd_audio_if.o
                0x0000000020002bc4                hUsbDevice_0
 COMMON         0x0000000020002bc8      0x220 build/usbd_conf.o
                0x0000000020002bc8                hpcd_USB_FS
 COMMON         0x0000000020002de8      0x200 build/usbd_desc.o
                0x0000000020002de8                USBD_StrDesc
 COMMON         0x0000000020002fe8       0x50 build/hihatchannel.o
                0x0000000020002fe8                buffer
 COMMON         0x0000000020003038        0x4 /usr/lib/gcc/arm-none-eabi/5.1.0/../../../../arm-none-eabi/lib/armv7e-m/softfp/libc_nano.a(lib_a-reent.o)
                0x0000000020003038                errno
                0x000000002000303c                . = ALIGN (0x4)
                0x000000002000303c                __bss_end__ = .
                0x000000002000303c                _ebss = __bss_end__

.heap           0x000000002000303c        0x0
                0x000000002000303c                __end__ = .
                0x000000002000303c                _end = __end__
                0x000000002000303c                end = __end__
 *(.heap*)
                0x000000002000303c                __HeapLimit = .

.co_stack       0x000000002000303c        0x4 load address 0x000000000800e198
                0x0000000020003040                . = ALIGN (0x8)
 *fill*         0x000000002000303c        0x4 
 *(.co_stack .co_stack.*)
                0x000000002000a000                __StackTop = (ORIGIN (RAM) + 0xa000)
                0x0000000020009ffc                __StackLimit = (__StackTop - SIZEOF (.co_stack))
                0x000000002000a000                PROVIDE (__stack, __StackTop)
                0x0000000000000001                ASSERT ((__StackLimit >= __HeapLimit), region ram overflowed with stack)
OUTPUT(build/Voltdrum_Firmware.elf elf32-littlearm)

.ARM.attributes
                0x0000000000000000       0x2e
 .ARM.attributes
                0x0000000000000000       0x22 /usr/lib/gcc/arm-none-eabi/5.1.0/armv7e-m/softfp/crti.o
 .ARM.attributes
                0x0000000000000022       0x32 /usr/lib/gcc/arm-none-eabi/5.1.0/armv7e-m/softfp/crtbegin.o
 .ARM.attributes
                0x0000000000000054       0x37 build/system_stm32f3xx.o
 .ARM.attributes
                0x000000000000008b       0x37 build/stm32f3xx_hal.o
 .ARM.attributes
                0x00000000000000c2       0x37 build/stm32f3xx_hal_adc.o
 .ARM.attributes
                0x00000000000000f9       0x37 build/stm32f3xx_hal_adc_ex.o
 .ARM.attributes
                0x0000000000000130       0x37 build/stm32f3xx_hal_cortex.o
 .ARM.attributes
                0x0000000000000167       0x37 build/stm32f3xx_hal_dma.o
 .ARM.attributes
                0x000000000000019e       0x37 build/stm32f3xx_hal_gpio.o
 .ARM.attributes
                0x00000000000001d5       0x37 build/stm32f3xx_hal_pcd.o
 .ARM.attributes
                0x000000000000020c       0x37 build/stm32f3xx_hal_pcd_ex.o
 .ARM.attributes
                0x0000000000000243       0x37 build/stm32f3xx_hal_rcc.o
 .ARM.attributes
                0x000000000000027a       0x37 build/stm32f3xx_hal_rcc_ex.o
 .ARM.attributes
                0x00000000000002b1       0x37 build/stm32f3xx_hal_spi.o
 .ARM.attributes
                0x00000000000002e8       0x37 build/stm32f3xx_hal_tim.o
 .ARM.attributes
                0x000000000000031f       0x37 build/stm32f3xx_hal_tim_ex.o
 .ARM.attributes
                0x0000000000000356       0x37 build/stm32f3xx_hal_uart.o
 .ARM.attributes
                0x000000000000038d       0x37 build/usbd_audio.o
 .ARM.attributes
                0x00000000000003c4       0x37 build/usbd_core.o
 .ARM.attributes
                0x00000000000003fb       0x37 build/usbd_ctlreq.o
 .ARM.attributes
                0x0000000000000432       0x37 build/usbd_ioreq.o
 .ARM.attributes
                0x0000000000000469       0x37 build/adc.o
 .ARM.attributes
                0x00000000000004a0       0x37 build/gpio.o
 .ARM.attributes
                0x00000000000004d7       0x37 build/main.o
 .ARM.attributes
                0x000000000000050e       0x37 build/spi.o
 .ARM.attributes
                0x0000000000000545       0x37 build/stm32f3xx_hal_msp.o
 .ARM.attributes
                0x000000000000057c       0x37 build/stm32f3xx_it.o
 .ARM.attributes
                0x00000000000005b3       0x37 build/tim.o
 .ARM.attributes
                0x00000000000005ea       0x37 build/usart.o
 .ARM.attributes
                0x0000000000000621       0x37 build/usb_device.o
 .ARM.attributes
                0x0000000000000658       0x37 build/usbd_audio_if.o
 .ARM.attributes
                0x000000000000068f       0x37 build/usbd_conf.o
 .ARM.attributes
                0x00000000000006c6       0x37 build/usbd_desc.o
 .ARM.attributes
                0x00000000000006fd       0x37 build/mcp4251.o
 .ARM.attributes
                0x0000000000000734       0x37 build/dma.o
 .ARM.attributes
                0x000000000000076b       0x37 build/triggerchannel.o
 .ARM.attributes
                0x00000000000007a2       0x37 build/hihatchannel.o
 .ARM.attributes
                0x00000000000007d9       0x37 build/midi.o
 .ARM.attributes
                0x0000000000000810       0x21 build/startup_stm32f303xc.o
 .ARM.attributes
                0x0000000000000831       0x32 /usr/lib/gcc/arm-none-eabi/5.1.0/../../../../arm-none-eabi/lib/armv7e-m/softfp/libc_nano.a(lib_a-impure.o)
 .ARM.attributes
                0x0000000000000863       0x32 /usr/lib/gcc/arm-none-eabi/5.1.0/../../../../arm-none-eabi/lib/armv7e-m/softfp/libc_nano.a(lib_a-init.o)
 .ARM.attributes
                0x0000000000000895       0x32 /usr/lib/gcc/arm-none-eabi/5.1.0/../../../../arm-none-eabi/lib/armv7e-m/softfp/libc_nano.a(lib_a-malloc.o)
 .ARM.attributes
                0x00000000000008c7       0x32 /usr/lib/gcc/arm-none-eabi/5.1.0/../../../../arm-none-eabi/lib/armv7e-m/softfp/libc_nano.a(lib_a-memcpy.o)
 .ARM.attributes
                0x00000000000008f9       0x32 /usr/lib/gcc/arm-none-eabi/5.1.0/../../../../arm-none-eabi/lib/armv7e-m/softfp/libc_nano.a(lib_a-memset.o)
 .ARM.attributes
                0x000000000000092b       0x32 /usr/lib/gcc/arm-none-eabi/5.1.0/../../../../arm-none-eabi/lib/armv7e-m/softfp/libc_nano.a(lib_a-nano-freer.o)
 .ARM.attributes
                0x000000000000095d       0x32 /usr/lib/gcc/arm-none-eabi/5.1.0/../../../../arm-none-eabi/lib/armv7e-m/softfp/libc_nano.a(lib_a-nano-mallocr.o)
 .ARM.attributes
                0x000000000000098f       0x32 /usr/lib/gcc/arm-none-eabi/5.1.0/../../../../arm-none-eabi/lib/armv7e-m/softfp/libc_nano.a(lib_a-sbrkr.o)
 .ARM.attributes
                0x00000000000009c1       0x32 /usr/lib/gcc/arm-none-eabi/5.1.0/../../../../arm-none-eabi/lib/armv7e-m/softfp/libc_nano.a(lib_a-sprintf.o)
 .ARM.attributes
                0x00000000000009f3       0x32 /usr/lib/gcc/arm-none-eabi/5.1.0/../../../../arm-none-eabi/lib/armv7e-m/softfp/libc_nano.a(lib_a-nano-svfprintf.o)
 .ARM.attributes
                0x0000000000000a25       0x32 /usr/lib/gcc/arm-none-eabi/5.1.0/../../../../arm-none-eabi/lib/armv7e-m/softfp/libc_nano.a(lib_a-nano-vfprintf_i.o)
 .ARM.attributes
                0x0000000000000a57       0x32 /usr/lib/gcc/arm-none-eabi/5.1.0/../../../../arm-none-eabi/lib/armv7e-m/softfp/libc_nano.a(lib_a-reent.o)
 .ARM.attributes
                0x0000000000000a89       0x32 /usr/lib/gcc/arm-none-eabi/5.1.0/../../../../arm-none-eabi/lib/armv7e-m/softfp/libc_nano.a(lib_a-memchr.o)
 .ARM.attributes
                0x0000000000000abb       0x32 /usr/lib/gcc/arm-none-eabi/5.1.0/../../../../arm-none-eabi/lib/armv7e-m/softfp/libc_nano.a(lib_a-memmove.o)
 .ARM.attributes
                0x0000000000000aed       0x32 /usr/lib/gcc/arm-none-eabi/5.1.0/../../../../arm-none-eabi/lib/armv7e-m/softfp/libc_nano.a(lib_a-nano-reallocr.o)
 .ARM.attributes
                0x0000000000000b1f       0x32 /usr/lib/gcc/arm-none-eabi/5.1.0/../../../../arm-none-eabi/lib/armv7e-m/softfp/libc_nano.a(lib_a-nano-msizer.o)
 .ARM.attributes
                0x0000000000000b51       0x32 /usr/lib/gcc/arm-none-eabi/5.1.0/../../../../arm-none-eabi/lib/armv7e-m/softfp/libnosys.a(sbrk.o)
 .ARM.attributes
                0x0000000000000b83       0x32 /usr/lib/gcc/arm-none-eabi/5.1.0/armv7e-m/softfp/crtend.o
 .ARM.attributes
                0x0000000000000bb5       0x22 /usr/lib/gcc/arm-none-eabi/5.1.0/armv7e-m/softfp/crtn.o

.comment        0x0000000000000000       0x1d
 .comment       0x0000000000000000       0x1d build/system_stm32f3xx.o
                                         0x1e (size before relaxing)
 .comment       0x000000000000001d       0x1e build/stm32f3xx_hal.o
 .comment       0x000000000000001d       0x1e build/stm32f3xx_hal_adc.o
 .comment       0x000000000000001d       0x1e build/stm32f3xx_hal_adc_ex.o
 .comment       0x000000000000001d       0x1e build/stm32f3xx_hal_cortex.o
 .comment       0x000000000000001d       0x1e build/stm32f3xx_hal_dma.o
 .comment       0x000000000000001d       0x1e build/stm32f3xx_hal_gpio.o
 .comment       0x000000000000001d       0x1e build/stm32f3xx_hal_pcd.o
 .comment       0x000000000000001d       0x1e build/stm32f3xx_hal_pcd_ex.o
 .comment       0x000000000000001d       0x1e build/stm32f3xx_hal_rcc.o
 .comment       0x000000000000001d       0x1e build/stm32f3xx_hal_rcc_ex.o
 .comment       0x000000000000001d       0x1e build/stm32f3xx_hal_spi.o
 .comment       0x000000000000001d       0x1e build/stm32f3xx_hal_tim.o
 .comment       0x000000000000001d       0x1e build/stm32f3xx_hal_tim_ex.o
 .comment       0x000000000000001d       0x1e build/stm32f3xx_hal_uart.o
 .comment       0x000000000000001d       0x1e build/usbd_audio.o
 .comment       0x000000000000001d       0x1e build/usbd_core.o
 .comment       0x000000000000001d       0x1e build/usbd_ctlreq.o
 .comment       0x000000000000001d       0x1e build/usbd_ioreq.o
 .comment       0x000000000000001d       0x1e build/adc.o
 .comment       0x000000000000001d       0x1e build/gpio.o
 .comment       0x000000000000001d       0x1e build/main.o
 .comment       0x000000000000001d       0x1e build/spi.o
 .comment       0x000000000000001d       0x1e build/stm32f3xx_hal_msp.o
 .comment       0x000000000000001d       0x1e build/stm32f3xx_it.o
 .comment       0x000000000000001d       0x1e build/tim.o
 .comment       0x000000000000001d       0x1e build/usart.o
 .comment       0x000000000000001d       0x1e build/usb_device.o
 .comment       0x000000000000001d       0x1e build/usbd_audio_if.o
 .comment       0x000000000000001d       0x1e build/usbd_conf.o
 .comment       0x000000000000001d       0x1e build/usbd_desc.o
 .comment       0x000000000000001d       0x1e build/mcp4251.o
 .comment       0x000000000000001d       0x1e build/dma.o
 .comment       0x000000000000001d       0x1e build/triggerchannel.o
 .comment       0x000000000000001d       0x1e build/hihatchannel.o
 .comment       0x000000000000001d       0x1e build/midi.o

.debug_info     0x0000000000000000    0x1a525
 .debug_info    0x0000000000000000      0x40a build/system_stm32f3xx.o
 .debug_info    0x000000000000040a      0x6e1 build/stm32f3xx_hal.o
 .debug_info    0x0000000000000aeb      0xc18 build/stm32f3xx_hal_adc.o
 .debug_info    0x0000000000001703     0x14d2 build/stm32f3xx_hal_adc_ex.o
 .debug_info    0x0000000000002bd5      0xbda build/stm32f3xx_hal_cortex.o
 .debug_info    0x00000000000037af      0x5de build/stm32f3xx_hal_dma.o
 .debug_info    0x0000000000003d8d      0x6f7 build/stm32f3xx_hal_gpio.o
 .debug_info    0x0000000000004484     0x105a build/stm32f3xx_hal_pcd.o
 .debug_info    0x00000000000054de      0x701 build/stm32f3xx_hal_pcd_ex.o
 .debug_info    0x0000000000005bdf      0xfa9 build/stm32f3xx_hal_rcc.o
 .debug_info    0x0000000000006b88     0x19f2 build/stm32f3xx_hal_rcc_ex.o
 .debug_info    0x000000000000857a     0x1063 build/stm32f3xx_hal_spi.o
 .debug_info    0x00000000000095dd     0x236b build/stm32f3xx_hal_tim.o
 .debug_info    0x000000000000b948     0x132c build/stm32f3xx_hal_tim_ex.o
 .debug_info    0x000000000000cc74     0x1219 build/stm32f3xx_hal_uart.o
 .debug_info    0x000000000000de8d      0xbfd build/usbd_audio.o
 .debug_info    0x000000000000ea8a      0x9df build/usbd_core.o
 .debug_info    0x000000000000f469      0x91a build/usbd_ctlreq.o
 .debug_info    0x000000000000fd83      0x6ff build/usbd_ioreq.o
 .debug_info    0x0000000000010482      0xb04 build/adc.o
 .debug_info    0x0000000000010f86      0x4ca build/gpio.o
 .debug_info    0x0000000000011450     0x1376 build/main.o
 .debug_info    0x00000000000127c6      0x871 build/spi.o
 .debug_info    0x0000000000013037      0x295 build/stm32f3xx_hal_msp.o
 .debug_info    0x00000000000132cc     0x13f2 build/stm32f3xx_it.o
 .debug_info    0x00000000000146be      0x9ce build/tim.o
 .debug_info    0x000000000001508c      0xac4 build/usart.o
 .debug_info    0x0000000000015b50      0x669 build/usb_device.o
 .debug_info    0x00000000000161b9      0x839 build/usbd_audio_if.o
 .debug_info    0x00000000000169f2     0x1468 build/usbd_conf.o
 .debug_info    0x0000000000017e5a      0x3ba build/usbd_desc.o
 .debug_info    0x0000000000018214      0x775 build/mcp4251.o
 .debug_info    0x0000000000018989      0x1a9 build/dma.o
 .debug_info    0x0000000000018b32      0x591 build/triggerchannel.o
 .debug_info    0x00000000000190c3      0xb64 build/hihatchannel.o
 .debug_info    0x0000000000019c27      0x840 build/midi.o
 .debug_info    0x000000000001a467       0xbe build/startup_stm32f303xc.o

.debug_abbrev   0x0000000000000000     0x3ad5
 .debug_abbrev  0x0000000000000000      0x103 build/system_stm32f3xx.o
 .debug_abbrev  0x0000000000000103      0x187 build/stm32f3xx_hal.o
 .debug_abbrev  0x000000000000028a      0x152 build/stm32f3xx_hal_adc.o
 .debug_abbrev  0x00000000000003dc      0x1d2 build/stm32f3xx_hal_adc_ex.o
 .debug_abbrev  0x00000000000005ae      0x26c build/stm32f3xx_hal_cortex.o
 .debug_abbrev  0x000000000000081a      0x1b7 build/stm32f3xx_hal_dma.o
 .debug_abbrev  0x00000000000009d1      0x1a5 build/stm32f3xx_hal_gpio.o
 .debug_abbrev  0x0000000000000b76      0x234 build/stm32f3xx_hal_pcd.o
 .debug_abbrev  0x0000000000000daa      0x187 build/stm32f3xx_hal_pcd_ex.o
 .debug_abbrev  0x0000000000000f31      0x27c build/stm32f3xx_hal_rcc.o
 .debug_abbrev  0x00000000000011ad      0x23a build/stm32f3xx_hal_rcc_ex.o
 .debug_abbrev  0x00000000000013e7      0x1fa build/stm32f3xx_hal_spi.o
 .debug_abbrev  0x00000000000015e1      0x224 build/stm32f3xx_hal_tim.o
 .debug_abbrev  0x0000000000001805      0x1fd build/stm32f3xx_hal_tim_ex.o
 .debug_abbrev  0x0000000000001a02      0x205 build/stm32f3xx_hal_uart.o
 .debug_abbrev  0x0000000000001c07      0x1e3 build/usbd_audio.o
 .debug_abbrev  0x0000000000001dea      0x1b0 build/usbd_core.o
 .debug_abbrev  0x0000000000001f9a      0x1e0 build/usbd_ctlreq.o
 .debug_abbrev  0x000000000000217a      0x120 build/usbd_ioreq.o
 .debug_abbrev  0x000000000000229a      0x17f build/adc.o
 .debug_abbrev  0x0000000000002419      0x110 build/gpio.o
 .debug_abbrev  0x0000000000002529      0x24b build/main.o
 .debug_abbrev  0x0000000000002774      0x16e build/spi.o
 .debug_abbrev  0x00000000000028e2       0x8a build/stm32f3xx_hal_msp.o
 .debug_abbrev  0x000000000000296c      0x188 build/stm32f3xx_it.o
 .debug_abbrev  0x0000000000002af4      0x15f build/tim.o
 .debug_abbrev  0x0000000000002c53      0x177 build/usart.o
 .debug_abbrev  0x0000000000002dca      0x129 build/usb_device.o
 .debug_abbrev  0x0000000000002ef3      0x179 build/usbd_audio_if.o
 .debug_abbrev  0x000000000000306c      0x244 build/usbd_conf.o
 .debug_abbrev  0x00000000000032b0      0x13e build/usbd_desc.o
 .debug_abbrev  0x00000000000033ee      0x15d build/mcp4251.o
 .debug_abbrev  0x000000000000354b       0xa1 build/dma.o
 .debug_abbrev  0x00000000000035ec      0x19d build/triggerchannel.o
 .debug_abbrev  0x0000000000003789      0x1a5 build/hihatchannel.o
 .debug_abbrev  0x000000000000392e      0x195 build/midi.o
 .debug_abbrev  0x0000000000003ac3       0x12 build/startup_stm32f303xc.o

.debug_loc      0x0000000000000000     0xbb4c
 .debug_loc     0x0000000000000000       0xa0 build/system_stm32f3xx.o
 .debug_loc     0x00000000000000a0      0x4f4 build/stm32f3xx_hal.o
 .debug_loc     0x0000000000000594      0x7e8 build/stm32f3xx_hal_adc.o
 .debug_loc     0x0000000000000d7c      0xbd2 build/stm32f3xx_hal_adc_ex.o
 .debug_loc     0x000000000000194e      0x8f8 build/stm32f3xx_hal_cortex.o
 .debug_loc     0x0000000000002246      0x35c build/stm32f3xx_hal_dma.o
 .debug_loc     0x00000000000025a2      0x2d4 build/stm32f3xx_hal_gpio.o
 .debug_loc     0x0000000000002876      0xb7c build/stm32f3xx_hal_pcd.o
 .debug_loc     0x00000000000033f2      0x170 build/stm32f3xx_hal_pcd_ex.o
 .debug_loc     0x0000000000003562      0x426 build/stm32f3xx_hal_rcc.o
 .debug_loc     0x0000000000003988      0x1ba build/stm32f3xx_hal_rcc_ex.o
 .debug_loc     0x0000000000003b42      0xd8c build/stm32f3xx_hal_spi.o
 .debug_loc     0x00000000000048ce     0x22a8 build/stm32f3xx_hal_tim.o
 .debug_loc     0x0000000000006b76      0xe24 build/stm32f3xx_hal_tim_ex.o
 .debug_loc     0x000000000000799a      0xeb0 build/stm32f3xx_hal_uart.o
 .debug_loc     0x000000000000884a      0x560 build/usbd_audio.o
 .debug_loc     0x0000000000008daa      0x6a0 build/usbd_core.o
 .debug_loc     0x000000000000944a      0x478 build/usbd_ctlreq.o
 .debug_loc     0x00000000000098c2      0x230 build/usbd_ioreq.o
 .debug_loc     0x0000000000009af2      0x1e0 build/adc.o
 .debug_loc     0x0000000000009cd2       0x50 build/gpio.o
 .debug_loc     0x0000000000009d22      0x39a build/main.o
 .debug_loc     0x000000000000a0bc       0xcc build/spi.o
 .debug_loc     0x000000000000a188       0x2c build/stm32f3xx_hal_msp.o
 .debug_loc     0x000000000000a1b4      0x18c build/stm32f3xx_it.o
 .debug_loc     0x000000000000a340      0x190 build/tim.o
 .debug_loc     0x000000000000a4d0       0xf8 build/usart.o
 .debug_loc     0x000000000000a5c8       0x2c build/usb_device.o
 .debug_loc     0x000000000000a5f4      0x2c4 build/usbd_audio_if.o
 .debug_loc     0x000000000000a8b8      0xa00 build/usbd_conf.o
 .debug_loc     0x000000000000b2b8      0x248 build/usbd_desc.o
 .debug_loc     0x000000000000b500       0x50 build/mcp4251.o
 .debug_loc     0x000000000000b550       0x44 build/dma.o
 .debug_loc     0x000000000000b594      0x350 build/triggerchannel.o
 .debug_loc     0x000000000000b8e4       0xfc build/hihatchannel.o
 .debug_loc     0x000000000000b9e0      0x16c build/midi.o

.debug_aranges  0x0000000000000000     0x15c0
 .debug_aranges
                0x0000000000000000       0x28 build/system_stm32f3xx.o
 .debug_aranges
                0x0000000000000028       0xb0 build/stm32f3xx_hal.o
 .debug_aranges
                0x00000000000000d8       0xc8 build/stm32f3xx_hal_adc.o
 .debug_aranges
                0x00000000000001a0      0x138 build/stm32f3xx_hal_adc_ex.o
 .debug_aranges
                0x00000000000002d8      0x100 build/stm32f3xx_hal_cortex.o
 .debug_aranges
                0x00000000000003d8       0x68 build/stm32f3xx_hal_dma.o
 .debug_aranges
                0x0000000000000440       0x58 build/stm32f3xx_hal_gpio.o
 .debug_aranges
                0x0000000000000498      0x120 build/stm32f3xx_hal_pcd.o
 .debug_aranges
                0x00000000000005b8       0x38 build/stm32f3xx_hal_pcd_ex.o
 .debug_aranges
                0x00000000000005f0       0x88 build/stm32f3xx_hal_rcc.o
 .debug_aranges
                0x0000000000000678       0x40 build/stm32f3xx_hal_rcc_ex.o
 .debug_aranges
                0x00000000000006b8      0x168 build/stm32f3xx_hal_spi.o
 .debug_aranges
                0x0000000000000820      0x358 build/stm32f3xx_hal_tim.o
 .debug_aranges
                0x0000000000000b78      0x170 build/stm32f3xx_hal_tim_ex.o
 .debug_aranges
                0x0000000000000ce8      0x178 build/stm32f3xx_hal_uart.o
 .debug_aranges
                0x0000000000000e60       0x98 build/usbd_audio.o
 .debug_aranges
                0x0000000000000ef8       0xb8 build/usbd_core.o
 .debug_aranges
                0x0000000000000fb0       0x88 build/usbd_ctlreq.o
 .debug_aranges
                0x0000000000001038       0x50 build/usbd_ioreq.o
 .debug_aranges
                0x0000000000001088       0x48 build/adc.o
 .debug_aranges
                0x00000000000010d0       0x20 build/gpio.o
 .debug_aranges
                0x00000000000010f0       0x80 build/main.o
 .debug_aranges
                0x0000000000001170       0x30 build/spi.o
 .debug_aranges
                0x00000000000011a0       0x20 build/stm32f3xx_hal_msp.o
 .debug_aranges
                0x00000000000011c0       0x60 build/stm32f3xx_it.o
 .debug_aranges
                0x0000000000001220       0x40 build/tim.o
 .debug_aranges
                0x0000000000001260       0x38 build/usart.o
 .debug_aranges
                0x0000000000001298       0x20 build/usb_device.o
 .debug_aranges
                0x00000000000012b8       0x60 build/usbd_audio_if.o
 .debug_aranges
                0x0000000000001318      0x118 build/usbd_conf.o
 .debug_aranges
                0x0000000000001430       0x50 build/usbd_desc.o
 .debug_aranges
                0x0000000000001480       0x20 build/mcp4251.o
 .debug_aranges
                0x00000000000014a0       0x20 build/dma.o
 .debug_aranges
                0x00000000000014c0       0x68 build/triggerchannel.o
 .debug_aranges
                0x0000000000001528       0x30 build/hihatchannel.o
 .debug_aranges
                0x0000000000001558       0x40 build/midi.o
 .debug_aranges
                0x0000000000001598       0x28 build/startup_stm32f303xc.o

.debug_ranges   0x0000000000000000     0x1378
 .debug_ranges  0x0000000000000000       0x18 build/system_stm32f3xx.o
 .debug_ranges  0x0000000000000018       0xa0 build/stm32f3xx_hal.o
 .debug_ranges  0x00000000000000b8       0xb8 build/stm32f3xx_hal_adc.o
 .debug_ranges  0x0000000000000170      0x128 build/stm32f3xx_hal_adc_ex.o
 .debug_ranges  0x0000000000000298       0xf0 build/stm32f3xx_hal_cortex.o
 .debug_ranges  0x0000000000000388       0x58 build/stm32f3xx_hal_dma.o
 .debug_ranges  0x00000000000003e0       0x48 build/stm32f3xx_hal_gpio.o
 .debug_ranges  0x0000000000000428      0x110 build/stm32f3xx_hal_pcd.o
 .debug_ranges  0x0000000000000538       0x28 build/stm32f3xx_hal_pcd_ex.o
 .debug_ranges  0x0000000000000560       0x78 build/stm32f3xx_hal_rcc.o
 .debug_ranges  0x00000000000005d8       0x30 build/stm32f3xx_hal_rcc_ex.o
 .debug_ranges  0x0000000000000608      0x158 build/stm32f3xx_hal_spi.o
 .debug_ranges  0x0000000000000760      0x348 build/stm32f3xx_hal_tim.o
 .debug_ranges  0x0000000000000aa8      0x160 build/stm32f3xx_hal_tim_ex.o
 .debug_ranges  0x0000000000000c08      0x168 build/stm32f3xx_hal_uart.o
 .debug_ranges  0x0000000000000d70       0x88 build/usbd_audio.o
 .debug_ranges  0x0000000000000df8       0xa8 build/usbd_core.o
 .debug_ranges  0x0000000000000ea0       0x78 build/usbd_ctlreq.o
 .debug_ranges  0x0000000000000f18       0x40 build/usbd_ioreq.o
 .debug_ranges  0x0000000000000f58       0x38 build/adc.o
 .debug_ranges  0x0000000000000f90       0x10 build/gpio.o
 .debug_ranges  0x0000000000000fa0       0x70 build/main.o
 .debug_ranges  0x0000000000001010       0x20 build/spi.o
 .debug_ranges  0x0000000000001030       0x10 build/stm32f3xx_hal_msp.o
 .debug_ranges  0x0000000000001040       0x50 build/stm32f3xx_it.o
 .debug_ranges  0x0000000000001090       0x30 build/tim.o
 .debug_ranges  0x00000000000010c0       0x28 build/usart.o
 .debug_ranges  0x00000000000010e8       0x10 build/usb_device.o
 .debug_ranges  0x00000000000010f8       0x50 build/usbd_audio_if.o
 .debug_ranges  0x0000000000001148      0x108 build/usbd_conf.o
 .debug_ranges  0x0000000000001250       0x40 build/usbd_desc.o
 .debug_ranges  0x0000000000001290       0x10 build/mcp4251.o
 .debug_ranges  0x00000000000012a0       0x10 build/dma.o
 .debug_ranges  0x00000000000012b0       0x58 build/triggerchannel.o
 .debug_ranges  0x0000000000001308       0x20 build/hihatchannel.o
 .debug_ranges  0x0000000000001328       0x30 build/midi.o
 .debug_ranges  0x0000000000001358       0x20 build/startup_stm32f303xc.o

.debug_line     0x0000000000000000     0xa7f3
 .debug_line    0x0000000000000000      0x16b build/system_stm32f3xx.o
 .debug_line    0x000000000000016b      0x2b4 build/stm32f3xx_hal.o
 .debug_line    0x000000000000041f      0x31c build/stm32f3xx_hal_adc.o
 .debug_line    0x000000000000073b      0xf70 build/stm32f3xx_hal_adc_ex.o
 .debug_line    0x00000000000016ab      0x3f2 build/stm32f3xx_hal_cortex.o
 .debug_line    0x0000000000001a9d     0x105d build/stm32f3xx_hal_dma.o
 .debug_line    0x0000000000002afa      0x2ec build/stm32f3xx_hal_gpio.o
 .debug_line    0x0000000000002de6      0x776 build/stm32f3xx_hal_pcd.o
 .debug_line    0x000000000000355c      0x201 build/stm32f3xx_hal_pcd_ex.o
 .debug_line    0x000000000000375d      0x5ff build/stm32f3xx_hal_rcc.o
 .debug_line    0x0000000000003d5c      0xa8a build/stm32f3xx_hal_rcc_ex.o
 .debug_line    0x00000000000047e6      0xa50 build/stm32f3xx_hal_spi.o
 .debug_line    0x0000000000005236     0x13b0 build/stm32f3xx_hal_tim.o
 .debug_line    0x00000000000065e6      0x8c0 build/stm32f3xx_hal_tim_ex.o
 .debug_line    0x0000000000006ea6      0x99b build/stm32f3xx_hal_uart.o
 .debug_line    0x0000000000007841      0x302 build/usbd_audio.o
 .debug_line    0x0000000000007b43      0x313 build/usbd_core.o
 .debug_line    0x0000000000007e56      0x36c build/usbd_ctlreq.o
 .debug_line    0x00000000000081c2      0x1b0 build/usbd_ioreq.o
 .debug_line    0x0000000000008372      0x327 build/adc.o
 .debug_line    0x0000000000008699      0x151 build/gpio.o
 .debug_line    0x00000000000087ea      0x421 build/main.o
 .debug_line    0x0000000000008c0b      0x1bb build/spi.o
 .debug_line    0x0000000000008dc6      0x10c build/stm32f3xx_hal_msp.o
 .debug_line    0x0000000000008ed2      0x29e build/stm32f3xx_it.o
 .debug_line    0x0000000000009170      0x20c build/tim.o
 .debug_line    0x000000000000937c      0x1ec build/usart.o
 .debug_line    0x0000000000009568      0x179 build/usb_device.o
 .debug_line    0x00000000000096e1      0x1e8 build/usbd_audio_if.o
 .debug_line    0x00000000000098c9      0x423 build/usbd_conf.o
 .debug_line    0x0000000000009cec      0x183 build/usbd_desc.o
 .debug_line    0x0000000000009e6f      0x190 build/mcp4251.o
 .debug_line    0x0000000000009fff       0xfe build/dma.o
 .debug_line    0x000000000000a0fd      0x240 build/triggerchannel.o
 .debug_line    0x000000000000a33d      0x229 build/hihatchannel.o
 .debug_line    0x000000000000a566      0x1e2 build/midi.o
 .debug_line    0x000000000000a748       0xab build/startup_stm32f303xc.o

.debug_str      0x0000000000000000     0x5f6e
 .debug_str     0x0000000000000000      0x296 build/system_stm32f3xx.o
                                        0x2f6 (size before relaxing)
 .debug_str     0x0000000000000296      0x646 build/stm32f3xx_hal.o
                                        0x833 (size before relaxing)
 .debug_str     0x00000000000008dc      0x716 build/stm32f3xx_hal_adc.o
                                        0x9b8 (size before relaxing)
 .debug_str     0x0000000000000ff2      0x5ac build/stm32f3xx_hal_adc_ex.o
                                        0xea9 (size before relaxing)
 .debug_str     0x000000000000159e      0x297 build/stm32f3xx_hal_cortex.o
                                        0xa00 (size before relaxing)
 .debug_str     0x0000000000001835      0x145 build/stm32f3xx_hal_dma.o
                                        0x4f3 (size before relaxing)
 .debug_str     0x000000000000197a      0x1dd build/stm32f3xx_hal_gpio.o
                                        0x446 (size before relaxing)
 .debug_str     0x0000000000001b57      0x547 build/stm32f3xx_hal_pcd.o
                                        0x7fe (size before relaxing)
 .debug_str     0x000000000000209e       0xbf build/stm32f3xx_hal_pcd_ex.o
                                        0x533 (size before relaxing)
 .debug_str     0x000000000000215d      0x2b4 build/stm32f3xx_hal_rcc.o
                                        0x5bf (size before relaxing)
 .debug_str     0x0000000000002411      0x215 build/stm32f3xx_hal_rcc_ex.o
                                        0x561 (size before relaxing)
 .debug_str     0x0000000000002626      0x635 build/stm32f3xx_hal_spi.o
                                        0xa3e (size before relaxing)
 .debug_str     0x0000000000002c5b      0xe82 build/stm32f3xx_hal_tim.o
                                       0x12a6 (size before relaxing)
 .debug_str     0x0000000000003add      0x5d7 build/stm32f3xx_hal_tim_ex.o
                                        0xd14 (size before relaxing)
 .debug_str     0x00000000000040b4      0x785 build/stm32f3xx_hal_uart.o
                                        0xc59 (size before relaxing)
 .debug_str     0x0000000000004839      0x65c build/usbd_audio.o
                                        0x8c6 (size before relaxing)
 .debug_str     0x0000000000004e95      0x1c5 build/usbd_core.o
                                        0x73d (size before relaxing)
 .debug_str     0x000000000000505a      0x12c build/usbd_ctlreq.o
                                        0x6c3 (size before relaxing)
 .debug_str     0x0000000000005186       0xc6 build/usbd_ioreq.o
                                        0x64b (size before relaxing)
 .debug_str     0x000000000000524c       0xb2 build/adc.o
                                        0x8bc (size before relaxing)
 .debug_str     0x00000000000052fe       0x18 build/gpio.o
                                        0x6a5 (size before relaxing)
 .debug_str     0x0000000000005316      0x444 build/main.o
                                       0x1023 (size before relaxing)
 .debug_str     0x000000000000575a       0x1d build/spi.o
                                        0x724 (size before relaxing)
 .debug_str     0x0000000000005777       0x18 build/stm32f3xx_hal_msp.o
                                        0x5d6 (size before relaxing)
 .debug_str     0x000000000000578f       0xd2 build/stm32f3xx_it.o
                                        0xf1f (size before relaxing)
 .debug_str     0x0000000000005861       0x3b build/tim.o
                                        0xada (size before relaxing)
 .debug_str     0x000000000000589c       0x34 build/usart.o
                                        0xbc3 (size before relaxing)
 .debug_str     0x00000000000058d0       0x4c build/usb_device.o
                                        0x5f0 (size before relaxing)
 .debug_str     0x000000000000591c       0xea build/usbd_audio_if.o
                                        0x742 (size before relaxing)
 .debug_str     0x0000000000005a06      0x15b build/usbd_conf.o
                                        0xfd2 (size before relaxing)
 .debug_str     0x0000000000005b61      0x10b build/usbd_desc.o
                                        0x3da (size before relaxing)
 .debug_str     0x0000000000005c6c       0x45 build/mcp4251.o
                                        0x6cc (size before relaxing)
 .debug_str     0x0000000000005cb1       0x16 build/dma.o
                                        0x1f8 (size before relaxing)
 .debug_str     0x0000000000005cc7      0x1c8 build/triggerchannel.o
                                        0x520 (size before relaxing)
 .debug_str     0x0000000000005e8f       0x73 build/hihatchannel.o
                                        0xa35 (size before relaxing)
 .debug_str     0x0000000000005f02       0x6c build/midi.o
                                        0x78e (size before relaxing)

.debug_frame    0x0000000000000000     0x5fb0
 .debug_frame   0x0000000000000000       0x5c build/system_stm32f3xx.o
 .debug_frame   0x000000000000005c      0x2b4 build/stm32f3xx_hal.o
 .debug_frame   0x0000000000000310      0x380 build/stm32f3xx_hal_adc.o
 .debug_frame   0x0000000000000690      0x5c4 build/stm32f3xx_hal_adc_ex.o
 .debug_frame   0x0000000000000c54      0x460 build/stm32f3xx_hal_cortex.o
 .debug_frame   0x00000000000010b4      0x1a4 build/stm32f3xx_hal_dma.o
 .debug_frame   0x0000000000001258      0x154 build/stm32f3xx_hal_gpio.o
 .debug_frame   0x00000000000013ac      0x568 build/stm32f3xx_hal_pcd.o
 .debug_frame   0x0000000000001914       0xb0 build/stm32f3xx_hal_pcd_ex.o
 .debug_frame   0x00000000000019c4      0x220 build/stm32f3xx_hal_rcc.o
 .debug_frame   0x0000000000001be4       0xdc build/stm32f3xx_hal_rcc_ex.o
 .debug_frame   0x0000000000001cc0      0x6a0 build/stm32f3xx_hal_spi.o
 .debug_frame   0x0000000000002360     0x1050 build/stm32f3xx_hal_tim.o
 .debug_frame   0x00000000000033b0      0x6c8 build/stm32f3xx_hal_tim_ex.o
 .debug_frame   0x0000000000003a78      0x6f4 build/stm32f3xx_hal_uart.o
 .debug_frame   0x000000000000416c      0x290 build/usbd_audio.o
 .debug_frame   0x00000000000043fc      0x330 build/usbd_core.o
 .debug_frame   0x000000000000472c      0x240 build/usbd_ctlreq.o
 .debug_frame   0x000000000000496c      0x128 build/usbd_ioreq.o
 .debug_frame   0x0000000000004a94      0x100 build/adc.o
 .debug_frame   0x0000000000004b94       0x38 build/gpio.o
 .debug_frame   0x0000000000004bcc      0x1fc build/main.o
 .debug_frame   0x0000000000004dc8       0x7c build/spi.o
 .debug_frame   0x0000000000004e44       0x2c build/stm32f3xx_hal_msp.o
 .debug_frame   0x0000000000004e70      0x10c build/stm32f3xx_it.o
 .debug_frame   0x0000000000004f7c       0xd8 build/tim.o
 .debug_frame   0x0000000000005054       0x98 build/usart.o
 .debug_frame   0x00000000000050ec       0x2c build/usb_device.o
 .debug_frame   0x0000000000005118      0x15c build/usbd_audio_if.o
 .debug_frame   0x0000000000005274      0x504 build/usbd_conf.o
 .debug_frame   0x0000000000005778      0x128 build/usbd_desc.o
 .debug_frame   0x00000000000058a0       0x38 build/mcp4251.o
 .debug_frame   0x00000000000058d8       0x34 build/dma.o
 .debug_frame   0x000000000000590c      0x1a0 build/triggerchannel.o
 .debug_frame   0x0000000000005aac       0x88 build/hihatchannel.o
 .debug_frame   0x0000000000005b34       0xcc build/midi.o
 .debug_frame   0x0000000000005c00       0x2c /usr/lib/gcc/arm-none-eabi/5.1.0/../../../../arm-none-eabi/lib/armv7e-m/softfp/libc_nano.a(lib_a-init.o)
 .debug_frame   0x0000000000005c2c       0x30 /usr/lib/gcc/arm-none-eabi/5.1.0/../../../../arm-none-eabi/lib/armv7e-m/softfp/libc_nano.a(lib_a-malloc.o)
 .debug_frame   0x0000000000005c5c       0x28 /usr/lib/gcc/arm-none-eabi/5.1.0/../../../../arm-none-eabi/lib/armv7e-m/softfp/libc_nano.a(lib_a-memcpy.o)
 .debug_frame   0x0000000000005c84       0x20 /usr/lib/gcc/arm-none-eabi/5.1.0/../../../../arm-none-eabi/lib/armv7e-m/softfp/libc_nano.a(lib_a-memset.o)
 .debug_frame   0x0000000000005ca4       0x2c /usr/lib/gcc/arm-none-eabi/5.1.0/../../../../arm-none-eabi/lib/armv7e-m/softfp/libc_nano.a(lib_a-nano-freer.o)
 .debug_frame   0x0000000000005cd0       0x2c /usr/lib/gcc/arm-none-eabi/5.1.0/../../../../arm-none-eabi/lib/armv7e-m/softfp/libc_nano.a(lib_a-nano-mallocr.o)
 .debug_frame   0x0000000000005cfc       0x2c /usr/lib/gcc/arm-none-eabi/5.1.0/../../../../arm-none-eabi/lib/armv7e-m/softfp/libc_nano.a(lib_a-sbrkr.o)
 .debug_frame   0x0000000000005d28       0x70 /usr/lib/gcc/arm-none-eabi/5.1.0/../../../../arm-none-eabi/lib/armv7e-m/softfp/libc_nano.a(lib_a-sprintf.o)
 .debug_frame   0x0000000000005d98       0x90 /usr/lib/gcc/arm-none-eabi/5.1.0/../../../../arm-none-eabi/lib/armv7e-m/softfp/libc_nano.a(lib_a-nano-svfprintf.o)
 .debug_frame   0x0000000000005e28       0x60 /usr/lib/gcc/arm-none-eabi/5.1.0/../../../../arm-none-eabi/lib/armv7e-m/softfp/libc_nano.a(lib_a-nano-vfprintf_i.o)
 .debug_frame   0x0000000000005e88       0x5c /usr/lib/gcc/arm-none-eabi/5.1.0/../../../../arm-none-eabi/lib/armv7e-m/softfp/libc_nano.a(lib_a-reent.o)
 .debug_frame   0x0000000000005ee4       0x28 /usr/lib/gcc/arm-none-eabi/5.1.0/../../../../arm-none-eabi/lib/armv7e-m/softfp/libc_nano.a(lib_a-memchr.o)
 .debug_frame   0x0000000000005f0c       0x28 /usr/lib/gcc/arm-none-eabi/5.1.0/../../../../arm-none-eabi/lib/armv7e-m/softfp/libc_nano.a(lib_a-memmove.o)
 .debug_frame   0x0000000000005f34       0x3c /usr/lib/gcc/arm-none-eabi/5.1.0/../../../../arm-none-eabi/lib/armv7e-m/softfp/libc_nano.a(lib_a-nano-reallocr.o)
 .debug_frame   0x0000000000005f70       0x20 /usr/lib/gcc/arm-none-eabi/5.1.0/../../../../arm-none-eabi/lib/armv7e-m/softfp/libc_nano.a(lib_a-nano-msizer.o)
 .debug_frame   0x0000000000005f90       0x20 /usr/lib/gcc/arm-none-eabi/5.1.0/../../../../arm-none-eabi/lib/armv7e-m/softfp/libnosys.a(sbrk.o)

Cross Reference Table

Symbol                                            File
ADC1_2_IRQHandler                                 build/startup_stm32f303xc.o
ADC3_IRQHandler                                   build/startup_stm32f303xc.o
ADC4_IRQHandler                                   build/startup_stm32f303xc.o
AHBPrescTable                                     build/system_stm32f3xx.o
APBAHBPrescTable                                  build/stm32f3xx_hal_rcc.o
BusFault_Handler                                  build/startup_stm32f303xc.o
CAN_RX1_IRQHandler                                build/startup_stm32f303xc.o
CAN_SCE_IRQHandler                                build/startup_stm32f303xc.o
COMP1_2_3_IRQHandler                              build/startup_stm32f303xc.o
COMP4_5_6_IRQHandler                              build/startup_stm32f303xc.o
COMP7_IRQHandler                                  build/startup_stm32f303xc.o
DMA1_Channel1_IRQHandler                          build/startup_stm32f303xc.o
DMA1_Channel2_IRQHandler                          build/startup_stm32f303xc.o
DMA1_Channel3_IRQHandler                          build/startup_stm32f303xc.o
DMA1_Channel4_IRQHandler                          build/startup_stm32f303xc.o
DMA1_Channel5_IRQHandler                          build/startup_stm32f303xc.o
DMA1_Channel6_IRQHandler                          build/startup_stm32f303xc.o
DMA1_Channel7_IRQHandler                          build/startup_stm32f303xc.o
DMA2_Channel1_IRQHandler                          build/startup_stm32f303xc.o
DMA2_Channel2_IRQHandler                          build/startup_stm32f303xc.o
DMA2_Channel3_IRQHandler                          build/startup_stm32f303xc.o
DMA2_Channel4_IRQHandler                          build/startup_stm32f303xc.o
DMA2_Channel5_IRQHandler                          build/startup_stm32f303xc.o
DebugMon_Handler                                  build/startup_stm32f303xc.o
Default_Handler                                   build/startup_stm32f303xc.o
EXTI0_IRQHandler                                  build/startup_stm32f303xc.o
EXTI15_10_IRQHandler                              build/stm32f3xx_it.o
EXTI1_IRQHandler                                  build/startup_stm32f303xc.o
EXTI2_TSC_IRQHandler                              build/startup_stm32f303xc.o
EXTI3_IRQHandler                                  build/startup_stm32f303xc.o
EXTI4_IRQHandler                                  build/startup_stm32f303xc.o
EXTI9_5_IRQHandler                                build/startup_stm32f303xc.o
FLASH_IRQHandler                                  build/startup_stm32f303xc.o
FLASH_PageErase                                   build/stm32f3xx_hal_flash.o
                                                  build/stm32f3xx_hal_flash_ex.o
FLASH_WaitForLastOperation                        build/stm32f3xx_hal_flash.o
                                                  build/stm32f3xx_hal_flash_ex.o
FPU_IRQHandler                                    build/startup_stm32f303xc.o
FS_Desc                                           build/usbd_desc.o
                                                  build/usb_device.o
HAL_ADCEx_Calibration_GetValue                    build/stm32f3xx_hal_adc_ex.o
HAL_ADCEx_Calibration_SetValue                    build/stm32f3xx_hal_adc_ex.o
HAL_ADCEx_Calibration_Start                       build/stm32f3xx_hal_adc_ex.o
HAL_ADCEx_InjectedConfigChannel                   build/stm32f3xx_hal_adc_ex.o
HAL_ADCEx_InjectedConvCpltCallback                build/stm32f3xx_hal_adc_ex.o
HAL_ADCEx_InjectedGetValue                        build/stm32f3xx_hal_adc_ex.o
HAL_ADCEx_InjectedPollForConversion               build/stm32f3xx_hal_adc_ex.o
HAL_ADCEx_InjectedQueueOverflowCallback           build/stm32f3xx_hal_adc_ex.o
HAL_ADCEx_InjectedStart                           build/stm32f3xx_hal_adc_ex.o
HAL_ADCEx_InjectedStart_IT                        build/stm32f3xx_hal_adc_ex.o
HAL_ADCEx_InjectedStop                            build/stm32f3xx_hal_adc_ex.o
HAL_ADCEx_InjectedStop_IT                         build/stm32f3xx_hal_adc_ex.o
HAL_ADCEx_MultiModeConfigChannel                  build/stm32f3xx_hal_adc_ex.o
HAL_ADCEx_MultiModeGetValue                       build/stm32f3xx_hal_adc_ex.o
HAL_ADCEx_MultiModeStart_DMA                      build/stm32f3xx_hal_adc_ex.o
HAL_ADCEx_MultiModeStop_DMA                       build/stm32f3xx_hal_adc_ex.o
HAL_ADC_AnalogWDGConfig                           build/stm32f3xx_hal_adc_ex.o
                                                  build/stm32f3xx_hal_adc.o
HAL_ADC_ConfigChannel                             build/stm32f3xx_hal_adc_ex.o
                                                  build/stm32f3xx_hal_adc.o
                                                  build/adc.o
HAL_ADC_ConvCpltCallback                          build/stm32f3xx_hal_adc.o
                                                  build/stm32f3xx_hal_adc_ex.o
HAL_ADC_ConvHalfCpltCallback                      build/stm32f3xx_hal_adc.o
                                                  build/stm32f3xx_hal_adc_ex.o
HAL_ADC_DeInit                                    build/stm32f3xx_hal_adc_ex.o
                                                  build/stm32f3xx_hal_adc.o
HAL_ADC_ErrorCallback                             build/stm32f3xx_hal_adc.o
                                                  build/stm32f3xx_hal_adc_ex.o
HAL_ADC_GetError                                  build/stm32f3xx_hal_adc.o
HAL_ADC_GetState                                  build/stm32f3xx_hal_adc.o
HAL_ADC_GetValue                                  build/stm32f3xx_hal_adc_ex.o
                                                  build/stm32f3xx_hal_adc.o
HAL_ADC_IRQHandler                                build/stm32f3xx_hal_adc_ex.o
                                                  build/stm32f3xx_hal_adc.o
HAL_ADC_Init                                      build/stm32f3xx_hal_adc_ex.o
                                                  build/stm32f3xx_hal_adc.o
                                                  build/adc.o
HAL_ADC_LevelOutOfWindowCallback                  build/stm32f3xx_hal_adc.o
                                                  build/stm32f3xx_hal_adc_ex.o
HAL_ADC_MspDeInit                                 build/adc.o
                                                  build/stm32f3xx_hal_adc.o
                                                  build/stm32f3xx_hal_adc_ex.o
HAL_ADC_MspInit                                   build/adc.o
                                                  build/stm32f3xx_hal_adc.o
                                                  build/stm32f3xx_hal_adc_ex.o
HAL_ADC_PollForConversion                         build/stm32f3xx_hal_adc_ex.o
                                                  build/stm32f3xx_hal_adc.o
HAL_ADC_PollForEvent                              build/stm32f3xx_hal_adc_ex.o
                                                  build/stm32f3xx_hal_adc.o
HAL_ADC_Start                                     build/stm32f3xx_hal_adc_ex.o
                                                  build/stm32f3xx_hal_adc.o
HAL_ADC_Start_DMA                                 build/stm32f3xx_hal_adc_ex.o
                                                  build/stm32f3xx_hal_adc.o
                                                  build/stm32f3xx_it.o
HAL_ADC_Start_IT                                  build/stm32f3xx_hal_adc_ex.o
                                                  build/stm32f3xx_hal_adc.o
HAL_ADC_Stop                                      build/stm32f3xx_hal_adc_ex.o
                                                  build/stm32f3xx_hal_adc.o
HAL_ADC_Stop_DMA                                  build/stm32f3xx_hal_adc_ex.o
                                                  build/stm32f3xx_hal_adc.o
HAL_ADC_Stop_IT                                   build/stm32f3xx_hal_adc_ex.o
                                                  build/stm32f3xx_hal_adc.o
HAL_DMA_Abort                                     build/stm32f3xx_hal_dma.o
                                                  build/stm32f3xx_hal_uart.o
                                                  build/stm32f3xx_hal_tim.o
                                                  build/stm32f3xx_hal_adc_ex.o
HAL_DMA_DeInit                                    build/stm32f3xx_hal_dma.o
                                                  build/adc.o
HAL_DMA_GetError                                  build/stm32f3xx_hal_dma.o
HAL_DMA_GetState                                  build/stm32f3xx_hal_dma.o
HAL_DMA_IRQHandler                                build/stm32f3xx_hal_dma.o
HAL_DMA_Init                                      build/stm32f3xx_hal_dma.o
                                                  build/adc.o
HAL_DMA_PollForTransfer                           build/stm32f3xx_hal_dma.o
HAL_DMA_Start                                     build/stm32f3xx_hal_dma.o
HAL_DMA_Start_IT                                  build/stm32f3xx_hal_dma.o
                                                  build/stm32f3xx_hal_uart.o
                                                  build/stm32f3xx_hal_tim_ex.o
                                                  build/stm32f3xx_hal_tim.o
                                                  build/stm32f3xx_hal_spi.o
                                                  build/stm32f3xx_hal_adc_ex.o
HAL_DeInit                                        build/stm32f3xx_hal.o
HAL_Delay                                         build/stm32f3xx_hal.o
                                                  build/usbd_conf.o
                                                  build/main.o
HAL_DisableDBGSleepMode                           build/stm32f3xx_hal.o
HAL_DisableDBGStandbyMode                         build/stm32f3xx_hal.o
HAL_DisableDBGStopMode                            build/stm32f3xx_hal.o
HAL_EnableDBGSleepMode                            build/stm32f3xx_hal.o
HAL_EnableDBGStandbyMode                          build/stm32f3xx_hal.o
HAL_EnableDBGStopMode                             build/stm32f3xx_hal.o
HAL_FLASHEx_Erase                                 build/stm32f3xx_hal_flash_ex.o
HAL_FLASHEx_Erase_IT                              build/stm32f3xx_hal_flash_ex.o
HAL_FLASHEx_OBErase                               build/stm32f3xx_hal_flash_ex.o
HAL_FLASHEx_OBGetConfig                           build/stm32f3xx_hal_flash_ex.o
HAL_FLASHEx_OBProgram                             build/stm32f3xx_hal_flash_ex.o
HAL_FLASH_EndOfOperationCallback                  build/stm32f3xx_hal_flash.o
HAL_FLASH_GetError                                build/stm32f3xx_hal_flash.o
HAL_FLASH_IRQHandler                              build/stm32f3xx_hal_flash.o
HAL_FLASH_Lock                                    build/stm32f3xx_hal_flash.o
HAL_FLASH_OB_Launch                               build/stm32f3xx_hal_flash.o
HAL_FLASH_OB_Lock                                 build/stm32f3xx_hal_flash.o
HAL_FLASH_OB_Unlock                               build/stm32f3xx_hal_flash.o
HAL_FLASH_OperationErrorCallback                  build/stm32f3xx_hal_flash.o
HAL_FLASH_Program                                 build/stm32f3xx_hal_flash.o
HAL_FLASH_Program_IT                              build/stm32f3xx_hal_flash.o
HAL_FLASH_Unlock                                  build/stm32f3xx_hal_flash.o
HAL_GPIO_DeInit                                   build/stm32f3xx_hal_gpio.o
                                                  build/usbd_conf.o
                                                  build/usart.o
                                                  build/spi.o
                                                  build/adc.o
HAL_GPIO_EXTI_Callback                            build/main.o
                                                  build/stm32f3xx_hal_gpio.o
HAL_GPIO_EXTI_IRQHandler                          build/stm32f3xx_hal_gpio.o
                                                  build/stm32f3xx_it.o
HAL_GPIO_Init                                     build/stm32f3xx_hal_gpio.o
                                                  build/usbd_conf.o
                                                  build/usart.o
                                                  build/spi.o
                                                  build/gpio.o
                                                  build/adc.o
                                                  build/stm32f3xx_hal_rcc.o
HAL_GPIO_LockPin                                  build/stm32f3xx_hal_gpio.o
HAL_GPIO_ReadPin                                  build/stm32f3xx_hal_gpio.o
                                                  build/stm32f3xx_it.o
HAL_GPIO_TogglePin                                build/stm32f3xx_hal_gpio.o
HAL_GPIO_WritePin                                 build/stm32f3xx_hal_gpio.o
                                                  build/performance.o
                                                  build/mcp4251.o
                                                  build/main.o
HAL_GetDEVID                                      build/stm32f3xx_hal.o
HAL_GetHalVersion                                 build/stm32f3xx_hal.o
HAL_GetREVID                                      build/stm32f3xx_hal.o
HAL_GetTick                                       build/stm32f3xx_hal.o
                                                  build/stm32f3xx_hal_uart.o
                                                  build/stm32f3xx_hal_spi.o
                                                  build/stm32f3xx_hal_rcc_ex.o
                                                  build/stm32f3xx_hal_rcc.o
                                                  build/stm32f3xx_hal_flash.o
                                                  build/stm32f3xx_hal_dma.o
                                                  build/stm32f3xx_hal_adc_ex.o
HAL_HalfDuplex_EnableReceiver                     build/stm32f3xx_hal_uart.o
HAL_HalfDuplex_EnableTransmitter                  build/stm32f3xx_hal_uart.o
HAL_HalfDuplex_Init                               build/stm32f3xx_hal_uart.o
HAL_IncTick                                       build/stm32f3xx_hal.o
                                                  build/stm32f3xx_it.o
HAL_Init                                          build/stm32f3xx_hal.o
                                                  build/main.o
HAL_InitTick                                      build/stm32f3xx_hal.o
                                                  build/stm32f3xx_hal_rcc.o
HAL_LIN_Init                                      build/stm32f3xx_hal_uart.o
HAL_LIN_SendBreak                                 build/stm32f3xx_hal_uart.o
HAL_MspDeInit                                     build/stm32f3xx_hal.o
HAL_MspInit                                       build/stm32f3xx_hal_msp.o
                                                  build/stm32f3xx_hal.o
HAL_MultiProcessorEx_AddressLength_Set            build/stm32f3xx_hal_uart_ex.o
HAL_MultiProcessor_DisableMuteMode                build/stm32f3xx_hal_uart.o
HAL_MultiProcessor_EnableMuteMode                 build/stm32f3xx_hal_uart.o
HAL_MultiProcessor_EnterMuteMode                  build/stm32f3xx_hal_uart.o
HAL_MultiProcessor_Init                           build/stm32f3xx_hal_uart.o
HAL_NVIC_ClearPendingIRQ                          build/stm32f3xx_hal_cortex.o
HAL_NVIC_DisableIRQ                               build/stm32f3xx_hal_cortex.o
                                                  build/usbd_conf.o
                                                  build/usart.o
                                                  build/tim.o
HAL_NVIC_EnableIRQ                                build/stm32f3xx_hal_cortex.o
                                                  build/usbd_conf.o
                                                  build/usart.o
                                                  build/tim.o
                                                  build/gpio.o
HAL_NVIC_GetActive                                build/stm32f3xx_hal_cortex.o
HAL_NVIC_GetPendingIRQ                            build/stm32f3xx_hal_cortex.o
HAL_NVIC_GetPriority                              build/stm32f3xx_hal_cortex.o
HAL_NVIC_GetPriorityGrouping                      build/stm32f3xx_hal_cortex.o
HAL_NVIC_SetPendingIRQ                            build/stm32f3xx_hal_cortex.o
HAL_NVIC_SetPriority                              build/stm32f3xx_hal_cortex.o
                                                  build/usbd_conf.o
                                                  build/usart.o
                                                  build/tim.o
                                                  build/stm32f3xx_hal_msp.o
                                                  build/gpio.o
                                                  build/stm32f3xx_hal.o
HAL_NVIC_SetPriorityGrouping                      build/stm32f3xx_hal_cortex.o
                                                  build/stm32f3xx_hal_msp.o
                                                  build/stm32f3xx_hal.o
HAL_NVIC_SystemReset                              build/stm32f3xx_hal_cortex.o
HAL_PCDEx_PMAConfig                               build/stm32f3xx_hal_pcd_ex.o
                                                  build/usbd_conf.o
HAL_PCDEx_SetConnectionState                      build/stm32f3xx_hal_pcd_ex.o
                                                  build/stm32f3xx_hal_pcd.o
HAL_PCD_ActiveRemoteWakeup                        build/stm32f3xx_hal_pcd.o
HAL_PCD_ConnectCallback                           build/usbd_conf.o
                                                  build/stm32f3xx_hal_pcd.o
HAL_PCD_DataInStageCallback                       build/usbd_conf.o
                                                  build/stm32f3xx_hal_pcd.o
HAL_PCD_DataOutStageCallback                      build/usbd_conf.o
                                                  build/stm32f3xx_hal_pcd.o
HAL_PCD_DeActiveRemoteWakeup                      build/stm32f3xx_hal_pcd.o
HAL_PCD_DeInit                                    build/stm32f3xx_hal_pcd.o
                                                  build/usbd_conf.o
HAL_PCD_DevConnect                                build/stm32f3xx_hal_pcd.o
HAL_PCD_DevDisconnect                             build/stm32f3xx_hal_pcd.o
HAL_PCD_DisconnectCallback                        build/usbd_conf.o
                                                  build/stm32f3xx_hal_pcd.o
HAL_PCD_EP_Close                                  build/stm32f3xx_hal_pcd.o
                                                  build/usbd_conf.o
HAL_PCD_EP_ClrStall                               build/stm32f3xx_hal_pcd.o
                                                  build/usbd_conf.o
HAL_PCD_EP_Flush                                  build/stm32f3xx_hal_pcd.o
                                                  build/usbd_conf.o
HAL_PCD_EP_GetRxCount                             build/stm32f3xx_hal_pcd.o
                                                  build/usbd_conf.o
HAL_PCD_EP_Open                                   build/stm32f3xx_hal_pcd.o
                                                  build/usbd_conf.o
HAL_PCD_EP_Receive                                build/stm32f3xx_hal_pcd.o
                                                  build/usbd_conf.o
HAL_PCD_EP_SetStall                               build/stm32f3xx_hal_pcd.o
                                                  build/usbd_conf.o
HAL_PCD_EP_Transmit                               build/stm32f3xx_hal_pcd.o
                                                  build/usbd_conf.o
HAL_PCD_GetState                                  build/stm32f3xx_hal_pcd.o
HAL_PCD_IRQHandler                                build/stm32f3xx_hal_pcd.o
                                                  build/stm32f3xx_it.o
HAL_PCD_ISOINIncompleteCallback                   build/usbd_conf.o
                                                  build/stm32f3xx_hal_pcd.o
HAL_PCD_ISOOUTIncompleteCallback                  build/usbd_conf.o
                                                  build/stm32f3xx_hal_pcd.o
HAL_PCD_Init                                      build/stm32f3xx_hal_pcd.o
                                                  build/usbd_conf.o
HAL_PCD_MspDeInit                                 build/usbd_conf.o
                                                  build/stm32f3xx_hal_pcd.o
HAL_PCD_MspInit                                   build/usbd_conf.o
                                                  build/stm32f3xx_hal_pcd.o
HAL_PCD_ResetCallback                             build/usbd_conf.o
                                                  build/stm32f3xx_hal_pcd.o
HAL_PCD_ResumeCallback                            build/usbd_conf.o
                                                  build/stm32f3xx_hal_pcd.o
HAL_PCD_SOFCallback                               build/usbd_conf.o
                                                  build/stm32f3xx_hal_pcd.o
HAL_PCD_SetAddress                                build/stm32f3xx_hal_pcd.o
                                                  build/usbd_conf.o
HAL_PCD_SetupStageCallback                        build/usbd_conf.o
                                                  build/stm32f3xx_hal_pcd.o
HAL_PCD_Start                                     build/stm32f3xx_hal_pcd.o
                                                  build/usbd_conf.o
HAL_PCD_Stop                                      build/stm32f3xx_hal_pcd.o
                                                  build/usbd_conf.o
HAL_PCD_SuspendCallback                           build/usbd_conf.o
                                                  build/stm32f3xx_hal_pcd.o
HAL_PWR_DeInit                                    build/stm32f3xx_hal_pwr.o
HAL_PWR_DisableBkUpAccess                         build/stm32f3xx_hal_pwr.o
HAL_PWR_DisablePVD                                build/stm32f3xx_hal_pwr_ex.o
HAL_PWR_DisableWakeUpPin                          build/stm32f3xx_hal_pwr.o
HAL_PWR_EnableBkUpAccess                          build/stm32f3xx_hal_pwr.o
HAL_PWR_EnablePVD                                 build/stm32f3xx_hal_pwr_ex.o
HAL_PWR_EnableWakeUpPin                           build/stm32f3xx_hal_pwr.o
HAL_PWR_EnterSLEEPMode                            build/stm32f3xx_hal_pwr.o
HAL_PWR_EnterSTANDBYMode                          build/stm32f3xx_hal_pwr.o
HAL_PWR_EnterSTOPMode                             build/stm32f3xx_hal_pwr.o
HAL_PWR_PVDCallback                               build/stm32f3xx_hal_pwr_ex.o
HAL_PWR_PVDConfig                                 build/stm32f3xx_hal_pwr_ex.o
HAL_PWR_PVD_IRQHandler                            build/stm32f3xx_hal_pwr_ex.o
HAL_RCCEx_GetPeriphCLKConfig                      build/stm32f3xx_hal_rcc_ex.o
HAL_RCCEx_PeriphCLKConfig                         build/stm32f3xx_hal_rcc_ex.o
                                                  build/main.o
HAL_RCC_CCSCallback                               build/stm32f3xx_hal_rcc.o
HAL_RCC_ClockConfig                               build/stm32f3xx_hal_rcc.o
                                                  build/main.o
HAL_RCC_DeInit                                    build/stm32f3xx_hal_rcc.o
HAL_RCC_DisableCSS                                build/stm32f3xx_hal_rcc.o
HAL_RCC_EnableCSS                                 build/stm32f3xx_hal_rcc.o
                                                  build/main.o
HAL_RCC_GetClockConfig                            build/stm32f3xx_hal_rcc.o
HAL_RCC_GetHCLKFreq                               build/stm32f3xx_hal_rcc.o
                                                  build/stm32f3xx_hal.o
HAL_RCC_GetOscConfig                              build/stm32f3xx_hal_rcc_ex.o
                                                  build/stm32f3xx_hal_rcc.o
HAL_RCC_GetPCLK1Freq                              build/stm32f3xx_hal_rcc.o
                                                  build/stm32f3xx_hal_uart.o
HAL_RCC_GetPCLK2Freq                              build/stm32f3xx_hal_rcc.o
                                                  build/stm32f3xx_hal_uart.o
HAL_RCC_GetSysClockFreq                           build/stm32f3xx_hal_rcc_ex.o
                                                  build/stm32f3xx_hal_rcc.o
                                                  build/stm32f3xx_hal_uart.o
HAL_RCC_MCOConfig                                 build/stm32f3xx_hal_rcc.o
HAL_RCC_NMI_IRQHandler                            build/stm32f3xx_hal_rcc.o
                                                  build/stm32f3xx_it.o
HAL_RCC_OscConfig                                 build/stm32f3xx_hal_rcc_ex.o
                                                  build/stm32f3xx_hal_rcc.o
                                                  build/main.o
HAL_RS485Ex_Init                                  build/stm32f3xx_hal_uart_ex.o
HAL_ResumeTick                                    build/stm32f3xx_hal.o
HAL_SPI_DeInit                                    build/stm32f3xx_hal_spi.o
HAL_SPI_ErrorCallback                             build/stm32f3xx_hal_spi.o
HAL_SPI_GetState                                  build/stm32f3xx_hal_spi.o
HAL_SPI_IRQHandler                                build/stm32f3xx_hal_spi.o
HAL_SPI_Init                                      build/stm32f3xx_hal_spi.o
                                                  build/spi.o
HAL_SPI_MspDeInit                                 build/spi.o
                                                  build/stm32f3xx_hal_spi.o
HAL_SPI_MspInit                                   build/spi.o
                                                  build/stm32f3xx_hal_spi.o
HAL_SPI_Receive                                   build/stm32f3xx_hal_spi.o
HAL_SPI_Receive_DMA                               build/stm32f3xx_hal_spi.o
HAL_SPI_Receive_IT                                build/stm32f3xx_hal_spi.o
HAL_SPI_RxCpltCallback                            build/stm32f3xx_hal_spi.o
HAL_SPI_Transmit                                  build/stm32f3xx_hal_spi.o
HAL_SPI_TransmitReceive                           build/stm32f3xx_hal_spi.o
                                                  build/mcp4251.o
HAL_SPI_TransmitReceive_DMA                       build/stm32f3xx_hal_spi.o
HAL_SPI_TransmitReceive_IT                        build/stm32f3xx_hal_spi.o
HAL_SPI_Transmit_DMA                              build/stm32f3xx_hal_spi.o
HAL_SPI_Transmit_IT                               build/stm32f3xx_hal_spi.o
HAL_SPI_TxCpltCallback                            build/stm32f3xx_hal_spi.o
HAL_SPI_TxRxCpltCallback                          build/stm32f3xx_hal_spi.o
HAL_SYSTICK_CLKSourceConfig                       build/stm32f3xx_hal_cortex.o
HAL_SYSTICK_Callback                              build/stm32f3xx_hal_cortex.o
HAL_SYSTICK_Config                                build/stm32f3xx_hal_cortex.o
                                                  build/stm32f3xx_hal.o
HAL_SYSTICK_IRQHandler                            build/stm32f3xx_hal_cortex.o
                                                  build/stm32f3xx_it.o
HAL_SuspendTick                                   build/stm32f3xx_hal.o
HAL_TIMEx_BreakCallback                           build/stm32f3xx_hal_tim_ex.o
                                                  build/stm32f3xx_hal_tim.o
HAL_TIMEx_CommutationCallback                     build/stm32f3xx_hal_tim_ex.o
                                                  build/stm32f3xx_hal_tim.o
HAL_TIMEx_ConfigBreakDeadTime                     build/stm32f3xx_hal_tim_ex.o
HAL_TIMEx_ConfigCommutationEvent                  build/stm32f3xx_hal_tim_ex.o
HAL_TIMEx_ConfigCommutationEvent_DMA              build/stm32f3xx_hal_tim_ex.o
HAL_TIMEx_ConfigCommutationEvent_IT               build/stm32f3xx_hal_tim_ex.o
HAL_TIMEx_DMACommutationCplt                      build/stm32f3xx_hal_tim_ex.o
                                                  build/stm32f3xx_hal_tim.o
HAL_TIMEx_GroupChannel5                           build/stm32f3xx_hal_tim_ex.o
HAL_TIMEx_HallSensor_DeInit                       build/stm32f3xx_hal_tim_ex.o
HAL_TIMEx_HallSensor_GetState                     build/stm32f3xx_hal_tim_ex.o
HAL_TIMEx_HallSensor_Init                         build/stm32f3xx_hal_tim_ex.o
HAL_TIMEx_HallSensor_MspDeInit                    build/stm32f3xx_hal_tim_ex.o
HAL_TIMEx_HallSensor_MspInit                      build/stm32f3xx_hal_tim_ex.o
HAL_TIMEx_HallSensor_Start                        build/stm32f3xx_hal_tim_ex.o
HAL_TIMEx_HallSensor_Start_DMA                    build/stm32f3xx_hal_tim_ex.o
HAL_TIMEx_HallSensor_Start_IT                     build/stm32f3xx_hal_tim_ex.o
HAL_TIMEx_HallSensor_Stop                         build/stm32f3xx_hal_tim_ex.o
HAL_TIMEx_HallSensor_Stop_DMA                     build/stm32f3xx_hal_tim_ex.o
HAL_TIMEx_HallSensor_Stop_IT                      build/stm32f3xx_hal_tim_ex.o
HAL_TIMEx_MasterConfigSynchronization             build/stm32f3xx_hal_tim_ex.o
                                                  build/tim.o
HAL_TIMEx_OCN_Start                               build/stm32f3xx_hal_tim_ex.o
HAL_TIMEx_OCN_Start_DMA                           build/stm32f3xx_hal_tim_ex.o
HAL_TIMEx_OCN_Start_IT                            build/stm32f3xx_hal_tim_ex.o
HAL_TIMEx_OCN_Stop                                build/stm32f3xx_hal_tim_ex.o
HAL_TIMEx_OCN_Stop_DMA                            build/stm32f3xx_hal_tim_ex.o
HAL_TIMEx_OCN_Stop_IT                             build/stm32f3xx_hal_tim_ex.o
HAL_TIMEx_OnePulseN_Start                         build/stm32f3xx_hal_tim_ex.o
HAL_TIMEx_OnePulseN_Start_IT                      build/stm32f3xx_hal_tim_ex.o
HAL_TIMEx_OnePulseN_Stop                          build/stm32f3xx_hal_tim_ex.o
HAL_TIMEx_OnePulseN_Stop_IT                       build/stm32f3xx_hal_tim_ex.o
HAL_TIMEx_PWMN_Start                              build/stm32f3xx_hal_tim_ex.o
HAL_TIMEx_PWMN_Start_DMA                          build/stm32f3xx_hal_tim_ex.o
HAL_TIMEx_PWMN_Start_IT                           build/stm32f3xx_hal_tim_ex.o
HAL_TIMEx_PWMN_Stop                               build/stm32f3xx_hal_tim_ex.o
HAL_TIMEx_PWMN_Stop_DMA                           build/stm32f3xx_hal_tim_ex.o
HAL_TIMEx_PWMN_Stop_IT                            build/stm32f3xx_hal_tim_ex.o
HAL_TIMEx_RemapConfig                             build/stm32f3xx_hal_tim_ex.o
HAL_TIM_Base_DeInit                               build/stm32f3xx_hal_tim.o
HAL_TIM_Base_GetState                             build/stm32f3xx_hal_tim.o
HAL_TIM_Base_Init                                 build/stm32f3xx_hal_tim.o
                                                  build/tim.o
HAL_TIM_Base_MspDeInit                            build/tim.o
                                                  build/stm32f3xx_hal_tim.o
HAL_TIM_Base_MspInit                              build/tim.o
                                                  build/stm32f3xx_hal_tim.o
HAL_TIM_Base_Start                                build/stm32f3xx_hal_tim.o
HAL_TIM_Base_Start_DMA                            build/stm32f3xx_hal_tim.o
HAL_TIM_Base_Start_IT                             build/stm32f3xx_hal_tim.o
                                                  build/main.o
HAL_TIM_Base_Stop                                 build/stm32f3xx_hal_tim.o
HAL_TIM_Base_Stop_DMA                             build/stm32f3xx_hal_tim.o
HAL_TIM_Base_Stop_IT                              build/stm32f3xx_hal_tim.o
HAL_TIM_ConfigClockSource                         build/stm32f3xx_hal_tim.o
                                                  build/tim.o
HAL_TIM_ConfigOCrefClear                          build/stm32f3xx_hal_tim_ex.o
                                                  build/stm32f3xx_hal_tim.o
HAL_TIM_ConfigTI1Input                            build/stm32f3xx_hal_tim.o
HAL_TIM_DMABurst_ReadStart                        build/stm32f3xx_hal_tim.o
HAL_TIM_DMABurst_ReadStop                         build/stm32f3xx_hal_tim.o
HAL_TIM_DMABurst_WriteStart                       build/stm32f3xx_hal_tim.o
HAL_TIM_DMABurst_WriteStop                        build/stm32f3xx_hal_tim.o
HAL_TIM_DMACaptureCplt                            build/stm32f3xx_hal_tim.o
                                                  build/stm32f3xx_hal_tim_ex.o
HAL_TIM_DMADelayPulseCplt                         build/stm32f3xx_hal_tim.o
                                                  build/stm32f3xx_hal_tim_ex.o
HAL_TIM_DMAError                                  build/stm32f3xx_hal_tim.o
                                                  build/stm32f3xx_hal_tim_ex.o
HAL_TIM_Encoder_DeInit                            build/stm32f3xx_hal_tim.o
HAL_TIM_Encoder_GetState                          build/stm32f3xx_hal_tim.o
HAL_TIM_Encoder_Init                              build/stm32f3xx_hal_tim.o
HAL_TIM_Encoder_MspDeInit                         build/stm32f3xx_hal_tim.o
HAL_TIM_Encoder_MspInit                           build/stm32f3xx_hal_tim.o
HAL_TIM_Encoder_Start                             build/stm32f3xx_hal_tim.o
HAL_TIM_Encoder_Start_DMA                         build/stm32f3xx_hal_tim.o
HAL_TIM_Encoder_Start_IT                          build/stm32f3xx_hal_tim.o
HAL_TIM_Encoder_Stop                              build/stm32f3xx_hal_tim.o
HAL_TIM_Encoder_Stop_DMA                          build/stm32f3xx_hal_tim.o
HAL_TIM_Encoder_Stop_IT                           build/stm32f3xx_hal_tim.o
HAL_TIM_ErrorCallback                             build/stm32f3xx_hal_tim.o
HAL_TIM_GenerateEvent                             build/stm32f3xx_hal_tim.o
HAL_TIM_IC_CaptureCallback                        build/stm32f3xx_hal_tim.o
HAL_TIM_IC_ConfigChannel                          build/stm32f3xx_hal_tim.o
HAL_TIM_IC_DeInit                                 build/stm32f3xx_hal_tim.o
HAL_TIM_IC_GetState                               build/stm32f3xx_hal_tim.o
HAL_TIM_IC_Init                                   build/stm32f3xx_hal_tim.o
HAL_TIM_IC_MspDeInit                              build/stm32f3xx_hal_tim.o
HAL_TIM_IC_MspInit                                build/stm32f3xx_hal_tim.o
HAL_TIM_IC_Start                                  build/stm32f3xx_hal_tim.o
HAL_TIM_IC_Start_DMA                              build/stm32f3xx_hal_tim.o
HAL_TIM_IC_Start_IT                               build/stm32f3xx_hal_tim.o
HAL_TIM_IC_Stop                                   build/stm32f3xx_hal_tim.o
HAL_TIM_IC_Stop_DMA                               build/stm32f3xx_hal_tim.o
HAL_TIM_IC_Stop_IT                                build/stm32f3xx_hal_tim.o
HAL_TIM_IRQHandler                                build/stm32f3xx_hal_tim.o
                                                  build/stm32f3xx_it.o
HAL_TIM_OC_ConfigChannel                          build/stm32f3xx_hal_tim_ex.o
                                                  build/stm32f3xx_hal_tim.o
HAL_TIM_OC_DeInit                                 build/stm32f3xx_hal_tim.o
HAL_TIM_OC_DelayElapsedCallback                   build/stm32f3xx_hal_tim.o
HAL_TIM_OC_GetState                               build/stm32f3xx_hal_tim.o
HAL_TIM_OC_Init                                   build/stm32f3xx_hal_tim.o
HAL_TIM_OC_MspDeInit                              build/stm32f3xx_hal_tim.o
HAL_TIM_OC_MspInit                                build/stm32f3xx_hal_tim.o
HAL_TIM_OC_Start                                  build/stm32f3xx_hal_tim.o
HAL_TIM_OC_Start_DMA                              build/stm32f3xx_hal_tim.o
HAL_TIM_OC_Start_IT                               build/stm32f3xx_hal_tim.o
HAL_TIM_OC_Stop                                   build/stm32f3xx_hal_tim.o
HAL_TIM_OC_Stop_DMA                               build/stm32f3xx_hal_tim.o
HAL_TIM_OC_Stop_IT                                build/stm32f3xx_hal_tim.o
HAL_TIM_OnePulse_ConfigChannel                    build/stm32f3xx_hal_tim.o
HAL_TIM_OnePulse_DeInit                           build/stm32f3xx_hal_tim.o
HAL_TIM_OnePulse_GetState                         build/stm32f3xx_hal_tim.o
HAL_TIM_OnePulse_Init                             build/stm32f3xx_hal_tim.o
HAL_TIM_OnePulse_MspDeInit                        build/stm32f3xx_hal_tim.o
HAL_TIM_OnePulse_MspInit                          build/stm32f3xx_hal_tim.o
HAL_TIM_OnePulse_Start                            build/stm32f3xx_hal_tim.o
HAL_TIM_OnePulse_Start_IT                         build/stm32f3xx_hal_tim.o
HAL_TIM_OnePulse_Stop                             build/stm32f3xx_hal_tim.o
HAL_TIM_OnePulse_Stop_IT                          build/stm32f3xx_hal_tim.o
HAL_TIM_PWM_ConfigChannel                         build/stm32f3xx_hal_tim_ex.o
                                                  build/stm32f3xx_hal_tim.o
HAL_TIM_PWM_DeInit                                build/stm32f3xx_hal_tim.o
HAL_TIM_PWM_GetState                              build/stm32f3xx_hal_tim.o
HAL_TIM_PWM_Init                                  build/stm32f3xx_hal_tim.o
HAL_TIM_PWM_MspDeInit                             build/stm32f3xx_hal_tim.o
HAL_TIM_PWM_MspInit                               build/stm32f3xx_hal_tim.o
HAL_TIM_PWM_PulseFinishedCallback                 build/stm32f3xx_hal_tim.o
HAL_TIM_PWM_Start                                 build/stm32f3xx_hal_tim.o
HAL_TIM_PWM_Start_DMA                             build/stm32f3xx_hal_tim.o
HAL_TIM_PWM_Start_IT                              build/stm32f3xx_hal_tim.o
HAL_TIM_PWM_Stop                                  build/stm32f3xx_hal_tim.o
HAL_TIM_PWM_Stop_DMA                              build/stm32f3xx_hal_tim.o
HAL_TIM_PWM_Stop_IT                               build/stm32f3xx_hal_tim.o
HAL_TIM_PeriodElapsedCallback                     build/stm32f3xx_hal_tim.o
HAL_TIM_ReadCapturedValue                         build/stm32f3xx_hal_tim.o
HAL_TIM_SlaveConfigSynchronization                build/stm32f3xx_hal_tim.o
HAL_TIM_TriggerCallback                           build/stm32f3xx_hal_tim.o
HAL_UARTEx_DisableStopMode                        build/stm32f3xx_hal_uart_ex.o
HAL_UARTEx_EnableStopMode                         build/stm32f3xx_hal_uart_ex.o
HAL_UARTEx_StopModeWakeUpSourceConfig             build/stm32f3xx_hal_uart_ex.o
HAL_UART_DMAPause                                 build/stm32f3xx_hal_uart.o
HAL_UART_DMAResume                                build/stm32f3xx_hal_uart.o
HAL_UART_DMAStop                                  build/stm32f3xx_hal_uart.o
HAL_UART_DeInit                                   build/stm32f3xx_hal_uart.o
HAL_UART_ErrorCallback                            build/main.o
                                                  build/stm32f3xx_hal_uart.o
HAL_UART_GetError                                 build/stm32f3xx_hal_uart.o
HAL_UART_GetState                                 build/stm32f3xx_hal_uart.o
                                                  build/midi.o
HAL_UART_IRQHandler                               build/stm32f3xx_hal_uart.o
                                                  build/stm32f3xx_it.o
HAL_UART_Init                                     build/stm32f3xx_hal_uart.o
                                                  build/usart.o
HAL_UART_MspDeInit                                build/usart.o
                                                  build/stm32f3xx_hal_uart.o
HAL_UART_MspInit                                  build/usart.o
                                                  build/stm32f3xx_hal_uart.o
                                                  build/stm32f3xx_hal_uart_ex.o
HAL_UART_Receive                                  build/stm32f3xx_hal_uart.o
HAL_UART_Receive_DMA                              build/stm32f3xx_hal_uart.o
HAL_UART_Receive_IT                               build/stm32f3xx_hal_uart.o
HAL_UART_RxCpltCallback                           build/stm32f3xx_hal_uart.o
HAL_UART_RxHalfCpltCallback                       build/stm32f3xx_hal_uart.o
HAL_UART_Transmit                                 build/stm32f3xx_hal_uart.o
HAL_UART_Transmit_DMA                             build/stm32f3xx_hal_uart.o
HAL_UART_Transmit_IT                              build/stm32f3xx_hal_uart.o
                                                  build/midi.o
                                                  build/hihatchannel.o
                                                  build/main.o
HAL_UART_TxCpltCallback                           build/main.o
                                                  build/stm32f3xx_hal_uart.o
HAL_UART_TxHalfCpltCallback                       build/stm32f3xx_hal_uart.o
HAL_UART_WakeupCallback                           build/stm32f3xx_hal_uart.o
HalfTransfer_CallBack_FS                          build/usbd_audio_if.o
HardFault_Handler                                 build/startup_stm32f303xc.o
I2C1_ER_IRQHandler                                build/startup_stm32f303xc.o
I2C1_EV_IRQHandler                                build/startup_stm32f303xc.o
I2C2_ER_IRQHandler                                build/startup_stm32f303xc.o
I2C2_EV_IRQHandler                                build/startup_stm32f303xc.o
MX_ADC1_Init                                      build/adc.o
                                                  build/main.o
MX_ADC2_Init                                      build/adc.o
                                                  build/main.o
MX_ADC3_Init                                      build/adc.o
                                                  build/main.o
MX_ADC4_Init                                      build/adc.o
                                                  build/main.o
MX_DMA_Init                                       build/dma.o
                                                  build/main.o
MX_GPIO_Init                                      build/gpio.o
                                                  build/main.o
MX_SPI2_Init                                      build/spi.o
                                                  build/main.o
MX_TIM1_Init                                      build/tim.o
                                                  build/main.o
MX_TIM2_Init                                      build/tim.o
                                                  build/main.o
MX_TIM3_Init                                      build/tim.o
                                                  build/main.o
MX_USART1_UART_Init                               build/usart.o
                                                  build/main.o
MX_USART3_UART_Init                               build/usart.o
                                                  build/main.o
MX_USB_DEVICE_Init                                build/usb_device.o
                                                  build/main.o
MemManage_Handler                                 build/startup_stm32f303xc.o
NMI_Handler                                       build/stm32f3xx_it.o
PCD_ReadPMA                                       build/stm32f3xx_hal_pcd_ex.o
                                                  build/stm32f3xx_hal_pcd.o
PCD_WritePMA                                      build/stm32f3xx_hal_pcd_ex.o
                                                  build/stm32f3xx_hal_pcd.o
PLLMULFactorTable                                 build/stm32f3xx_hal_rcc_ex.o
PVD_IRQHandler                                    build/startup_stm32f303xc.o
PendSV_Handler                                    build/startup_stm32f303xc.o
PredivFactorTable                                 build/stm32f3xx_hal_rcc_ex.o
RCC_IRQHandler                                    build/startup_stm32f303xc.o
RTC_Alarm_IRQHandler                              build/startup_stm32f303xc.o
RTC_WKUP_IRQHandler                               build/startup_stm32f303xc.o
Reset_Handler                                     build/startup_stm32f303xc.o
SPI1_IRQHandler                                   build/startup_stm32f303xc.o
SPI2_IRQHandler                                   build/startup_stm32f303xc.o
SPI3_IRQHandler                                   build/startup_stm32f303xc.o
SVC_Handler                                       build/startup_stm32f303xc.o
SysTick_Handler                                   build/stm32f3xx_it.o
SystemClock_Config                                build/main.o
                                                  build/usbd_conf.o
SystemCoreClock                                   build/system_stm32f3xx.o
                                                  build/stm32f3xx_hal_rcc.o
SystemCoreClockUpdate                             build/system_stm32f3xx.o
SystemInit                                        build/system_stm32f3xx.o
                                                  build/startup_stm32f303xc.o
TAMP_STAMP_IRQHandler                             build/startup_stm32f303xc.o
TIM1_BRK_TIM15_IRQHandler                         build/startup_stm32f303xc.o
TIM1_CC_IRQHandler                                build/startup_stm32f303xc.o
TIM1_TRG_COM_TIM17_IRQHandler                     build/startup_stm32f303xc.o
TIM1_UP_TIM16_IRQHandler                          build/stm32f3xx_it.o
TIM2_IRQHandler                                   build/stm32f3xx_it.o
TIM3_IRQHandler                                   build/stm32f3xx_it.o
TIM4_IRQHandler                                   build/startup_stm32f303xc.o
TIM6_DAC_IRQHandler                               build/startup_stm32f303xc.o
TIM7_IRQHandler                                   build/startup_stm32f303xc.o
TIM8_BRK_IRQHandler                               build/startup_stm32f303xc.o
TIM8_CC_IRQHandler                                build/startup_stm32f303xc.o
TIM8_TRG_COM_IRQHandler                           build/startup_stm32f303xc.o
TIM8_UP_IRQHandler                                build/startup_stm32f303xc.o
TIM_Base_SetConfig                                build/stm32f3xx_hal_tim.o
                                                  build/stm32f3xx_hal_tim_ex.o
TIM_CCxChannelCmd                                 build/stm32f3xx_hal_tim.o
                                                  build/stm32f3xx_hal_tim_ex.o
TIM_ETR_SetConfig                                 build/stm32f3xx_hal_tim.o
                                                  build/stm32f3xx_hal_tim_ex.o
TIM_OC1_SetConfig                                 build/stm32f3xx_hal_tim.o
                                                  build/stm32f3xx_hal_tim_ex.o
TIM_OC2_SetConfig                                 build/stm32f3xx_hal_tim.o
                                                  build/stm32f3xx_hal_tim_ex.o
TIM_OC3_SetConfig                                 build/stm32f3xx_hal_tim.o
                                                  build/stm32f3xx_hal_tim_ex.o
TIM_OC4_SetConfig                                 build/stm32f3xx_hal_tim.o
                                                  build/stm32f3xx_hal_tim_ex.o
TIM_TI1_SetConfig                                 build/stm32f3xx_hal_tim.o
                                                  build/stm32f3xx_hal_tim_ex.o
TransferComplete_CallBack_FS                      build/usbd_audio_if.o
UART4_IRQHandler                                  build/startup_stm32f303xc.o
UART5_IRQHandler                                  build/startup_stm32f303xc.o
UART_AdvFeatureConfig                             build/stm32f3xx_hal_uart.o
                                                  build/stm32f3xx_hal_uart_ex.o
UART_CheckIdleState                               build/stm32f3xx_hal_uart.o
                                                  build/stm32f3xx_hal_uart_ex.o
UART_SetConfig                                    build/stm32f3xx_hal_uart.o
                                                  build/stm32f3xx_hal_uart_ex.o
UART_WaitOnFlagUntilTimeout                       build/stm32f3xx_hal_uart.o
                                                  build/stm32f3xx_hal_uart_ex.o
UART_Wakeup_AddressConfig                         build/stm32f3xx_hal_uart.o
                                                  build/stm32f3xx_hal_uart_ex.o
USART1_IRQHandler                                 build/stm32f3xx_it.o
USART2_IRQHandler                                 build/startup_stm32f303xc.o
USART3_IRQHandler                                 build/stm32f3xx_it.o
USBD_AUDIO                                        build/usbd_audio.o
                                                  build/usb_device.o
USBD_AUDIO_RegisterInterface                      build/usbd_audio.o
                                                  build/usb_device.o
USBD_AUDIO_Sync                                   build/usbd_audio.o
                                                  build/usbd_audio_if.o
USBD_AUDIO_fops_FS                                build/usbd_audio_if.o
                                                  build/usb_device.o
USBD_ClrClassConfig                               build/usbd_core.o
                                                  build/usbd_ctlreq.o
USBD_CtlContinueRx                                build/usbd_ioreq.o
                                                  build/usbd_core.o
USBD_CtlContinueSendData                          build/usbd_ioreq.o
                                                  build/usbd_core.o
USBD_CtlError                                     build/usbd_ctlreq.o
                                                  build/usbd_audio.o
USBD_CtlPrepareRx                                 build/usbd_ioreq.o
                                                  build/usbd_audio.o
USBD_CtlReceiveStatus                             build/usbd_ioreq.o
                                                  build/usbd_core.o
USBD_CtlSendData                                  build/usbd_ioreq.o
                                                  build/usbd_ctlreq.o
                                                  build/usbd_audio.o
USBD_CtlSendStatus                                build/usbd_ioreq.o
                                                  build/usbd_ctlreq.o
                                                  build/usbd_core.o
USBD_DeInit                                       build/usbd_core.o
USBD_FS_ConfigStrDescriptor                       build/usbd_desc.o
USBD_FS_DeviceDesc                                build/usbd_desc.o
USBD_FS_DeviceDescriptor                          build/usbd_desc.o
USBD_FS_InterfaceStrDescriptor                    build/usbd_desc.o
USBD_FS_LangIDStrDescriptor                       build/usbd_desc.o
USBD_FS_ManufacturerStrDescriptor                 build/usbd_desc.o
USBD_FS_ProductStrDescriptor                      build/usbd_desc.o
USBD_FS_SerialStrDescriptor                       build/usbd_desc.o
USBD_GetRxCount                                   build/usbd_ioreq.o
USBD_GetString                                    build/usbd_ctlreq.o
                                                  build/usbd_desc.o
USBD_Init                                         build/usbd_core.o
                                                  build/usb_device.o
USBD_LL_ClearStallEP                              build/usbd_conf.o
                                                  build/usbd_ctlreq.o
USBD_LL_CloseEP                                   build/usbd_conf.o
                                                  build/usbd_audio.o
USBD_LL_DataInStage                               build/usbd_core.o
                                                  build/usbd_conf.o
USBD_LL_DataOutStage                              build/usbd_core.o
                                                  build/usbd_conf.o
USBD_LL_DeInit                                    build/usbd_conf.o
                                                  build/usbd_core.o
USBD_LL_Delay                                     build/usbd_conf.o
USBD_LL_DevConnected                              build/usbd_core.o
                                                  build/usbd_conf.o
USBD_LL_DevDisconnected                           build/usbd_core.o
                                                  build/usbd_conf.o
USBD_LL_FlushEP                                   build/usbd_conf.o
USBD_LL_GetRxDataSize                             build/usbd_conf.o
                                                  build/usbd_ioreq.o
USBD_LL_Init                                      build/usbd_conf.o
                                                  build/usbd_core.o
USBD_LL_IsStallEP                                 build/usbd_conf.o
                                                  build/usbd_ctlreq.o
USBD_LL_IsoINIncomplete                           build/usbd_core.o
                                                  build/usbd_conf.o
USBD_LL_IsoOUTIncomplete                          build/usbd_core.o
                                                  build/usbd_conf.o
USBD_LL_OpenEP                                    build/usbd_conf.o
                                                  build/usbd_core.o
                                                  build/usbd_audio.o
USBD_LL_PrepareReceive                            build/usbd_conf.o
                                                  build/usbd_ioreq.o
                                                  build/usbd_audio.o
USBD_LL_Reset                                     build/usbd_core.o
                                                  build/usbd_conf.o
USBD_LL_Resume                                    build/usbd_core.o
                                                  build/usbd_conf.o
USBD_LL_SOF                                       build/usbd_core.o
                                                  build/usbd_conf.o
USBD_LL_SetSpeed                                  build/usbd_core.o
                                                  build/usbd_conf.o
USBD_LL_SetUSBAddress                             build/usbd_conf.o
                                                  build/usbd_ctlreq.o
USBD_LL_SetupStage                                build/usbd_core.o
                                                  build/usbd_conf.o
USBD_LL_StallEP                                   build/usbd_conf.o
                                                  build/usbd_ctlreq.o
                                                  build/usbd_core.o
USBD_LL_Start                                     build/usbd_conf.o
                                                  build/usbd_core.o
USBD_LL_Stop                                      build/usbd_conf.o
                                                  build/usbd_core.o
USBD_LL_Suspend                                   build/usbd_core.o
                                                  build/usbd_conf.o
USBD_LL_Transmit                                  build/usbd_conf.o
                                                  build/usbd_ioreq.o
USBD_LangIDDesc                                   build/usbd_desc.o
USBD_ParseSetupRequest                            build/usbd_ctlreq.o
                                                  build/usbd_core.o
USBD_RegisterClass                                build/usbd_core.o
                                                  build/usb_device.o
USBD_RunTestMode                                  build/usbd_core.o
USBD_SetClassConfig                               build/usbd_core.o
                                                  build/usbd_ctlreq.o
USBD_Start                                        build/usbd_core.o
                                                  build/usb_device.o
USBD_StdDevReq                                    build/usbd_ctlreq.o
                                                  build/usbd_core.o
USBD_StdEPReq                                     build/usbd_ctlreq.o
                                                  build/usbd_core.o
USBD_StdItfReq                                    build/usbd_ctlreq.o
                                                  build/usbd_core.o
USBD_Stop                                         build/usbd_core.o
USBD_StrDesc                                      build/usbd_desc.o
USBD_static_free                                  build/usbd_conf.o
                                                  build/usbd_audio.o
USBD_static_malloc                                build/usbd_conf.o
                                                  build/usbd_audio.o
USBWakeUp_IRQHandler                              build/startup_stm32f303xc.o
USBWakeUp_RMP_IRQHandler                          build/startup_stm32f303xc.o
USB_HP_CAN_TX_IRQHandler                          build/startup_stm32f303xc.o
USB_HP_IRQHandler                                 build/startup_stm32f303xc.o
USB_LP_CAN_RX0_IRQHandler                         build/stm32f3xx_it.o
USB_LP_IRQHandler                                 build/startup_stm32f303xc.o
UsageFault_Handler                                build/startup_stm32f303xc.o
WWDG_IRQHandler                                   build/startup_stm32f303xc.o
_Jv_RegisterClasses                               /usr/lib/gcc/arm-none-eabi/5.1.0/armv7e-m/softfp/crtbegin.o
__atexit_dummy                                    /usr/lib/gcc/arm-none-eabi/5.1.0/../../../../arm-none-eabi/lib/armv7e-m/softfp/libc_nano.a(lib_a-__atexit.o)
__bss_end__                                       /usr/lib/gcc/arm-none-eabi/5.1.0/../../../../arm-none-eabi/lib/armv7e-m/softfp/crt0.o
__bss_start__                                     /usr/lib/gcc/arm-none-eabi/5.1.0/../../../../arm-none-eabi/lib/armv7e-m/softfp/crt0.o
__call_exitprocs                                  /usr/lib/gcc/arm-none-eabi/5.1.0/../../../../arm-none-eabi/lib/armv7e-m/softfp/libc_nano.a(lib_a-__call_atexit.o)
                                                  /usr/lib/gcc/arm-none-eabi/5.1.0/../../../../arm-none-eabi/lib/armv7e-m/softfp/libc_nano.a(lib_a-__atexit.o)
                                                  /usr/lib/gcc/arm-none-eabi/5.1.0/../../../../arm-none-eabi/lib/armv7e-m/softfp/libc_nano.a(lib_a-exit.o)
__deregister_frame_info                           /usr/lib/gcc/arm-none-eabi/5.1.0/armv7e-m/softfp/crtbegin.o
__dso_handle                                      /usr/lib/gcc/arm-none-eabi/5.1.0/armv7e-m/softfp/crtbegin.o
__fini_array_end                                  /usr/lib/gcc/arm-none-eabi/5.1.0/../../../../arm-none-eabi/lib/armv7e-m/softfp/libc_nano.a(lib_a-fini.o)
__fini_array_start                                /usr/lib/gcc/arm-none-eabi/5.1.0/../../../../arm-none-eabi/lib/armv7e-m/softfp/libc_nano.a(lib_a-fini.o)
__init_array_end                                  /usr/lib/gcc/arm-none-eabi/5.1.0/../../../../arm-none-eabi/lib/armv7e-m/softfp/libc_nano.a(lib_a-init.o)
__init_array_start                                /usr/lib/gcc/arm-none-eabi/5.1.0/../../../../arm-none-eabi/lib/armv7e-m/softfp/libc_nano.a(lib_a-init.o)
__libc_fini_array                                 /usr/lib/gcc/arm-none-eabi/5.1.0/../../../../arm-none-eabi/lib/armv7e-m/softfp/libc_nano.a(lib_a-fini.o)
                                                  /usr/lib/gcc/arm-none-eabi/5.1.0/../../../../arm-none-eabi/lib/armv7e-m/softfp/crt0.o
__libc_init_array                                 /usr/lib/gcc/arm-none-eabi/5.1.0/../../../../arm-none-eabi/lib/armv7e-m/softfp/libc_nano.a(lib_a-init.o)
                                                  build/startup_stm32f303xc.o
                                                  /usr/lib/gcc/arm-none-eabi/5.1.0/../../../../arm-none-eabi/lib/armv7e-m/softfp/crt0.o
__malloc_free_list                                /usr/lib/gcc/arm-none-eabi/5.1.0/../../../../arm-none-eabi/lib/armv7e-m/softfp/libc_nano.a(lib_a-nano-mallocr.o)
                                                  /usr/lib/gcc/arm-none-eabi/5.1.0/../../../../arm-none-eabi/lib/armv7e-m/softfp/libc_nano.a(lib_a-nano-freer.o)
__malloc_sbrk_start                               /usr/lib/gcc/arm-none-eabi/5.1.0/../../../../arm-none-eabi/lib/armv7e-m/softfp/libc_nano.a(lib_a-nano-mallocr.o)
__preinit_array_end                               /usr/lib/gcc/arm-none-eabi/5.1.0/../../../../arm-none-eabi/lib/armv7e-m/softfp/libc_nano.a(lib_a-init.o)
__preinit_array_start                             /usr/lib/gcc/arm-none-eabi/5.1.0/../../../../arm-none-eabi/lib/armv7e-m/softfp/libc_nano.a(lib_a-init.o)
__register_exitproc                               /usr/lib/gcc/arm-none-eabi/5.1.0/../../../../arm-none-eabi/lib/armv7e-m/softfp/libc_nano.a(lib_a-__atexit.o)
                                                  /usr/lib/gcc/arm-none-eabi/5.1.0/../../../../arm-none-eabi/lib/armv7e-m/softfp/libc_nano.a(lib_a-atexit.o)
__register_frame_info                             /usr/lib/gcc/arm-none-eabi/5.1.0/armv7e-m/softfp/crtbegin.o
__sf_fake_stderr                                  /usr/lib/gcc/arm-none-eabi/5.1.0/../../../../arm-none-eabi/lib/armv7e-m/softfp/libc_nano.a(lib_a-impure.o)
__sf_fake_stdin                                   /usr/lib/gcc/arm-none-eabi/5.1.0/../../../../arm-none-eabi/lib/armv7e-m/softfp/libc_nano.a(lib_a-impure.o)
__sf_fake_stdout                                  /usr/lib/gcc/arm-none-eabi/5.1.0/../../../../arm-none-eabi/lib/armv7e-m/softfp/libc_nano.a(lib_a-impure.o)
__ssprint_r                                       /usr/lib/gcc/arm-none-eabi/5.1.0/../../../../arm-none-eabi/lib/armv7e-m/softfp/libc_nano.a(lib_a-nano-svfprintf.o)
__ssputs_r                                        /usr/lib/gcc/arm-none-eabi/5.1.0/../../../../arm-none-eabi/lib/armv7e-m/softfp/libc_nano.a(lib_a-nano-svfprintf.o)
__stack                                           /usr/lib/gcc/arm-none-eabi/5.1.0/../../../../arm-none-eabi/lib/armv7e-m/softfp/crt0.o
_ebss                                             build/startup_stm32f303xc.o
_edata                                            build/startup_stm32f303xc.o
_estack                                           build/startup_stm32f303xc.o
_exit                                             /usr/lib/gcc/arm-none-eabi/5.1.0/../../../../arm-none-eabi/lib/armv7e-m/softfp/libnosys.a(_exit.o)
                                                  /usr/lib/gcc/arm-none-eabi/5.1.0/../../../../arm-none-eabi/lib/armv7e-m/softfp/libc_nano.a(lib_a-exit.o)
_fini                                             /usr/lib/gcc/arm-none-eabi/5.1.0/armv7e-m/softfp/crti.o
                                                  /usr/lib/gcc/arm-none-eabi/5.1.0/../../../../arm-none-eabi/lib/armv7e-m/softfp/libc_nano.a(lib_a-fini.o)
_free_r                                           /usr/lib/gcc/arm-none-eabi/5.1.0/../../../../arm-none-eabi/lib/armv7e-m/softfp/libc_nano.a(lib_a-nano-freer.o)
                                                  /usr/lib/gcc/arm-none-eabi/5.1.0/../../../../arm-none-eabi/lib/armv7e-m/softfp/libc_nano.a(lib_a-nano-reallocr.o)
                                                  /usr/lib/gcc/arm-none-eabi/5.1.0/../../../../arm-none-eabi/lib/armv7e-m/softfp/libc_nano.a(lib_a-reent.o)
                                                  /usr/lib/gcc/arm-none-eabi/5.1.0/../../../../arm-none-eabi/lib/armv7e-m/softfp/libc_nano.a(lib_a-nano-svfprintf.o)
                                                  /usr/lib/gcc/arm-none-eabi/5.1.0/../../../../arm-none-eabi/lib/armv7e-m/softfp/libc_nano.a(lib_a-malloc.o)
_global_atexit                                    /usr/lib/gcc/arm-none-eabi/5.1.0/../../../../arm-none-eabi/lib/armv7e-m/softfp/libc_nano.a(lib_a-__call_atexit.o)
                                                  /usr/lib/gcc/arm-none-eabi/5.1.0/../../../../arm-none-eabi/lib/armv7e-m/softfp/libc_nano.a(lib_a-__atexit.o)
_global_impure_ptr                                /usr/lib/gcc/arm-none-eabi/5.1.0/../../../../arm-none-eabi/lib/armv7e-m/softfp/libc_nano.a(lib_a-impure.o)
                                                  /usr/lib/gcc/arm-none-eabi/5.1.0/../../../../arm-none-eabi/lib/armv7e-m/softfp/libc_nano.a(lib_a-exit.o)
_impure_ptr                                       /usr/lib/gcc/arm-none-eabi/5.1.0/../../../../arm-none-eabi/lib/armv7e-m/softfp/libc_nano.a(lib_a-impure.o)
                                                  /usr/lib/gcc/arm-none-eabi/5.1.0/../../../../arm-none-eabi/lib/armv7e-m/softfp/libc_nano.a(lib_a-reent.o)
                                                  /usr/lib/gcc/arm-none-eabi/5.1.0/../../../../arm-none-eabi/lib/armv7e-m/softfp/libc_nano.a(lib_a-sprintf.o)
                                                  /usr/lib/gcc/arm-none-eabi/5.1.0/../../../../arm-none-eabi/lib/armv7e-m/softfp/libc_nano.a(lib_a-malloc.o)
_init                                             /usr/lib/gcc/arm-none-eabi/5.1.0/armv7e-m/softfp/crti.o
                                                  /usr/lib/gcc/arm-none-eabi/5.1.0/../../../../arm-none-eabi/lib/armv7e-m/softfp/libc_nano.a(lib_a-init.o)
_mainCRTStartup                                   /usr/lib/gcc/arm-none-eabi/5.1.0/../../../../arm-none-eabi/lib/armv7e-m/softfp/crt0.o
_malloc_r                                         /usr/lib/gcc/arm-none-eabi/5.1.0/../../../../arm-none-eabi/lib/armv7e-m/softfp/libc_nano.a(lib_a-nano-mallocr.o)
                                                  /usr/lib/gcc/arm-none-eabi/5.1.0/../../../../arm-none-eabi/lib/armv7e-m/softfp/libc_nano.a(lib_a-nano-reallocr.o)
                                                  /usr/lib/gcc/arm-none-eabi/5.1.0/../../../../arm-none-eabi/lib/armv7e-m/softfp/libc_nano.a(lib_a-nano-svfprintf.o)
                                                  /usr/lib/gcc/arm-none-eabi/5.1.0/../../../../arm-none-eabi/lib/armv7e-m/softfp/libc_nano.a(lib_a-malloc.o)
_malloc_usable_size_r                             /usr/lib/gcc/arm-none-eabi/5.1.0/../../../../arm-none-eabi/lib/armv7e-m/softfp/libc_nano.a(lib_a-nano-msizer.o)
                                                  /usr/lib/gcc/arm-none-eabi/5.1.0/../../../../arm-none-eabi/lib/armv7e-m/softfp/libc_nano.a(lib_a-nano-reallocr.o)
_printf_common                                    /usr/lib/gcc/arm-none-eabi/5.1.0/../../../../arm-none-eabi/lib/armv7e-m/softfp/libc_nano.a(lib_a-nano-vfprintf_i.o)
_printf_float                                     /usr/lib/gcc/arm-none-eabi/5.1.0/../../../../arm-none-eabi/lib/armv7e-m/softfp/libc_nano.a(lib_a-nano-svfprintf.o)
_printf_i                                         /usr/lib/gcc/arm-none-eabi/5.1.0/../../../../arm-none-eabi/lib/armv7e-m/softfp/libc_nano.a(lib_a-nano-vfprintf_i.o)
                                                  /usr/lib/gcc/arm-none-eabi/5.1.0/../../../../arm-none-eabi/lib/armv7e-m/softfp/libc_nano.a(lib_a-nano-svfprintf.o)
_realloc_r                                        /usr/lib/gcc/arm-none-eabi/5.1.0/../../../../arm-none-eabi/lib/armv7e-m/softfp/libc_nano.a(lib_a-nano-reallocr.o)
                                                  /usr/lib/gcc/arm-none-eabi/5.1.0/../../../../arm-none-eabi/lib/armv7e-m/softfp/libc_nano.a(lib_a-nano-svfprintf.o)
_reclaim_reent                                    /usr/lib/gcc/arm-none-eabi/5.1.0/../../../../arm-none-eabi/lib/armv7e-m/softfp/libc_nano.a(lib_a-reent.o)
_sbrk                                             /usr/lib/gcc/arm-none-eabi/5.1.0/../../../../arm-none-eabi/lib/armv7e-m/softfp/libnosys.a(sbrk.o)
                                                  /usr/lib/gcc/arm-none-eabi/5.1.0/../../../../arm-none-eabi/lib/armv7e-m/softfp/libc_nano.a(lib_a-sbrkr.o)
_sbrk_r                                           /usr/lib/gcc/arm-none-eabi/5.1.0/../../../../arm-none-eabi/lib/armv7e-m/softfp/libc_nano.a(lib_a-sbrkr.o)
                                                  /usr/lib/gcc/arm-none-eabi/5.1.0/../../../../arm-none-eabi/lib/armv7e-m/softfp/libc_nano.a(lib_a-nano-mallocr.o)
_sbss                                             build/startup_stm32f303xc.o
_sdata                                            build/startup_stm32f303xc.o
_sidata                                           build/startup_stm32f303xc.o
_siprintf_r                                       /usr/lib/gcc/arm-none-eabi/5.1.0/../../../../arm-none-eabi/lib/armv7e-m/softfp/libc_nano.a(lib_a-sprintf.o)
_sprintf_r                                        /usr/lib/gcc/arm-none-eabi/5.1.0/../../../../arm-none-eabi/lib/armv7e-m/softfp/libc_nano.a(lib_a-sprintf.o)
_start                                            /usr/lib/gcc/arm-none-eabi/5.1.0/../../../../arm-none-eabi/lib/armv7e-m/softfp/crt0.o
_svfiprintf_r                                     /usr/lib/gcc/arm-none-eabi/5.1.0/../../../../arm-none-eabi/lib/armv7e-m/softfp/libc_nano.a(lib_a-nano-svfprintf.o)
_svfprintf_r                                      /usr/lib/gcc/arm-none-eabi/5.1.0/../../../../arm-none-eabi/lib/armv7e-m/softfp/libc_nano.a(lib_a-nano-svfprintf.o)
                                                  /usr/lib/gcc/arm-none-eabi/5.1.0/../../../../arm-none-eabi/lib/armv7e-m/softfp/libc_nano.a(lib_a-sprintf.o)
adc1Samples                                       build/main.o
                                                  build/stm32f3xx_it.o
adc2Samples                                       build/main.o
                                                  build/stm32f3xx_it.o
adc3Samples                                       build/main.o
                                                  build/stm32f3xx_it.o
adc4Samples                                       build/main.o
                                                  build/stm32f3xx_it.o
atexit                                            /usr/lib/gcc/arm-none-eabi/5.1.0/../../../../arm-none-eabi/lib/armv7e-m/softfp/libc_nano.a(lib_a-atexit.o)
                                                  /usr/lib/gcc/arm-none-eabi/5.1.0/../../../../arm-none-eabi/lib/armv7e-m/softfp/crt0.o
btnDebounceIRQTimer                               build/main.o
                                                  build/stm32f3xx_it.o
buffer                                            build/hihatchannel.o
cleanup_glue                                      /usr/lib/gcc/arm-none-eabi/5.1.0/../../../../arm-none-eabi/lib/armv7e-m/softfp/libc_nano.a(lib_a-reent.o)
end                                               /usr/lib/gcc/arm-none-eabi/5.1.0/../../../../arm-none-eabi/lib/armv7e-m/softfp/libnosys.a(sbrk.o)
errno                                             /usr/lib/gcc/arm-none-eabi/5.1.0/../../../../arm-none-eabi/lib/armv7e-m/softfp/libc_nano.a(lib_a-reent.o)
                                                  /usr/lib/gcc/arm-none-eabi/5.1.0/../../../../arm-none-eabi/lib/armv7e-m/softfp/libc_nano.a(lib_a-sbrkr.o)
exit                                              /usr/lib/gcc/arm-none-eabi/5.1.0/../../../../arm-none-eabi/lib/armv7e-m/softfp/libc_nano.a(lib_a-exit.o)
                                                  /usr/lib/gcc/arm-none-eabi/5.1.0/../../../../arm-none-eabi/lib/armv7e-m/softfp/crt0.o
free                                              /usr/lib/gcc/arm-none-eabi/5.1.0/../../../../arm-none-eabi/lib/armv7e-m/softfp/libc_nano.a(lib_a-malloc.o)
                                                  /usr/lib/gcc/arm-none-eabi/5.1.0/../../../../arm-none-eabi/lib/armv7e-m/softfp/libc_nano.a(lib_a-__call_atexit.o)
                                                  build/midi.o
                                                  build/usbd_conf.o
g_pfnVectors                                      build/startup_stm32f303xc.o
hUsbDeviceFS                                      build/usb_device.o
                                                  build/usbd_audio_if.o
hUsbDevice_0                                      build/usbd_audio_if.o
hadc1                                             build/adc.o
                                                  build/stm32f3xx_it.o
hadc2                                             build/adc.o
                                                  build/stm32f3xx_it.o
hadc3                                             build/adc.o
                                                  build/stm32f3xx_it.o
hadc4                                             build/adc.o
                                                  build/stm32f3xx_it.o
hardware_init_hook                                /usr/lib/gcc/arm-none-eabi/5.1.0/../../../../arm-none-eabi/lib/armv7e-m/softfp/crt0.o
hdma_adc1                                         build/adc.o
hdma_adc2                                         build/adc.o
hdma_adc3                                         build/adc.o
hdma_adc4                                         build/adc.o
hiHatChannels                                     build/main.o
hihatchannel_init                                 build/hihatchannel.o
                                                  build/main.o
hihatchannel_onChange                             build/hihatchannel.o
hihatchannel_process                              build/hihatchannel.o
                                                  build/main.o
hpcd_USB_FS                                       build/usbd_conf.o
                                                  build/stm32f3xx_it.o
hspi2                                             build/spi.o
                                                  build/mcp4251.o
htim1                                             build/tim.o
                                                  build/stm32f3xx_it.o
                                                  build/main.o
htim2                                             build/tim.o
                                                  build/stm32f3xx_it.o
                                                  build/main.o
htim3                                             build/tim.o
                                                  build/stm32f3xx_it.o
                                                  build/main.o
huart1                                            build/usart.o
                                                  build/hihatchannel.o
                                                  build/stm32f3xx_it.o
                                                  build/main.o
huart3                                            build/usart.o
                                                  build/midi.o
                                                  build/stm32f3xx_it.o
                                                  build/main.o
initHeadChannels                                  build/main.o
initHiHatChannels                                 build/main.o
initRimChannels                                   build/main.o
irqflag_btns                                      build/main.o
                                                  build/stm32f3xx_it.o
irqflag_timer1                                    build/main.o
                                                  build/stm32f3xx_it.o
irqflag_timer2                                    build/main.o
                                                  build/stm32f3xx_it.o
irqflag_timer3                                    build/main.o
main                                              build/main.o
                                                  build/startup_stm32f303xc.o
                                                  /usr/lib/gcc/arm-none-eabi/5.1.0/../../../../arm-none-eabi/lib/armv7e-m/softfp/crt0.o
malloc                                            /usr/lib/gcc/arm-none-eabi/5.1.0/../../../../arm-none-eabi/lib/armv7e-m/softfp/libc_nano.a(lib_a-malloc.o)
                                                  /usr/lib/gcc/arm-none-eabi/5.1.0/../../../../arm-none-eabi/lib/armv7e-m/softfp/libc_nano.a(lib_a-__atexit.o)
                                                  build/midi.o
                                                  build/triggerchannel.o
mcp4261_setWiperPosition                          build/mcp4251.o
                                                  build/triggerchannel.o
memchr                                            /usr/lib/gcc/arm-none-eabi/5.1.0/../../../../arm-none-eabi/lib/armv7e-m/softfp/libc_nano.a(lib_a-memchr.o)
                                                  /usr/lib/gcc/arm-none-eabi/5.1.0/../../../../arm-none-eabi/lib/armv7e-m/softfp/libc_nano.a(lib_a-nano-vfprintf_i.o)
                                                  /usr/lib/gcc/arm-none-eabi/5.1.0/../../../../arm-none-eabi/lib/armv7e-m/softfp/libc_nano.a(lib_a-nano-svfprintf.o)
memcpy                                            /usr/lib/gcc/arm-none-eabi/5.1.0/../../../../arm-none-eabi/lib/armv7e-m/softfp/libc_nano.a(lib_a-memcpy.o)
                                                  /usr/lib/gcc/arm-none-eabi/5.1.0/../../../../arm-none-eabi/lib/armv7e-m/softfp/libc_nano.a(lib_a-nano-reallocr.o)
                                                  /usr/lib/gcc/arm-none-eabi/5.1.0/../../../../arm-none-eabi/lib/armv7e-m/softfp/libc_nano.a(lib_a-nano-svfprintf.o)
                                                  build/midi.o
memmove                                           /usr/lib/gcc/arm-none-eabi/5.1.0/../../../../arm-none-eabi/lib/armv7e-m/softfp/libc_nano.a(lib_a-memmove.o)
                                                  /usr/lib/gcc/arm-none-eabi/5.1.0/../../../../arm-none-eabi/lib/armv7e-m/softfp/libc_nano.a(lib_a-nano-svfprintf.o)
memset                                            /usr/lib/gcc/arm-none-eabi/5.1.0/../../../../arm-none-eabi/lib/armv7e-m/softfp/libc_nano.a(lib_a-memset.o)
                                                  build/usbd_audio.o
                                                  /usr/lib/gcc/arm-none-eabi/5.1.0/../../../../arm-none-eabi/lib/armv7e-m/softfp/crt0.o
midi_MessageBuffer                                build/midi.o
                                                  build/hihatchannel.o
                                                  build/main.o
midi_TxBuffer                                     build/midi.o
                                                  build/hihatchannel.o
                                                  build/main.o
midi_createmessage                                build/midi.o
midi_messageBufferReadHead                        build/midi.o
                                                  build/hihatchannel.o
                                                  build/main.o
midi_messageBufferWriteHead                       build/midi.o
                                                  build/hihatchannel.o
                                                  build/main.o
midi_onTxComplete                                 build/midi.o
                                                  build/main.o
midi_sendControlChange                            build/midi.o
                                                  build/hihatchannel.o
midi_sendNextMessage                              build/midi.o
midi_sendNote                                     build/midi.o
                                                  build/hihatchannel.o
                                                  build/triggerchannel.o
                                                  build/main.o
onBtn0Triggered                                   build/main.o
onBtn1Triggered                                   build/main.o
onBtn2Triggered                                   build/main.o
onTimer1Triggered                                 build/main.o
onTimer2Triggered                                 build/main.o
pFlash                                            build/stm32f3xx_hal_flash.o
                                                  build/stm32f3xx_hal_flash_ex.o
performance_setIdle1                              build/performance.o
performance_setIdle2                              build/performance.o
performance_setProcessing1                        build/performance.o
performance_setProcessing2                        build/performance.o
remotewakeupon                                    build/usbd_conf.o
siprintf                                          /usr/lib/gcc/arm-none-eabi/5.1.0/../../../../arm-none-eabi/lib/armv7e-m/softfp/libc_nano.a(lib_a-sprintf.o)
software_init_hook                                /usr/lib/gcc/arm-none-eabi/5.1.0/../../../../arm-none-eabi/lib/armv7e-m/softfp/crt0.o
sprintf                                           /usr/lib/gcc/arm-none-eabi/5.1.0/../../../../arm-none-eabi/lib/armv7e-m/softfp/libc_nano.a(lib_a-sprintf.o)
                                                  build/hihatchannel.o
triggerChannelsHead                               build/main.o
triggerChannelsRim                                build/main.o
triggerchannel_addSample                          build/triggerchannel.o
triggerchannel_getLastSample                      build/triggerchannel.o
triggerchannel_getLastSamplesMax                  build/triggerchannel.o
triggerchannel_init                               build/triggerchannel.o
                                                  build/main.o
triggerchannel_process                            build/triggerchannel.o
                                                  build/main.o
triggerchannel_process_monitor                    build/triggerchannel.o
triggerchannel_process_triggerevent               build/triggerchannel.o
triggerchannel_setWiper                           build/triggerchannel.o
                                                  build/main.o
triggerchannel_transition_monitor_triggerevent    build/triggerchannel.o
triggerchannel_transition_triggerevent_monitor    build/triggerchannel.o
