ARM GAS  /tmp/cc9XGz2z.s 			page 1


   1              		.syntax unified
   2              		.cpu cortex-m4
   3              		.eabi_attribute 27, 1
   4              		.fpu fpv4-sp-d16
   5              		.eabi_attribute 20, 1
   6              		.eabi_attribute 21, 1
   7              		.eabi_attribute 23, 3
   8              		.eabi_attribute 24, 1
   9              		.eabi_attribute 25, 1
  10              		.eabi_attribute 26, 1
  11              		.eabi_attribute 30, 6
  12              		.eabi_attribute 34, 1
  13              		.eabi_attribute 18, 4
  14              		.thumb
  15              		.syntax unified
  16              		.file	"performance.c"
  17              		.text
  18              	.Ltext0:
  19              		.cfi_sections	.debug_frame
  20              		.section	.text.performance_setProcessing1,"ax",%progbits
  21              		.align	2
  22              		.global	performance_setProcessing1
  23              		.thumb
  24              		.thumb_func
  26              	performance_setProcessing1:
  27              	.LFB112:
  28              		.file 1 "Src/performance.c"
   1:Src/performance.c **** /*
   2:Src/performance.c ****  * performance_measurement.c
   3:Src/performance.c ****  *
   4:Src/performance.c ****  *  Created on: 23.05.2015
   5:Src/performance.c ****  *      Author: raphael
   6:Src/performance.c ****  */
   7:Src/performance.c **** 
   8:Src/performance.c **** #include "performance.h"
   9:Src/performance.c **** 
  10:Src/performance.c **** void performance_setProcessing1(){
  29              		.loc 1 10 0
  30              		.cfi_startproc
  31              		@ args = 0, pretend = 0, frame = 0
  32              		@ frame_needed = 1, uses_anonymous_args = 0
  33 0000 80B5     		push	{r7, lr}
  34              	.LCFI0:
  35              		.cfi_def_cfa_offset 8
  36              		.cfi_offset 7, -8
  37              		.cfi_offset 14, -4
  38 0002 00AF     		add	r7, sp, #0
  39              	.LCFI1:
  40              		.cfi_def_cfa_register 7
  11:Src/performance.c **** 	HAL_GPIO_WritePin(PERFORMANCE_PORT1, PERFORMANCE_PIN1, GPIO_PIN_SET);
  41              		.loc 1 11 0
  42 0004 0122     		movs	r2, #1
  43 0006 4FF48051 		mov	r1, #4096
  44 000a 0248     		ldr	r0, .L2
  45 000c FFF7FEFF 		bl	HAL_GPIO_WritePin
  12:Src/performance.c **** }
  46              		.loc 1 12 0
ARM GAS  /tmp/cc9XGz2z.s 			page 2


  47 0010 00BF     		nop
  48 0012 80BD     		pop	{r7, pc}
  49              	.L3:
  50              		.align	2
  51              	.L2:
  52 0014 00100048 		.word	1207963648
  53              		.cfi_endproc
  54              	.LFE112:
  56              		.section	.text.performance_setIdle1,"ax",%progbits
  57              		.align	2
  58              		.global	performance_setIdle1
  59              		.thumb
  60              		.thumb_func
  62              	performance_setIdle1:
  63              	.LFB113:
  13:Src/performance.c **** 
  14:Src/performance.c **** void performance_setIdle1(){
  64              		.loc 1 14 0
  65              		.cfi_startproc
  66              		@ args = 0, pretend = 0, frame = 0
  67              		@ frame_needed = 1, uses_anonymous_args = 0
  68 0000 80B5     		push	{r7, lr}
  69              	.LCFI2:
  70              		.cfi_def_cfa_offset 8
  71              		.cfi_offset 7, -8
  72              		.cfi_offset 14, -4
  73 0002 00AF     		add	r7, sp, #0
  74              	.LCFI3:
  75              		.cfi_def_cfa_register 7
  15:Src/performance.c **** 	HAL_GPIO_WritePin(PERFORMANCE_PORT1, PERFORMANCE_PIN1, GPIO_PIN_RESET);
  76              		.loc 1 15 0
  77 0004 0022     		movs	r2, #0
  78 0006 4FF48051 		mov	r1, #4096
  79 000a 0248     		ldr	r0, .L5
  80 000c FFF7FEFF 		bl	HAL_GPIO_WritePin
  16:Src/performance.c **** 
  17:Src/performance.c **** }
  81              		.loc 1 17 0
  82 0010 00BF     		nop
  83 0012 80BD     		pop	{r7, pc}
  84              	.L6:
  85              		.align	2
  86              	.L5:
  87 0014 00100048 		.word	1207963648
  88              		.cfi_endproc
  89              	.LFE113:
  91              		.section	.text.performance_setProcessing2,"ax",%progbits
  92              		.align	2
  93              		.global	performance_setProcessing2
  94              		.thumb
  95              		.thumb_func
  97              	performance_setProcessing2:
  98              	.LFB114:
  18:Src/performance.c **** 
  19:Src/performance.c **** 
  20:Src/performance.c **** void performance_setProcessing2(){
  99              		.loc 1 20 0
ARM GAS  /tmp/cc9XGz2z.s 			page 3


 100              		.cfi_startproc
 101              		@ args = 0, pretend = 0, frame = 0
 102              		@ frame_needed = 1, uses_anonymous_args = 0
 103 0000 80B5     		push	{r7, lr}
 104              	.LCFI4:
 105              		.cfi_def_cfa_offset 8
 106              		.cfi_offset 7, -8
 107              		.cfi_offset 14, -4
 108 0002 00AF     		add	r7, sp, #0
 109              	.LCFI5:
 110              		.cfi_def_cfa_register 7
  21:Src/performance.c **** 	HAL_GPIO_WritePin(PERFORMANCE_PORT2, PERFORMANCE_PIN2, GPIO_PIN_SET);
 111              		.loc 1 21 0
 112 0004 0122     		movs	r2, #1
 113 0006 4FF40061 		mov	r1, #2048
 114 000a 0248     		ldr	r0, .L8
 115 000c FFF7FEFF 		bl	HAL_GPIO_WritePin
  22:Src/performance.c **** }
 116              		.loc 1 22 0
 117 0010 00BF     		nop
 118 0012 80BD     		pop	{r7, pc}
 119              	.L9:
 120              		.align	2
 121              	.L8:
 122 0014 00100048 		.word	1207963648
 123              		.cfi_endproc
 124              	.LFE114:
 126              		.section	.text.performance_setIdle2,"ax",%progbits
 127              		.align	2
 128              		.global	performance_setIdle2
 129              		.thumb
 130              		.thumb_func
 132              	performance_setIdle2:
 133              	.LFB115:
  23:Src/performance.c **** 
  24:Src/performance.c **** void performance_setIdle2(){
 134              		.loc 1 24 0
 135              		.cfi_startproc
 136              		@ args = 0, pretend = 0, frame = 0
 137              		@ frame_needed = 1, uses_anonymous_args = 0
 138 0000 80B5     		push	{r7, lr}
 139              	.LCFI6:
 140              		.cfi_def_cfa_offset 8
 141              		.cfi_offset 7, -8
 142              		.cfi_offset 14, -4
 143 0002 00AF     		add	r7, sp, #0
 144              	.LCFI7:
 145              		.cfi_def_cfa_register 7
  25:Src/performance.c **** 	HAL_GPIO_WritePin(PERFORMANCE_PORT2, PERFORMANCE_PIN2, GPIO_PIN_RESET);
 146              		.loc 1 25 0
 147 0004 0022     		movs	r2, #0
 148 0006 4FF40061 		mov	r1, #2048
 149 000a 0248     		ldr	r0, .L11
 150 000c FFF7FEFF 		bl	HAL_GPIO_WritePin
  26:Src/performance.c **** 
  27:Src/performance.c **** }
 151              		.loc 1 27 0
ARM GAS  /tmp/cc9XGz2z.s 			page 4


 152 0010 00BF     		nop
 153 0012 80BD     		pop	{r7, pc}
 154              	.L12:
 155              		.align	2
 156              	.L11:
 157 0014 00100048 		.word	1207963648
 158              		.cfi_endproc
 159              	.LFE115:
 161              		.text
 162              	.Letext0:
 163              		.file 2 "/usr/arm-none-eabi/include/machine/_default_types.h"
 164              		.file 3 "/usr/arm-none-eabi/include/sys/_stdint.h"
 165              		.file 4 "Drivers/CMSIS/Device/ST/STM32F3xx/Include/stm32f303xc.h"
 166              		.file 5 "Drivers/STM32F3xx_HAL_Driver/Inc/stm32f3xx_hal_gpio.h"
 167              		.file 6 "Drivers/CMSIS/Include/core_cm4.h"
ARM GAS  /tmp/cc9XGz2z.s 			page 5

