ARM GAS  /tmp/ccAhm58A.s 			page 1


   1              		.syntax unified
   2              		.cpu cortex-m4
   3              		.eabi_attribute 27, 1
   4              		.fpu fpv4-sp-d16
   5              		.eabi_attribute 20, 1
   6              		.eabi_attribute 21, 1
   7              		.eabi_attribute 23, 3
   8              		.eabi_attribute 24, 1
   9              		.eabi_attribute 25, 1
  10              		.eabi_attribute 26, 1
  11              		.eabi_attribute 30, 6
  12              		.eabi_attribute 34, 1
  13              		.eabi_attribute 18, 4
  14              		.thumb
  15              		.syntax unified
  16              		.file	"stm32f3xx_hal_flash_ex.c"
  17              		.text
  18              	.Ltext0:
  19              		.cfi_sections	.debug_frame
  20              		.section	.text.HAL_FLASHEx_Erase,"ax",%progbits
  21              		.align	2
  22              		.global	HAL_FLASHEx_Erase
  23              		.thumb
  24              		.thumb_func
  26              	HAL_FLASHEx_Erase:
  27              	.LFB112:
  28              		.file 1 "Drivers/STM32F3xx_HAL_Driver/Src/stm32f3xx_hal_flash_ex.c"
   1:Drivers/STM32F3xx_HAL_Driver/Src/stm32f3xx_hal_flash_ex.c **** /**
   2:Drivers/STM32F3xx_HAL_Driver/Src/stm32f3xx_hal_flash_ex.c ****   ******************************************************************************
   3:Drivers/STM32F3xx_HAL_Driver/Src/stm32f3xx_hal_flash_ex.c ****   * @file    stm32f3xx_hal_flash_ex.c
   4:Drivers/STM32F3xx_HAL_Driver/Src/stm32f3xx_hal_flash_ex.c ****   * @author  MCD Application Team
   5:Drivers/STM32F3xx_HAL_Driver/Src/stm32f3xx_hal_flash_ex.c ****   * @version V1.1.0
   6:Drivers/STM32F3xx_HAL_Driver/Src/stm32f3xx_hal_flash_ex.c ****   * @date    12-Sept-2014
   7:Drivers/STM32F3xx_HAL_Driver/Src/stm32f3xx_hal_flash_ex.c ****   * @brief   Extended FLASH HAL module driver.
   8:Drivers/STM32F3xx_HAL_Driver/Src/stm32f3xx_hal_flash_ex.c ****   *    
   9:Drivers/STM32F3xx_HAL_Driver/Src/stm32f3xx_hal_flash_ex.c ****   *          This file provides firmware functions to manage the following 
  10:Drivers/STM32F3xx_HAL_Driver/Src/stm32f3xx_hal_flash_ex.c ****   *          functionalities of the FLASH peripheral:
  11:Drivers/STM32F3xx_HAL_Driver/Src/stm32f3xx_hal_flash_ex.c ****   *           + Extended Initialization/de-initialization functions
  12:Drivers/STM32F3xx_HAL_Driver/Src/stm32f3xx_hal_flash_ex.c ****   *           + Extended I/O operation functions
  13:Drivers/STM32F3xx_HAL_Driver/Src/stm32f3xx_hal_flash_ex.c ****   *           + Extended Peripheral Control functions 
  14:Drivers/STM32F3xx_HAL_Driver/Src/stm32f3xx_hal_flash_ex.c ****   *           + Extended Peripheral State functions
  15:Drivers/STM32F3xx_HAL_Driver/Src/stm32f3xx_hal_flash_ex.c ****   *         
  16:Drivers/STM32F3xx_HAL_Driver/Src/stm32f3xx_hal_flash_ex.c ****   @verbatim
  17:Drivers/STM32F3xx_HAL_Driver/Src/stm32f3xx_hal_flash_ex.c ****   ==============================================================================
  18:Drivers/STM32F3xx_HAL_Driver/Src/stm32f3xx_hal_flash_ex.c ****                ##### Flash peripheral extended features  #####
  19:Drivers/STM32F3xx_HAL_Driver/Src/stm32f3xx_hal_flash_ex.c ****   ==============================================================================
  20:Drivers/STM32F3xx_HAL_Driver/Src/stm32f3xx_hal_flash_ex.c ****            
  21:Drivers/STM32F3xx_HAL_Driver/Src/stm32f3xx_hal_flash_ex.c ****                       ##### How to use this driver #####
  22:Drivers/STM32F3xx_HAL_Driver/Src/stm32f3xx_hal_flash_ex.c ****   ==============================================================================
  23:Drivers/STM32F3xx_HAL_Driver/Src/stm32f3xx_hal_flash_ex.c ****   [..] This driver provides functions to configure and program the FLASH memory 
  24:Drivers/STM32F3xx_HAL_Driver/Src/stm32f3xx_hal_flash_ex.c ****        of all STM32F3xxx devices. It includes
  25:Drivers/STM32F3xx_HAL_Driver/Src/stm32f3xx_hal_flash_ex.c ****        
  26:Drivers/STM32F3xx_HAL_Driver/Src/stm32f3xx_hal_flash_ex.c ****         (++) Set/Reset the write protection
  27:Drivers/STM32F3xx_HAL_Driver/Src/stm32f3xx_hal_flash_ex.c ****         (++) Program the user Option Bytes
  28:Drivers/STM32F3xx_HAL_Driver/Src/stm32f3xx_hal_flash_ex.c ****         (++) Get the Read protection Level
  29:Drivers/STM32F3xx_HAL_Driver/Src/stm32f3xx_hal_flash_ex.c ****   
  30:Drivers/STM32F3xx_HAL_Driver/Src/stm32f3xx_hal_flash_ex.c ****   @endverbatim
ARM GAS  /tmp/ccAhm58A.s 			page 2


  31:Drivers/STM32F3xx_HAL_Driver/Src/stm32f3xx_hal_flash_ex.c ****   ******************************************************************************
  32:Drivers/STM32F3xx_HAL_Driver/Src/stm32f3xx_hal_flash_ex.c ****   * @attention
  33:Drivers/STM32F3xx_HAL_Driver/Src/stm32f3xx_hal_flash_ex.c ****   *
  34:Drivers/STM32F3xx_HAL_Driver/Src/stm32f3xx_hal_flash_ex.c ****   * <h2><center>&copy; COPYRIGHT(c) 2014 STMicroelectronics</center></h2>
  35:Drivers/STM32F3xx_HAL_Driver/Src/stm32f3xx_hal_flash_ex.c ****   *
  36:Drivers/STM32F3xx_HAL_Driver/Src/stm32f3xx_hal_flash_ex.c ****   * Redistribution and use in source and binary forms, with or without modification,
  37:Drivers/STM32F3xx_HAL_Driver/Src/stm32f3xx_hal_flash_ex.c ****   * are permitted provided that the following conditions are met:
  38:Drivers/STM32F3xx_HAL_Driver/Src/stm32f3xx_hal_flash_ex.c ****   *   1. Redistributions of source code must retain the above copyright notice,
  39:Drivers/STM32F3xx_HAL_Driver/Src/stm32f3xx_hal_flash_ex.c ****   *      this list of conditions and the following disclaimer.
  40:Drivers/STM32F3xx_HAL_Driver/Src/stm32f3xx_hal_flash_ex.c ****   *   2. Redistributions in binary form must reproduce the above copyright notice,
  41:Drivers/STM32F3xx_HAL_Driver/Src/stm32f3xx_hal_flash_ex.c ****   *      this list of conditions and the following disclaimer in the documentation
  42:Drivers/STM32F3xx_HAL_Driver/Src/stm32f3xx_hal_flash_ex.c ****   *      and/or other materials provided with the distribution.
  43:Drivers/STM32F3xx_HAL_Driver/Src/stm32f3xx_hal_flash_ex.c ****   *   3. Neither the name of STMicroelectronics nor the names of its contributors
  44:Drivers/STM32F3xx_HAL_Driver/Src/stm32f3xx_hal_flash_ex.c ****   *      may be used to endorse or promote products derived from this software
  45:Drivers/STM32F3xx_HAL_Driver/Src/stm32f3xx_hal_flash_ex.c ****   *      without specific prior written permission.
  46:Drivers/STM32F3xx_HAL_Driver/Src/stm32f3xx_hal_flash_ex.c ****   *
  47:Drivers/STM32F3xx_HAL_Driver/Src/stm32f3xx_hal_flash_ex.c ****   * THIS SOFTWARE IS PROVIDED BY THE COPYRIGHT HOLDERS AND CONTRIBUTORS "AS IS"
  48:Drivers/STM32F3xx_HAL_Driver/Src/stm32f3xx_hal_flash_ex.c ****   * AND ANY EXPRESS OR IMPLIED WARRANTIES, INCLUDING, BUT NOT LIMITED TO, THE
  49:Drivers/STM32F3xx_HAL_Driver/Src/stm32f3xx_hal_flash_ex.c ****   * IMPLIED WARRANTIES OF MERCHANTABILITY AND FITNESS FOR A PARTICULAR PURPOSE ARE
  50:Drivers/STM32F3xx_HAL_Driver/Src/stm32f3xx_hal_flash_ex.c ****   * DISCLAIMED. IN NO EVENT SHALL THE COPYRIGHT HOLDER OR CONTRIBUTORS BE LIABLE
  51:Drivers/STM32F3xx_HAL_Driver/Src/stm32f3xx_hal_flash_ex.c ****   * FOR ANY DIRECT, INDIRECT, INCIDENTAL, SPECIAL, EXEMPLARY, OR CONSEQUENTIAL
  52:Drivers/STM32F3xx_HAL_Driver/Src/stm32f3xx_hal_flash_ex.c ****   * DAMAGES (INCLUDING, BUT NOT LIMITED TO, PROCUREMENT OF SUBSTITUTE GOODS OR
  53:Drivers/STM32F3xx_HAL_Driver/Src/stm32f3xx_hal_flash_ex.c ****   * SERVICES; LOSS OF USE, DATA, OR PROFITS; OR BUSINESS INTERRUPTION) HOWEVER
  54:Drivers/STM32F3xx_HAL_Driver/Src/stm32f3xx_hal_flash_ex.c ****   * CAUSED AND ON ANY THEORY OF LIABILITY, WHETHER IN CONTRACT, STRICT LIABILITY,
  55:Drivers/STM32F3xx_HAL_Driver/Src/stm32f3xx_hal_flash_ex.c ****   * OR TORT (INCLUDING NEGLIGENCE OR OTHERWISE) ARISING IN ANY WAY OUT OF THE USE
  56:Drivers/STM32F3xx_HAL_Driver/Src/stm32f3xx_hal_flash_ex.c ****   * OF THIS SOFTWARE, EVEN IF ADVISED OF THE POSSIBILITY OF SUCH DAMAGE.
  57:Drivers/STM32F3xx_HAL_Driver/Src/stm32f3xx_hal_flash_ex.c ****   *
  58:Drivers/STM32F3xx_HAL_Driver/Src/stm32f3xx_hal_flash_ex.c ****   ******************************************************************************  
  59:Drivers/STM32F3xx_HAL_Driver/Src/stm32f3xx_hal_flash_ex.c ****   */
  60:Drivers/STM32F3xx_HAL_Driver/Src/stm32f3xx_hal_flash_ex.c **** 
  61:Drivers/STM32F3xx_HAL_Driver/Src/stm32f3xx_hal_flash_ex.c **** /* Includes ------------------------------------------------------------------*/
  62:Drivers/STM32F3xx_HAL_Driver/Src/stm32f3xx_hal_flash_ex.c **** #include "stm32f3xx_hal.h"
  63:Drivers/STM32F3xx_HAL_Driver/Src/stm32f3xx_hal_flash_ex.c **** 
  64:Drivers/STM32F3xx_HAL_Driver/Src/stm32f3xx_hal_flash_ex.c **** /** @addtogroup STM32F3xx_HAL_Driver
  65:Drivers/STM32F3xx_HAL_Driver/Src/stm32f3xx_hal_flash_ex.c ****   * @{
  66:Drivers/STM32F3xx_HAL_Driver/Src/stm32f3xx_hal_flash_ex.c ****   */
  67:Drivers/STM32F3xx_HAL_Driver/Src/stm32f3xx_hal_flash_ex.c **** 
  68:Drivers/STM32F3xx_HAL_Driver/Src/stm32f3xx_hal_flash_ex.c **** /** @addtogroup FLASHEx FLASH Extended HAL module driver
  69:Drivers/STM32F3xx_HAL_Driver/Src/stm32f3xx_hal_flash_ex.c ****   * @brief FLASH Extended HAL module driver
  70:Drivers/STM32F3xx_HAL_Driver/Src/stm32f3xx_hal_flash_ex.c ****   * @{
  71:Drivers/STM32F3xx_HAL_Driver/Src/stm32f3xx_hal_flash_ex.c ****   */
  72:Drivers/STM32F3xx_HAL_Driver/Src/stm32f3xx_hal_flash_ex.c **** 
  73:Drivers/STM32F3xx_HAL_Driver/Src/stm32f3xx_hal_flash_ex.c **** #ifdef HAL_FLASH_MODULE_ENABLED
  74:Drivers/STM32F3xx_HAL_Driver/Src/stm32f3xx_hal_flash_ex.c **** 
  75:Drivers/STM32F3xx_HAL_Driver/Src/stm32f3xx_hal_flash_ex.c **** /* Private typedef -----------------------------------------------------------*/
  76:Drivers/STM32F3xx_HAL_Driver/Src/stm32f3xx_hal_flash_ex.c **** /* Private define ------------------------------------------------------------*/
  77:Drivers/STM32F3xx_HAL_Driver/Src/stm32f3xx_hal_flash_ex.c **** /** @defgroup FLASHEx_Private_Defines FLASH Extended Private Define
  78:Drivers/STM32F3xx_HAL_Driver/Src/stm32f3xx_hal_flash_ex.c ****  * @{
  79:Drivers/STM32F3xx_HAL_Driver/Src/stm32f3xx_hal_flash_ex.c ****  */
  80:Drivers/STM32F3xx_HAL_Driver/Src/stm32f3xx_hal_flash_ex.c **** #define HAL_FLASH_TIMEOUT_VALUE   ((uint32_t)50000)/* 50 s */
  81:Drivers/STM32F3xx_HAL_Driver/Src/stm32f3xx_hal_flash_ex.c **** /**
  82:Drivers/STM32F3xx_HAL_Driver/Src/stm32f3xx_hal_flash_ex.c ****   * @}
  83:Drivers/STM32F3xx_HAL_Driver/Src/stm32f3xx_hal_flash_ex.c ****   */
  84:Drivers/STM32F3xx_HAL_Driver/Src/stm32f3xx_hal_flash_ex.c **** 
  85:Drivers/STM32F3xx_HAL_Driver/Src/stm32f3xx_hal_flash_ex.c **** /* Private macro -------------------------------------------------------------*/
  86:Drivers/STM32F3xx_HAL_Driver/Src/stm32f3xx_hal_flash_ex.c **** /* Private variables ---------------------------------------------------------*/
  87:Drivers/STM32F3xx_HAL_Driver/Src/stm32f3xx_hal_flash_ex.c **** /** @defgroup FLASHEx_Private_Variables FLASH Extended Private Variables
ARM GAS  /tmp/ccAhm58A.s 			page 3


  88:Drivers/STM32F3xx_HAL_Driver/Src/stm32f3xx_hal_flash_ex.c ****  * @{
  89:Drivers/STM32F3xx_HAL_Driver/Src/stm32f3xx_hal_flash_ex.c ****  */
  90:Drivers/STM32F3xx_HAL_Driver/Src/stm32f3xx_hal_flash_ex.c **** /* Variables used for Erase pages under interruption*/
  91:Drivers/STM32F3xx_HAL_Driver/Src/stm32f3xx_hal_flash_ex.c **** extern FLASH_ProcessTypeDef pFlash;
  92:Drivers/STM32F3xx_HAL_Driver/Src/stm32f3xx_hal_flash_ex.c **** /**
  93:Drivers/STM32F3xx_HAL_Driver/Src/stm32f3xx_hal_flash_ex.c ****   * @}
  94:Drivers/STM32F3xx_HAL_Driver/Src/stm32f3xx_hal_flash_ex.c ****   */
  95:Drivers/STM32F3xx_HAL_Driver/Src/stm32f3xx_hal_flash_ex.c **** 
  96:Drivers/STM32F3xx_HAL_Driver/Src/stm32f3xx_hal_flash_ex.c **** /* Private function prototypes -----------------------------------------------*/
  97:Drivers/STM32F3xx_HAL_Driver/Src/stm32f3xx_hal_flash_ex.c **** /** @defgroup FLASHEx_Private_Functions FLASH Extended Private Functions
  98:Drivers/STM32F3xx_HAL_Driver/Src/stm32f3xx_hal_flash_ex.c ****  * @{
  99:Drivers/STM32F3xx_HAL_Driver/Src/stm32f3xx_hal_flash_ex.c ****  */
 100:Drivers/STM32F3xx_HAL_Driver/Src/stm32f3xx_hal_flash_ex.c **** /* Erase operations */
 101:Drivers/STM32F3xx_HAL_Driver/Src/stm32f3xx_hal_flash_ex.c **** static void              FLASH_MassErase(void);
 102:Drivers/STM32F3xx_HAL_Driver/Src/stm32f3xx_hal_flash_ex.c **** 
 103:Drivers/STM32F3xx_HAL_Driver/Src/stm32f3xx_hal_flash_ex.c **** /* Option bytes control */
 104:Drivers/STM32F3xx_HAL_Driver/Src/stm32f3xx_hal_flash_ex.c **** static HAL_StatusTypeDef FLASH_OB_EnableWRP(uint32_t WriteProtectPage);
 105:Drivers/STM32F3xx_HAL_Driver/Src/stm32f3xx_hal_flash_ex.c **** static HAL_StatusTypeDef FLASH_OB_DisableWRP(uint32_t WriteProtectPage);
 106:Drivers/STM32F3xx_HAL_Driver/Src/stm32f3xx_hal_flash_ex.c **** static HAL_StatusTypeDef FLASH_OB_RDP_LevelConfig(uint8_t ReadProtectLevel);
 107:Drivers/STM32F3xx_HAL_Driver/Src/stm32f3xx_hal_flash_ex.c **** static HAL_StatusTypeDef FLASH_OB_UserConfig(uint8_t UserConfig);
 108:Drivers/STM32F3xx_HAL_Driver/Src/stm32f3xx_hal_flash_ex.c **** static HAL_StatusTypeDef FLASH_OB_ProgramData(uint32_t Address, uint8_t Data);
 109:Drivers/STM32F3xx_HAL_Driver/Src/stm32f3xx_hal_flash_ex.c **** static uint32_t          FLASH_OB_GetWRP(void);
 110:Drivers/STM32F3xx_HAL_Driver/Src/stm32f3xx_hal_flash_ex.c **** static FlagStatus        FLASH_OB_GetRDP(void);
 111:Drivers/STM32F3xx_HAL_Driver/Src/stm32f3xx_hal_flash_ex.c **** static uint8_t           FLASH_OB_GetUser(void);
 112:Drivers/STM32F3xx_HAL_Driver/Src/stm32f3xx_hal_flash_ex.c **** /**
 113:Drivers/STM32F3xx_HAL_Driver/Src/stm32f3xx_hal_flash_ex.c ****   * @}
 114:Drivers/STM32F3xx_HAL_Driver/Src/stm32f3xx_hal_flash_ex.c ****   */
 115:Drivers/STM32F3xx_HAL_Driver/Src/stm32f3xx_hal_flash_ex.c **** 
 116:Drivers/STM32F3xx_HAL_Driver/Src/stm32f3xx_hal_flash_ex.c **** /* Exported functions ---------------------------------------------------------*/
 117:Drivers/STM32F3xx_HAL_Driver/Src/stm32f3xx_hal_flash_ex.c **** /** @defgroup FLASHEx_Exported_Functions FLASH Extended Exported Functions
 118:Drivers/STM32F3xx_HAL_Driver/Src/stm32f3xx_hal_flash_ex.c ****   * @{
 119:Drivers/STM32F3xx_HAL_Driver/Src/stm32f3xx_hal_flash_ex.c ****   */
 120:Drivers/STM32F3xx_HAL_Driver/Src/stm32f3xx_hal_flash_ex.c ****   
 121:Drivers/STM32F3xx_HAL_Driver/Src/stm32f3xx_hal_flash_ex.c **** /** @defgroup FLASHEx_Exported_Functions_Group1 Extended Input and Output operation functions
 122:Drivers/STM32F3xx_HAL_Driver/Src/stm32f3xx_hal_flash_ex.c ****   * @brief      I/O operation functions
 123:Drivers/STM32F3xx_HAL_Driver/Src/stm32f3xx_hal_flash_ex.c ****   *
 124:Drivers/STM32F3xx_HAL_Driver/Src/stm32f3xx_hal_flash_ex.c **** @verbatim   
 125:Drivers/STM32F3xx_HAL_Driver/Src/stm32f3xx_hal_flash_ex.c ****  ===============================================================================
 126:Drivers/STM32F3xx_HAL_Driver/Src/stm32f3xx_hal_flash_ex.c ****                       ##### IO operation functions #####
 127:Drivers/STM32F3xx_HAL_Driver/Src/stm32f3xx_hal_flash_ex.c ****  ===============================================================================  
 128:Drivers/STM32F3xx_HAL_Driver/Src/stm32f3xx_hal_flash_ex.c **** 
 129:Drivers/STM32F3xx_HAL_Driver/Src/stm32f3xx_hal_flash_ex.c **** @endverbatim
 130:Drivers/STM32F3xx_HAL_Driver/Src/stm32f3xx_hal_flash_ex.c ****   * @{
 131:Drivers/STM32F3xx_HAL_Driver/Src/stm32f3xx_hal_flash_ex.c ****   */
 132:Drivers/STM32F3xx_HAL_Driver/Src/stm32f3xx_hal_flash_ex.c **** /**
 133:Drivers/STM32F3xx_HAL_Driver/Src/stm32f3xx_hal_flash_ex.c ****   * @brief  Perform a mass erase or erase the specified FLASH memory pages
 134:Drivers/STM32F3xx_HAL_Driver/Src/stm32f3xx_hal_flash_ex.c ****   * @note   The function HAL_FLASH_Unlock() should be called before to unlock the FLASH interface
 135:Drivers/STM32F3xx_HAL_Driver/Src/stm32f3xx_hal_flash_ex.c ****   *         The function HAL_FLASH_Lock() should be called after to lock the FLASH interface
 136:Drivers/STM32F3xx_HAL_Driver/Src/stm32f3xx_hal_flash_ex.c ****   * @param[in]  pEraseInit: pointer to an FLASH_EraseInitTypeDef structure that
 137:Drivers/STM32F3xx_HAL_Driver/Src/stm32f3xx_hal_flash_ex.c ****   *         contains the configuration information for the erasing.
 138:Drivers/STM32F3xx_HAL_Driver/Src/stm32f3xx_hal_flash_ex.c ****   *
 139:Drivers/STM32F3xx_HAL_Driver/Src/stm32f3xx_hal_flash_ex.c ****   * @param[out]  PageError: pointer to variable  that
 140:Drivers/STM32F3xx_HAL_Driver/Src/stm32f3xx_hal_flash_ex.c ****   *         contains the configuration information on faulty page in case of error
 141:Drivers/STM32F3xx_HAL_Driver/Src/stm32f3xx_hal_flash_ex.c ****   *         (0xFFFFFFFF means that all the pages have been correctly erased)
 142:Drivers/STM32F3xx_HAL_Driver/Src/stm32f3xx_hal_flash_ex.c ****   *
 143:Drivers/STM32F3xx_HAL_Driver/Src/stm32f3xx_hal_flash_ex.c ****   * @retval HAL_StatusTypeDef HAL Status
 144:Drivers/STM32F3xx_HAL_Driver/Src/stm32f3xx_hal_flash_ex.c ****   */
ARM GAS  /tmp/ccAhm58A.s 			page 4


 145:Drivers/STM32F3xx_HAL_Driver/Src/stm32f3xx_hal_flash_ex.c **** HAL_StatusTypeDef HAL_FLASHEx_Erase(FLASH_EraseInitTypeDef *pEraseInit, uint32_t *PageError)
 146:Drivers/STM32F3xx_HAL_Driver/Src/stm32f3xx_hal_flash_ex.c **** {
  29              		.loc 1 146 0
  30              		.cfi_startproc
  31              		@ args = 0, pretend = 0, frame = 16
  32              		@ frame_needed = 1, uses_anonymous_args = 0
  33 0000 80B5     		push	{r7, lr}
  34              	.LCFI0:
  35              		.cfi_def_cfa_offset 8
  36              		.cfi_offset 7, -8
  37              		.cfi_offset 14, -4
  38 0002 84B0     		sub	sp, sp, #16
  39              	.LCFI1:
  40              		.cfi_def_cfa_offset 24
  41 0004 00AF     		add	r7, sp, #0
  42              	.LCFI2:
  43              		.cfi_def_cfa_register 7
  44 0006 7860     		str	r0, [r7, #4]
  45 0008 3960     		str	r1, [r7]
 147:Drivers/STM32F3xx_HAL_Driver/Src/stm32f3xx_hal_flash_ex.c ****   HAL_StatusTypeDef status = HAL_ERROR;
  46              		.loc 1 147 0
  47 000a 0123     		movs	r3, #1
  48 000c FB73     		strb	r3, [r7, #15]
 148:Drivers/STM32F3xx_HAL_Driver/Src/stm32f3xx_hal_flash_ex.c ****   uint32_t address = 0;
  49              		.loc 1 148 0
  50 000e 0023     		movs	r3, #0
  51 0010 BB60     		str	r3, [r7, #8]
 149:Drivers/STM32F3xx_HAL_Driver/Src/stm32f3xx_hal_flash_ex.c **** 
 150:Drivers/STM32F3xx_HAL_Driver/Src/stm32f3xx_hal_flash_ex.c ****   /* Process Locked */
 151:Drivers/STM32F3xx_HAL_Driver/Src/stm32f3xx_hal_flash_ex.c ****   __HAL_LOCK(&pFlash);
  52              		.loc 1 151 0
  53 0012 354B     		ldr	r3, .L11
  54 0014 1B7E     		ldrb	r3, [r3, #24]	@ zero_extendqisi2
  55 0016 012B     		cmp	r3, #1
  56 0018 01D1     		bne	.L2
  57              		.loc 1 151 0 is_stmt 0 discriminator 1
  58 001a 0223     		movs	r3, #2
  59 001c 5FE0     		b	.L3
  60              	.L2:
  61              		.loc 1 151 0 discriminator 2
  62 001e 324B     		ldr	r3, .L11
  63 0020 0122     		movs	r2, #1
  64 0022 1A76     		strb	r2, [r3, #24]
 152:Drivers/STM32F3xx_HAL_Driver/Src/stm32f3xx_hal_flash_ex.c **** 
 153:Drivers/STM32F3xx_HAL_Driver/Src/stm32f3xx_hal_flash_ex.c ****   /* Check the parameters */
 154:Drivers/STM32F3xx_HAL_Driver/Src/stm32f3xx_hal_flash_ex.c ****   assert_param(IS_TYPEERASE(pEraseInit->TypeErase));
 155:Drivers/STM32F3xx_HAL_Driver/Src/stm32f3xx_hal_flash_ex.c **** 
 156:Drivers/STM32F3xx_HAL_Driver/Src/stm32f3xx_hal_flash_ex.c ****   /* Wait for last operation to be completed */
 157:Drivers/STM32F3xx_HAL_Driver/Src/stm32f3xx_hal_flash_ex.c ****   status = FLASH_WaitForLastOperation((uint32_t)HAL_FLASH_TIMEOUT_VALUE);
  65              		.loc 1 157 0 is_stmt 1 discriminator 2
  66 0024 4CF25030 		movw	r0, #50000
  67 0028 FFF7FEFF 		bl	FLASH_WaitForLastOperation
  68 002c 0346     		mov	r3, r0
  69 002e FB73     		strb	r3, [r7, #15]
 158:Drivers/STM32F3xx_HAL_Driver/Src/stm32f3xx_hal_flash_ex.c **** 
 159:Drivers/STM32F3xx_HAL_Driver/Src/stm32f3xx_hal_flash_ex.c ****   if (status == HAL_OK)
  70              		.loc 1 159 0 discriminator 2
ARM GAS  /tmp/ccAhm58A.s 			page 5


  71 0030 FB7B     		ldrb	r3, [r7, #15]	@ zero_extendqisi2
  72 0032 002B     		cmp	r3, #0
  73 0034 4FD1     		bne	.L4
 160:Drivers/STM32F3xx_HAL_Driver/Src/stm32f3xx_hal_flash_ex.c ****   {
 161:Drivers/STM32F3xx_HAL_Driver/Src/stm32f3xx_hal_flash_ex.c ****     if (pEraseInit->TypeErase == TYPEERASE_MASSERASE)
  74              		.loc 1 161 0
  75 0036 7B68     		ldr	r3, [r7, #4]
  76 0038 1B68     		ldr	r3, [r3]
  77 003a 012B     		cmp	r3, #1
  78 003c 17D1     		bne	.L5
 162:Drivers/STM32F3xx_HAL_Driver/Src/stm32f3xx_hal_flash_ex.c ****     {
 163:Drivers/STM32F3xx_HAL_Driver/Src/stm32f3xx_hal_flash_ex.c ****       /*Mass erase to be done*/
 164:Drivers/STM32F3xx_HAL_Driver/Src/stm32f3xx_hal_flash_ex.c ****       FLASH_MassErase();
  79              		.loc 1 164 0
  80 003e FFF7FEFF 		bl	FLASH_MassErase
 165:Drivers/STM32F3xx_HAL_Driver/Src/stm32f3xx_hal_flash_ex.c **** 
 166:Drivers/STM32F3xx_HAL_Driver/Src/stm32f3xx_hal_flash_ex.c ****       /* Wait for last operation to be completed */
 167:Drivers/STM32F3xx_HAL_Driver/Src/stm32f3xx_hal_flash_ex.c ****       status = FLASH_WaitForLastOperation((uint32_t)HAL_FLASH_TIMEOUT_VALUE);
  81              		.loc 1 167 0
  82 0042 4CF25030 		movw	r0, #50000
  83 0046 FFF7FEFF 		bl	FLASH_WaitForLastOperation
  84 004a 0346     		mov	r3, r0
  85 004c FB73     		strb	r3, [r7, #15]
 168:Drivers/STM32F3xx_HAL_Driver/Src/stm32f3xx_hal_flash_ex.c **** 
 169:Drivers/STM32F3xx_HAL_Driver/Src/stm32f3xx_hal_flash_ex.c ****       /* Check FLASH End of Operation flag  */
 170:Drivers/STM32F3xx_HAL_Driver/Src/stm32f3xx_hal_flash_ex.c ****       if (__HAL_FLASH_GET_FLAG(FLASH_FLAG_EOP))
  86              		.loc 1 170 0
  87 004e 274B     		ldr	r3, .L11+4
  88 0050 DB68     		ldr	r3, [r3, #12]
  89 0052 03F02003 		and	r3, r3, #32
  90 0056 002B     		cmp	r3, #0
  91 0058 02D0     		beq	.L6
 171:Drivers/STM32F3xx_HAL_Driver/Src/stm32f3xx_hal_flash_ex.c ****       {
 172:Drivers/STM32F3xx_HAL_Driver/Src/stm32f3xx_hal_flash_ex.c ****         /* Clear FLASH End of Operation pending bit */
 173:Drivers/STM32F3xx_HAL_Driver/Src/stm32f3xx_hal_flash_ex.c ****         __HAL_FLASH_CLEAR_FLAG(FLASH_FLAG_EOP);
  92              		.loc 1 173 0
  93 005a 244B     		ldr	r3, .L11+4
  94 005c 2022     		movs	r2, #32
  95 005e DA60     		str	r2, [r3, #12]
  96              	.L6:
 174:Drivers/STM32F3xx_HAL_Driver/Src/stm32f3xx_hal_flash_ex.c ****       }
 175:Drivers/STM32F3xx_HAL_Driver/Src/stm32f3xx_hal_flash_ex.c **** 
 176:Drivers/STM32F3xx_HAL_Driver/Src/stm32f3xx_hal_flash_ex.c ****       /* If the erase operation is completed, disable the MER Bit */
 177:Drivers/STM32F3xx_HAL_Driver/Src/stm32f3xx_hal_flash_ex.c ****       CLEAR_BIT(FLASH->CR, FLASH_CR_MER);
  97              		.loc 1 177 0
  98 0060 224A     		ldr	r2, .L11+4
  99 0062 224B     		ldr	r3, .L11+4
 100 0064 1B69     		ldr	r3, [r3, #16]
 101 0066 23F00403 		bic	r3, r3, #4
 102 006a 1361     		str	r3, [r2, #16]
 103 006c 33E0     		b	.L4
 104              	.L5:
 178:Drivers/STM32F3xx_HAL_Driver/Src/stm32f3xx_hal_flash_ex.c ****     }
 179:Drivers/STM32F3xx_HAL_Driver/Src/stm32f3xx_hal_flash_ex.c ****     else
 180:Drivers/STM32F3xx_HAL_Driver/Src/stm32f3xx_hal_flash_ex.c ****     {
 181:Drivers/STM32F3xx_HAL_Driver/Src/stm32f3xx_hal_flash_ex.c ****       /* Check the parameters */
 182:Drivers/STM32F3xx_HAL_Driver/Src/stm32f3xx_hal_flash_ex.c ****       assert_param(IS_FLASH_PROGRAM_ADDRESS(pEraseInit->PageAddress));
ARM GAS  /tmp/ccAhm58A.s 			page 6


 183:Drivers/STM32F3xx_HAL_Driver/Src/stm32f3xx_hal_flash_ex.c ****       assert_param(IS_FLASH_NB_PAGES(pEraseInit->PageAddress, pEraseInit->NbPages));
 184:Drivers/STM32F3xx_HAL_Driver/Src/stm32f3xx_hal_flash_ex.c **** 
 185:Drivers/STM32F3xx_HAL_Driver/Src/stm32f3xx_hal_flash_ex.c ****       /*Initialization of PageError variable*/
 186:Drivers/STM32F3xx_HAL_Driver/Src/stm32f3xx_hal_flash_ex.c ****       *PageError = 0xFFFFFFFF;
 105              		.loc 1 186 0
 106 006e 3B68     		ldr	r3, [r7]
 107 0070 4FF0FF32 		mov	r2, #-1
 108 0074 1A60     		str	r2, [r3]
 187:Drivers/STM32F3xx_HAL_Driver/Src/stm32f3xx_hal_flash_ex.c **** 
 188:Drivers/STM32F3xx_HAL_Driver/Src/stm32f3xx_hal_flash_ex.c ****       /* Erase by page by page to be done*/
 189:Drivers/STM32F3xx_HAL_Driver/Src/stm32f3xx_hal_flash_ex.c ****       for(address = pEraseInit->PageAddress;
 109              		.loc 1 189 0
 110 0076 7B68     		ldr	r3, [r7, #4]
 111 0078 5B68     		ldr	r3, [r3, #4]
 112 007a BB60     		str	r3, [r7, #8]
 113 007c 22E0     		b	.L7
 114              	.L10:
 190:Drivers/STM32F3xx_HAL_Driver/Src/stm32f3xx_hal_flash_ex.c ****           address < (pEraseInit->PageAddress + (pEraseInit->NbPages)*FLASH_PAGE_SIZE);
 191:Drivers/STM32F3xx_HAL_Driver/Src/stm32f3xx_hal_flash_ex.c ****           address += FLASH_PAGE_SIZE)
 192:Drivers/STM32F3xx_HAL_Driver/Src/stm32f3xx_hal_flash_ex.c ****       {
 193:Drivers/STM32F3xx_HAL_Driver/Src/stm32f3xx_hal_flash_ex.c ****         FLASH_PageErase(address);
 115              		.loc 1 193 0
 116 007e B868     		ldr	r0, [r7, #8]
 117 0080 FFF7FEFF 		bl	FLASH_PageErase
 194:Drivers/STM32F3xx_HAL_Driver/Src/stm32f3xx_hal_flash_ex.c **** 
 195:Drivers/STM32F3xx_HAL_Driver/Src/stm32f3xx_hal_flash_ex.c ****         /* Wait for last operation to be completed */
 196:Drivers/STM32F3xx_HAL_Driver/Src/stm32f3xx_hal_flash_ex.c ****         status = FLASH_WaitForLastOperation((uint32_t)HAL_FLASH_TIMEOUT_VALUE);
 118              		.loc 1 196 0
 119 0084 4CF25030 		movw	r0, #50000
 120 0088 FFF7FEFF 		bl	FLASH_WaitForLastOperation
 121 008c 0346     		mov	r3, r0
 122 008e FB73     		strb	r3, [r7, #15]
 197:Drivers/STM32F3xx_HAL_Driver/Src/stm32f3xx_hal_flash_ex.c **** 
 198:Drivers/STM32F3xx_HAL_Driver/Src/stm32f3xx_hal_flash_ex.c ****         /* Check FLASH End of Operation flag  */
 199:Drivers/STM32F3xx_HAL_Driver/Src/stm32f3xx_hal_flash_ex.c ****         if (__HAL_FLASH_GET_FLAG(FLASH_FLAG_EOP))
 123              		.loc 1 199 0
 124 0090 164B     		ldr	r3, .L11+4
 125 0092 DB68     		ldr	r3, [r3, #12]
 126 0094 03F02003 		and	r3, r3, #32
 127 0098 002B     		cmp	r3, #0
 128 009a 02D0     		beq	.L8
 200:Drivers/STM32F3xx_HAL_Driver/Src/stm32f3xx_hal_flash_ex.c ****         {
 201:Drivers/STM32F3xx_HAL_Driver/Src/stm32f3xx_hal_flash_ex.c ****           /* Clear FLASH End of Operation pending bit */
 202:Drivers/STM32F3xx_HAL_Driver/Src/stm32f3xx_hal_flash_ex.c ****           __HAL_FLASH_CLEAR_FLAG(FLASH_FLAG_EOP);
 129              		.loc 1 202 0
 130 009c 134B     		ldr	r3, .L11+4
 131 009e 2022     		movs	r2, #32
 132 00a0 DA60     		str	r2, [r3, #12]
 133              	.L8:
 203:Drivers/STM32F3xx_HAL_Driver/Src/stm32f3xx_hal_flash_ex.c ****         }
 204:Drivers/STM32F3xx_HAL_Driver/Src/stm32f3xx_hal_flash_ex.c **** 
 205:Drivers/STM32F3xx_HAL_Driver/Src/stm32f3xx_hal_flash_ex.c ****         /* If the erase operation is completed, disable the PER Bit */
 206:Drivers/STM32F3xx_HAL_Driver/Src/stm32f3xx_hal_flash_ex.c ****         CLEAR_BIT(FLASH->CR, FLASH_CR_PER);
 134              		.loc 1 206 0
 135 00a2 124A     		ldr	r2, .L11+4
 136 00a4 114B     		ldr	r3, .L11+4
 137 00a6 1B69     		ldr	r3, [r3, #16]
ARM GAS  /tmp/ccAhm58A.s 			page 7


 138 00a8 23F00203 		bic	r3, r3, #2
 139 00ac 1361     		str	r3, [r2, #16]
 207:Drivers/STM32F3xx_HAL_Driver/Src/stm32f3xx_hal_flash_ex.c **** 
 208:Drivers/STM32F3xx_HAL_Driver/Src/stm32f3xx_hal_flash_ex.c ****         if (status != HAL_OK)
 140              		.loc 1 208 0
 141 00ae FB7B     		ldrb	r3, [r7, #15]	@ zero_extendqisi2
 142 00b0 002B     		cmp	r3, #0
 143 00b2 03D0     		beq	.L9
 209:Drivers/STM32F3xx_HAL_Driver/Src/stm32f3xx_hal_flash_ex.c ****         {
 210:Drivers/STM32F3xx_HAL_Driver/Src/stm32f3xx_hal_flash_ex.c ****           /* In case of error, stop erase procedure and return the faulty address */
 211:Drivers/STM32F3xx_HAL_Driver/Src/stm32f3xx_hal_flash_ex.c ****           *PageError = address;
 144              		.loc 1 211 0
 145 00b4 3B68     		ldr	r3, [r7]
 146 00b6 BA68     		ldr	r2, [r7, #8]
 147 00b8 1A60     		str	r2, [r3]
 212:Drivers/STM32F3xx_HAL_Driver/Src/stm32f3xx_hal_flash_ex.c ****           break;
 148              		.loc 1 212 0
 149 00ba 0CE0     		b	.L4
 150              	.L9:
 191:Drivers/STM32F3xx_HAL_Driver/Src/stm32f3xx_hal_flash_ex.c ****       {
 151              		.loc 1 191 0
 152 00bc BB68     		ldr	r3, [r7, #8]
 153 00be 03F50063 		add	r3, r3, #2048
 154 00c2 BB60     		str	r3, [r7, #8]
 155              	.L7:
 190:Drivers/STM32F3xx_HAL_Driver/Src/stm32f3xx_hal_flash_ex.c ****           address += FLASH_PAGE_SIZE)
 156              		.loc 1 190 0 discriminator 1
 157 00c4 7B68     		ldr	r3, [r7, #4]
 158 00c6 5A68     		ldr	r2, [r3, #4]
 159 00c8 7B68     		ldr	r3, [r7, #4]
 160 00ca 9B68     		ldr	r3, [r3, #8]
 161 00cc DB02     		lsls	r3, r3, #11
 162 00ce 1A44     		add	r2, r2, r3
 189:Drivers/STM32F3xx_HAL_Driver/Src/stm32f3xx_hal_flash_ex.c ****           address < (pEraseInit->PageAddress + (pEraseInit->NbPages)*FLASH_PAGE_SIZE);
 163              		.loc 1 189 0 discriminator 1
 164 00d0 BB68     		ldr	r3, [r7, #8]
 165 00d2 9A42     		cmp	r2, r3
 166 00d4 D3D8     		bhi	.L10
 167              	.L4:
 213:Drivers/STM32F3xx_HAL_Driver/Src/stm32f3xx_hal_flash_ex.c ****         }
 214:Drivers/STM32F3xx_HAL_Driver/Src/stm32f3xx_hal_flash_ex.c ****       }
 215:Drivers/STM32F3xx_HAL_Driver/Src/stm32f3xx_hal_flash_ex.c ****     }
 216:Drivers/STM32F3xx_HAL_Driver/Src/stm32f3xx_hal_flash_ex.c ****   }
 217:Drivers/STM32F3xx_HAL_Driver/Src/stm32f3xx_hal_flash_ex.c **** 
 218:Drivers/STM32F3xx_HAL_Driver/Src/stm32f3xx_hal_flash_ex.c ****   /* Process Unlocked */
 219:Drivers/STM32F3xx_HAL_Driver/Src/stm32f3xx_hal_flash_ex.c ****   __HAL_UNLOCK(&pFlash);
 168              		.loc 1 219 0
 169 00d6 044B     		ldr	r3, .L11
 170 00d8 0022     		movs	r2, #0
 171 00da 1A76     		strb	r2, [r3, #24]
 220:Drivers/STM32F3xx_HAL_Driver/Src/stm32f3xx_hal_flash_ex.c **** 
 221:Drivers/STM32F3xx_HAL_Driver/Src/stm32f3xx_hal_flash_ex.c ****   return status;
 172              		.loc 1 221 0
 173 00dc FB7B     		ldrb	r3, [r7, #15]	@ zero_extendqisi2
 174              	.L3:
 222:Drivers/STM32F3xx_HAL_Driver/Src/stm32f3xx_hal_flash_ex.c **** }
 175              		.loc 1 222 0
ARM GAS  /tmp/ccAhm58A.s 			page 8


 176 00de 1846     		mov	r0, r3
 177 00e0 1037     		adds	r7, r7, #16
 178              	.LCFI3:
 179              		.cfi_def_cfa_offset 8
 180 00e2 BD46     		mov	sp, r7
 181              	.LCFI4:
 182              		.cfi_def_cfa_register 13
 183              		@ sp needed
 184 00e4 80BD     		pop	{r7, pc}
 185              	.L12:
 186 00e6 00BF     		.align	2
 187              	.L11:
 188 00e8 00000000 		.word	pFlash
 189 00ec 00200240 		.word	1073881088
 190              		.cfi_endproc
 191              	.LFE112:
 193              		.section	.text.HAL_FLASHEx_Erase_IT,"ax",%progbits
 194              		.align	2
 195              		.global	HAL_FLASHEx_Erase_IT
 196              		.thumb
 197              		.thumb_func
 199              	HAL_FLASHEx_Erase_IT:
 200              	.LFB113:
 223:Drivers/STM32F3xx_HAL_Driver/Src/stm32f3xx_hal_flash_ex.c **** 
 224:Drivers/STM32F3xx_HAL_Driver/Src/stm32f3xx_hal_flash_ex.c **** /**
 225:Drivers/STM32F3xx_HAL_Driver/Src/stm32f3xx_hal_flash_ex.c ****   * @brief  Perform a mass erase or erase the specified FLASH memory sectors with interrupt enabled
 226:Drivers/STM32F3xx_HAL_Driver/Src/stm32f3xx_hal_flash_ex.c ****   * @note   The function HAL_FLASH_Unlock() should be called before to unlock the FLASH interface
 227:Drivers/STM32F3xx_HAL_Driver/Src/stm32f3xx_hal_flash_ex.c ****   *         The function HAL_FLASH_Lock() should be called after to lock the FLASH interface
 228:Drivers/STM32F3xx_HAL_Driver/Src/stm32f3xx_hal_flash_ex.c ****   * @param  pEraseInit: pointer to an FLASH_EraseInitTypeDef structure that
 229:Drivers/STM32F3xx_HAL_Driver/Src/stm32f3xx_hal_flash_ex.c ****   *         contains the configuration information for the erasing.
 230:Drivers/STM32F3xx_HAL_Driver/Src/stm32f3xx_hal_flash_ex.c ****   *
 231:Drivers/STM32F3xx_HAL_Driver/Src/stm32f3xx_hal_flash_ex.c ****   * @retval HAL_StatusTypeDef HAL Status
 232:Drivers/STM32F3xx_HAL_Driver/Src/stm32f3xx_hal_flash_ex.c ****   */
 233:Drivers/STM32F3xx_HAL_Driver/Src/stm32f3xx_hal_flash_ex.c **** HAL_StatusTypeDef HAL_FLASHEx_Erase_IT(FLASH_EraseInitTypeDef *pEraseInit)
 234:Drivers/STM32F3xx_HAL_Driver/Src/stm32f3xx_hal_flash_ex.c **** {
 201              		.loc 1 234 0
 202              		.cfi_startproc
 203              		@ args = 0, pretend = 0, frame = 16
 204              		@ frame_needed = 1, uses_anonymous_args = 0
 205 0000 80B5     		push	{r7, lr}
 206              	.LCFI5:
 207              		.cfi_def_cfa_offset 8
 208              		.cfi_offset 7, -8
 209              		.cfi_offset 14, -4
 210 0002 84B0     		sub	sp, sp, #16
 211              	.LCFI6:
 212              		.cfi_def_cfa_offset 24
 213 0004 00AF     		add	r7, sp, #0
 214              	.LCFI7:
 215              		.cfi_def_cfa_register 7
 216 0006 7860     		str	r0, [r7, #4]
 235:Drivers/STM32F3xx_HAL_Driver/Src/stm32f3xx_hal_flash_ex.c ****   HAL_StatusTypeDef status = HAL_OK;
 217              		.loc 1 235 0
 218 0008 0023     		movs	r3, #0
 219 000a FB73     		strb	r3, [r7, #15]
 236:Drivers/STM32F3xx_HAL_Driver/Src/stm32f3xx_hal_flash_ex.c **** 
 237:Drivers/STM32F3xx_HAL_Driver/Src/stm32f3xx_hal_flash_ex.c ****   /* Process Locked */
ARM GAS  /tmp/ccAhm58A.s 			page 9


 238:Drivers/STM32F3xx_HAL_Driver/Src/stm32f3xx_hal_flash_ex.c ****   __HAL_LOCK(&pFlash);
 220              		.loc 1 238 0
 221 000c 164B     		ldr	r3, .L18
 222 000e 1B7E     		ldrb	r3, [r3, #24]	@ zero_extendqisi2
 223 0010 012B     		cmp	r3, #1
 224 0012 01D1     		bne	.L14
 225              		.loc 1 238 0 is_stmt 0 discriminator 1
 226 0014 0223     		movs	r3, #2
 227 0016 23E0     		b	.L15
 228              	.L14:
 229              		.loc 1 238 0 discriminator 2
 230 0018 134B     		ldr	r3, .L18
 231 001a 0122     		movs	r2, #1
 232 001c 1A76     		strb	r2, [r3, #24]
 239:Drivers/STM32F3xx_HAL_Driver/Src/stm32f3xx_hal_flash_ex.c **** 
 240:Drivers/STM32F3xx_HAL_Driver/Src/stm32f3xx_hal_flash_ex.c ****   /* Check the parameters */
 241:Drivers/STM32F3xx_HAL_Driver/Src/stm32f3xx_hal_flash_ex.c ****   assert_param(IS_TYPEERASE(pEraseInit->TypeErase));
 242:Drivers/STM32F3xx_HAL_Driver/Src/stm32f3xx_hal_flash_ex.c **** 
 243:Drivers/STM32F3xx_HAL_Driver/Src/stm32f3xx_hal_flash_ex.c ****   /* Enable End of FLASH Operation and Error source interrupts */
 244:Drivers/STM32F3xx_HAL_Driver/Src/stm32f3xx_hal_flash_ex.c ****   __HAL_FLASH_ENABLE_IT((FLASH_IT_EOP | FLASH_IT_ERR));
 233              		.loc 1 244 0 is_stmt 1 discriminator 2
 234 001e 134A     		ldr	r2, .L18+4
 235 0020 124B     		ldr	r3, .L18+4
 236 0022 1B69     		ldr	r3, [r3, #16]
 237 0024 43F4A053 		orr	r3, r3, #5120
 238 0028 1361     		str	r3, [r2, #16]
 245:Drivers/STM32F3xx_HAL_Driver/Src/stm32f3xx_hal_flash_ex.c **** 
 246:Drivers/STM32F3xx_HAL_Driver/Src/stm32f3xx_hal_flash_ex.c ****   if (pEraseInit->TypeErase == TYPEERASE_MASSERASE)
 239              		.loc 1 246 0 discriminator 2
 240 002a 7B68     		ldr	r3, [r7, #4]
 241 002c 1B68     		ldr	r3, [r3]
 242 002e 012B     		cmp	r3, #1
 243 0030 05D1     		bne	.L16
 247:Drivers/STM32F3xx_HAL_Driver/Src/stm32f3xx_hal_flash_ex.c ****   {
 248:Drivers/STM32F3xx_HAL_Driver/Src/stm32f3xx_hal_flash_ex.c ****     /*Mass erase to be done*/
 249:Drivers/STM32F3xx_HAL_Driver/Src/stm32f3xx_hal_flash_ex.c ****     pFlash.ProcedureOnGoing = FLASH_PROC_MASSERASE;
 244              		.loc 1 249 0
 245 0032 0D4B     		ldr	r3, .L18
 246 0034 0222     		movs	r2, #2
 247 0036 1A70     		strb	r2, [r3]
 250:Drivers/STM32F3xx_HAL_Driver/Src/stm32f3xx_hal_flash_ex.c ****     FLASH_MassErase();
 248              		.loc 1 250 0
 249 0038 FFF7FEFF 		bl	FLASH_MassErase
 250 003c 0FE0     		b	.L17
 251              	.L16:
 251:Drivers/STM32F3xx_HAL_Driver/Src/stm32f3xx_hal_flash_ex.c ****   }
 252:Drivers/STM32F3xx_HAL_Driver/Src/stm32f3xx_hal_flash_ex.c ****   else
 253:Drivers/STM32F3xx_HAL_Driver/Src/stm32f3xx_hal_flash_ex.c ****   {
 254:Drivers/STM32F3xx_HAL_Driver/Src/stm32f3xx_hal_flash_ex.c ****     /* Erase by page to be done*/
 255:Drivers/STM32F3xx_HAL_Driver/Src/stm32f3xx_hal_flash_ex.c **** 
 256:Drivers/STM32F3xx_HAL_Driver/Src/stm32f3xx_hal_flash_ex.c ****     /* Check the parameters */
 257:Drivers/STM32F3xx_HAL_Driver/Src/stm32f3xx_hal_flash_ex.c ****     assert_param(IS_FLASH_PROGRAM_ADDRESS(pEraseInit->PageAddress));
 258:Drivers/STM32F3xx_HAL_Driver/Src/stm32f3xx_hal_flash_ex.c ****     assert_param(IS_FLASH_NB_PAGES(pEraseInit->PageAddress, pEraseInit->NbPages));
 259:Drivers/STM32F3xx_HAL_Driver/Src/stm32f3xx_hal_flash_ex.c **** 
 260:Drivers/STM32F3xx_HAL_Driver/Src/stm32f3xx_hal_flash_ex.c ****     pFlash.ProcedureOnGoing = FLASH_PROC_PAGEERASE;
 252              		.loc 1 260 0
 253 003e 0A4B     		ldr	r3, .L18
ARM GAS  /tmp/ccAhm58A.s 			page 10


 254 0040 0122     		movs	r2, #1
 255 0042 1A70     		strb	r2, [r3]
 261:Drivers/STM32F3xx_HAL_Driver/Src/stm32f3xx_hal_flash_ex.c ****     pFlash.DataRemaining = pEraseInit->NbPages;
 256              		.loc 1 261 0
 257 0044 7B68     		ldr	r3, [r7, #4]
 258 0046 9B68     		ldr	r3, [r3, #8]
 259 0048 074A     		ldr	r2, .L18
 260 004a 5360     		str	r3, [r2, #4]
 262:Drivers/STM32F3xx_HAL_Driver/Src/stm32f3xx_hal_flash_ex.c ****     pFlash.Address = pEraseInit->PageAddress;
 261              		.loc 1 262 0
 262 004c 7B68     		ldr	r3, [r7, #4]
 263 004e 5B68     		ldr	r3, [r3, #4]
 264 0050 054A     		ldr	r2, .L18
 265 0052 9360     		str	r3, [r2, #8]
 263:Drivers/STM32F3xx_HAL_Driver/Src/stm32f3xx_hal_flash_ex.c **** 
 264:Drivers/STM32F3xx_HAL_Driver/Src/stm32f3xx_hal_flash_ex.c ****     /*Erase 1st page and wait for IT*/
 265:Drivers/STM32F3xx_HAL_Driver/Src/stm32f3xx_hal_flash_ex.c ****     FLASH_PageErase(pEraseInit->PageAddress);
 266              		.loc 1 265 0
 267 0054 7B68     		ldr	r3, [r7, #4]
 268 0056 5B68     		ldr	r3, [r3, #4]
 269 0058 1846     		mov	r0, r3
 270 005a FFF7FEFF 		bl	FLASH_PageErase
 271              	.L17:
 266:Drivers/STM32F3xx_HAL_Driver/Src/stm32f3xx_hal_flash_ex.c ****   }
 267:Drivers/STM32F3xx_HAL_Driver/Src/stm32f3xx_hal_flash_ex.c **** 
 268:Drivers/STM32F3xx_HAL_Driver/Src/stm32f3xx_hal_flash_ex.c ****   return status;
 272              		.loc 1 268 0
 273 005e FB7B     		ldrb	r3, [r7, #15]	@ zero_extendqisi2
 274              	.L15:
 269:Drivers/STM32F3xx_HAL_Driver/Src/stm32f3xx_hal_flash_ex.c **** }
 275              		.loc 1 269 0
 276 0060 1846     		mov	r0, r3
 277 0062 1037     		adds	r7, r7, #16
 278              	.LCFI8:
 279              		.cfi_def_cfa_offset 8
 280 0064 BD46     		mov	sp, r7
 281              	.LCFI9:
 282              		.cfi_def_cfa_register 13
 283              		@ sp needed
 284 0066 80BD     		pop	{r7, pc}
 285              	.L19:
 286              		.align	2
 287              	.L18:
 288 0068 00000000 		.word	pFlash
 289 006c 00200240 		.word	1073881088
 290              		.cfi_endproc
 291              	.LFE113:
 293              		.section	.text.HAL_FLASHEx_OBErase,"ax",%progbits
 294              		.align	2
 295              		.global	HAL_FLASHEx_OBErase
 296              		.thumb
 297              		.thumb_func
 299              	HAL_FLASHEx_OBErase:
 300              	.LFB114:
 270:Drivers/STM32F3xx_HAL_Driver/Src/stm32f3xx_hal_flash_ex.c **** 
 271:Drivers/STM32F3xx_HAL_Driver/Src/stm32f3xx_hal_flash_ex.c **** /**
 272:Drivers/STM32F3xx_HAL_Driver/Src/stm32f3xx_hal_flash_ex.c ****   * @}
ARM GAS  /tmp/ccAhm58A.s 			page 11


 273:Drivers/STM32F3xx_HAL_Driver/Src/stm32f3xx_hal_flash_ex.c ****   */
 274:Drivers/STM32F3xx_HAL_Driver/Src/stm32f3xx_hal_flash_ex.c ****     
 275:Drivers/STM32F3xx_HAL_Driver/Src/stm32f3xx_hal_flash_ex.c **** /** @defgroup FLASHEx_Exported_Functions_Group2 Extended Peripheral Control functions
 276:Drivers/STM32F3xx_HAL_Driver/Src/stm32f3xx_hal_flash_ex.c ****   * @brief      Peripheral Control functions
 277:Drivers/STM32F3xx_HAL_Driver/Src/stm32f3xx_hal_flash_ex.c ****   *
 278:Drivers/STM32F3xx_HAL_Driver/Src/stm32f3xx_hal_flash_ex.c **** @verbatim   
 279:Drivers/STM32F3xx_HAL_Driver/Src/stm32f3xx_hal_flash_ex.c ****  ===============================================================================
 280:Drivers/STM32F3xx_HAL_Driver/Src/stm32f3xx_hal_flash_ex.c ****                       ##### Peripheral Control functions #####
 281:Drivers/STM32F3xx_HAL_Driver/Src/stm32f3xx_hal_flash_ex.c ****  ===============================================================================  
 282:Drivers/STM32F3xx_HAL_Driver/Src/stm32f3xx_hal_flash_ex.c ****     [..]
 283:Drivers/STM32F3xx_HAL_Driver/Src/stm32f3xx_hal_flash_ex.c ****     This subsection provides a set of functions allowing to control the FLASH 
 284:Drivers/STM32F3xx_HAL_Driver/Src/stm32f3xx_hal_flash_ex.c ****     memory operations.
 285:Drivers/STM32F3xx_HAL_Driver/Src/stm32f3xx_hal_flash_ex.c **** 
 286:Drivers/STM32F3xx_HAL_Driver/Src/stm32f3xx_hal_flash_ex.c **** @endverbatim
 287:Drivers/STM32F3xx_HAL_Driver/Src/stm32f3xx_hal_flash_ex.c ****   * @{
 288:Drivers/STM32F3xx_HAL_Driver/Src/stm32f3xx_hal_flash_ex.c ****   */
 289:Drivers/STM32F3xx_HAL_Driver/Src/stm32f3xx_hal_flash_ex.c **** /**
 290:Drivers/STM32F3xx_HAL_Driver/Src/stm32f3xx_hal_flash_ex.c ****   * @brief  Erases the FLASH option bytes.
 291:Drivers/STM32F3xx_HAL_Driver/Src/stm32f3xx_hal_flash_ex.c ****   * @note   This functions erases all option bytes except the Read protection (RDP).
 292:Drivers/STM32F3xx_HAL_Driver/Src/stm32f3xx_hal_flash_ex.c ****   *         The function HAL_FLASH_Unlock() should be called before to unlock the FLASH interface
 293:Drivers/STM32F3xx_HAL_Driver/Src/stm32f3xx_hal_flash_ex.c ****   *         The function HAL_FLASH_OB_Unlock() should be called before to unlock the options bytes
 294:Drivers/STM32F3xx_HAL_Driver/Src/stm32f3xx_hal_flash_ex.c ****   *         The function HAL_FLASH_OB_Launch() should be called after to force the reload of the op
 295:Drivers/STM32F3xx_HAL_Driver/Src/stm32f3xx_hal_flash_ex.c ****   *         (system reset will occur)
 296:Drivers/STM32F3xx_HAL_Driver/Src/stm32f3xx_hal_flash_ex.c ****   * @retval HAL status
 297:Drivers/STM32F3xx_HAL_Driver/Src/stm32f3xx_hal_flash_ex.c ****   */
 298:Drivers/STM32F3xx_HAL_Driver/Src/stm32f3xx_hal_flash_ex.c **** 
 299:Drivers/STM32F3xx_HAL_Driver/Src/stm32f3xx_hal_flash_ex.c **** HAL_StatusTypeDef HAL_FLASHEx_OBErase(void)
 300:Drivers/STM32F3xx_HAL_Driver/Src/stm32f3xx_hal_flash_ex.c **** {
 301              		.loc 1 300 0
 302              		.cfi_startproc
 303              		@ args = 0, pretend = 0, frame = 32
 304              		@ frame_needed = 1, uses_anonymous_args = 0
 305 0000 80B5     		push	{r7, lr}
 306              	.LCFI10:
 307              		.cfi_def_cfa_offset 8
 308              		.cfi_offset 7, -8
 309              		.cfi_offset 14, -4
 310 0002 88B0     		sub	sp, sp, #32
 311              	.LCFI11:
 312              		.cfi_def_cfa_offset 40
 313 0004 00AF     		add	r7, sp, #0
 314              	.LCFI12:
 315              		.cfi_def_cfa_register 7
 301:Drivers/STM32F3xx_HAL_Driver/Src/stm32f3xx_hal_flash_ex.c ****   uint8_t rdptmp = OB_RDP_LEVEL_0;
 316              		.loc 1 301 0
 317 0006 AA23     		movs	r3, #170
 318 0008 FB77     		strb	r3, [r7, #31]
 302:Drivers/STM32F3xx_HAL_Driver/Src/stm32f3xx_hal_flash_ex.c ****   HAL_StatusTypeDef status = HAL_ERROR;
 319              		.loc 1 302 0
 320 000a 0123     		movs	r3, #1
 321 000c BB77     		strb	r3, [r7, #30]
 303:Drivers/STM32F3xx_HAL_Driver/Src/stm32f3xx_hal_flash_ex.c ****   FLASH_OBProgramInitTypeDef optionsbytes;
 304:Drivers/STM32F3xx_HAL_Driver/Src/stm32f3xx_hal_flash_ex.c **** 
 305:Drivers/STM32F3xx_HAL_Driver/Src/stm32f3xx_hal_flash_ex.c ****   /* Get the actual read protection Option Byte value */
 306:Drivers/STM32F3xx_HAL_Driver/Src/stm32f3xx_hal_flash_ex.c ****   HAL_FLASHEx_OBGetConfig(&optionsbytes);
 322              		.loc 1 306 0
 323 000e 3B1D     		adds	r3, r7, #4
ARM GAS  /tmp/ccAhm58A.s 			page 12


 324 0010 1846     		mov	r0, r3
 325 0012 FFF7FEFF 		bl	HAL_FLASHEx_OBGetConfig
 307:Drivers/STM32F3xx_HAL_Driver/Src/stm32f3xx_hal_flash_ex.c ****   if(optionsbytes.RDPLevel != RESET)
 326              		.loc 1 307 0
 327 0016 3B7C     		ldrb	r3, [r7, #16]	@ zero_extendqisi2
 328 0018 002B     		cmp	r3, #0
 329 001a 01D0     		beq	.L21
 308:Drivers/STM32F3xx_HAL_Driver/Src/stm32f3xx_hal_flash_ex.c ****   {
 309:Drivers/STM32F3xx_HAL_Driver/Src/stm32f3xx_hal_flash_ex.c ****     rdptmp = OB_RDP_LEVEL_1;
 330              		.loc 1 309 0
 331 001c BB23     		movs	r3, #187
 332 001e FB77     		strb	r3, [r7, #31]
 333              	.L21:
 310:Drivers/STM32F3xx_HAL_Driver/Src/stm32f3xx_hal_flash_ex.c ****   }
 311:Drivers/STM32F3xx_HAL_Driver/Src/stm32f3xx_hal_flash_ex.c **** 
 312:Drivers/STM32F3xx_HAL_Driver/Src/stm32f3xx_hal_flash_ex.c ****   /* Wait for last operation to be completed */
 313:Drivers/STM32F3xx_HAL_Driver/Src/stm32f3xx_hal_flash_ex.c ****   status = FLASH_WaitForLastOperation((uint32_t)HAL_FLASH_TIMEOUT_VALUE);
 334              		.loc 1 313 0
 335 0020 4CF25030 		movw	r0, #50000
 336 0024 FFF7FEFF 		bl	FLASH_WaitForLastOperation
 337 0028 0346     		mov	r3, r0
 338 002a BB77     		strb	r3, [r7, #30]
 314:Drivers/STM32F3xx_HAL_Driver/Src/stm32f3xx_hal_flash_ex.c **** 
 315:Drivers/STM32F3xx_HAL_Driver/Src/stm32f3xx_hal_flash_ex.c ****   /* Clear pending flags (if any) */
 316:Drivers/STM32F3xx_HAL_Driver/Src/stm32f3xx_hal_flash_ex.c ****   __HAL_FLASH_CLEAR_FLAG(FLASH_FLAG_EOP | FLASH_FLAG_WRPERR | FLASH_FLAG_PGERR);
 339              		.loc 1 316 0
 340 002c 174B     		ldr	r3, .L24
 341 002e 3422     		movs	r2, #52
 342 0030 DA60     		str	r2, [r3, #12]
 317:Drivers/STM32F3xx_HAL_Driver/Src/stm32f3xx_hal_flash_ex.c **** 
 318:Drivers/STM32F3xx_HAL_Driver/Src/stm32f3xx_hal_flash_ex.c ****   if(status == HAL_OK)
 343              		.loc 1 318 0
 344 0032 BB7F     		ldrb	r3, [r7, #30]	@ zero_extendqisi2
 345 0034 002B     		cmp	r3, #0
 346 0036 24D1     		bne	.L22
 319:Drivers/STM32F3xx_HAL_Driver/Src/stm32f3xx_hal_flash_ex.c ****   {
 320:Drivers/STM32F3xx_HAL_Driver/Src/stm32f3xx_hal_flash_ex.c ****     /* If the previous operation is completed, proceed to erase the option bytes */
 321:Drivers/STM32F3xx_HAL_Driver/Src/stm32f3xx_hal_flash_ex.c ****     SET_BIT(FLASH->CR, FLASH_CR_OPTER);
 347              		.loc 1 321 0
 348 0038 144A     		ldr	r2, .L24
 349 003a 144B     		ldr	r3, .L24
 350 003c 1B69     		ldr	r3, [r3, #16]
 351 003e 43F02003 		orr	r3, r3, #32
 352 0042 1361     		str	r3, [r2, #16]
 322:Drivers/STM32F3xx_HAL_Driver/Src/stm32f3xx_hal_flash_ex.c ****     SET_BIT(FLASH->CR, FLASH_CR_STRT);
 353              		.loc 1 322 0
 354 0044 114A     		ldr	r2, .L24
 355 0046 114B     		ldr	r3, .L24
 356 0048 1B69     		ldr	r3, [r3, #16]
 357 004a 43F04003 		orr	r3, r3, #64
 358 004e 1361     		str	r3, [r2, #16]
 323:Drivers/STM32F3xx_HAL_Driver/Src/stm32f3xx_hal_flash_ex.c **** 
 324:Drivers/STM32F3xx_HAL_Driver/Src/stm32f3xx_hal_flash_ex.c ****     /* Wait for last operation to be completed */
 325:Drivers/STM32F3xx_HAL_Driver/Src/stm32f3xx_hal_flash_ex.c ****     status = FLASH_WaitForLastOperation((uint32_t)HAL_FLASH_TIMEOUT_VALUE);
 359              		.loc 1 325 0
 360 0050 4CF25030 		movw	r0, #50000
 361 0054 FFF7FEFF 		bl	FLASH_WaitForLastOperation
ARM GAS  /tmp/ccAhm58A.s 			page 13


 362 0058 0346     		mov	r3, r0
 363 005a BB77     		strb	r3, [r7, #30]
 326:Drivers/STM32F3xx_HAL_Driver/Src/stm32f3xx_hal_flash_ex.c **** 
 327:Drivers/STM32F3xx_HAL_Driver/Src/stm32f3xx_hal_flash_ex.c ****     /* If the erase operation is completed, disable the OPTER Bit */
 328:Drivers/STM32F3xx_HAL_Driver/Src/stm32f3xx_hal_flash_ex.c ****     CLEAR_BIT(FLASH->CR, FLASH_CR_OPTER);
 364              		.loc 1 328 0
 365 005c 0B4A     		ldr	r2, .L24
 366 005e 0B4B     		ldr	r3, .L24
 367 0060 1B69     		ldr	r3, [r3, #16]
 368 0062 23F02003 		bic	r3, r3, #32
 369 0066 1361     		str	r3, [r2, #16]
 329:Drivers/STM32F3xx_HAL_Driver/Src/stm32f3xx_hal_flash_ex.c **** 
 330:Drivers/STM32F3xx_HAL_Driver/Src/stm32f3xx_hal_flash_ex.c ****     if(status == HAL_OK)
 370              		.loc 1 330 0
 371 0068 BB7F     		ldrb	r3, [r7, #30]	@ zero_extendqisi2
 372 006a 002B     		cmp	r3, #0
 373 006c 09D1     		bne	.L22
 331:Drivers/STM32F3xx_HAL_Driver/Src/stm32f3xx_hal_flash_ex.c ****     {
 332:Drivers/STM32F3xx_HAL_Driver/Src/stm32f3xx_hal_flash_ex.c ****       /* Restore the last read protection Option Byte value */
 333:Drivers/STM32F3xx_HAL_Driver/Src/stm32f3xx_hal_flash_ex.c ****       optionsbytes.OptionType = OPTIONBYTE_RDP;
 374              		.loc 1 333 0
 375 006e 0223     		movs	r3, #2
 376 0070 7B60     		str	r3, [r7, #4]
 334:Drivers/STM32F3xx_HAL_Driver/Src/stm32f3xx_hal_flash_ex.c ****       optionsbytes.RDPLevel = rdptmp;
 377              		.loc 1 334 0
 378 0072 FB7F     		ldrb	r3, [r7, #31]
 379 0074 3B74     		strb	r3, [r7, #16]
 335:Drivers/STM32F3xx_HAL_Driver/Src/stm32f3xx_hal_flash_ex.c ****       status = HAL_FLASHEx_OBProgram(&optionsbytes);
 380              		.loc 1 335 0
 381 0076 3B1D     		adds	r3, r7, #4
 382 0078 1846     		mov	r0, r3
 383 007a FFF7FEFF 		bl	HAL_FLASHEx_OBProgram
 384 007e 0346     		mov	r3, r0
 385 0080 BB77     		strb	r3, [r7, #30]
 386              	.L22:
 336:Drivers/STM32F3xx_HAL_Driver/Src/stm32f3xx_hal_flash_ex.c ****     }
 337:Drivers/STM32F3xx_HAL_Driver/Src/stm32f3xx_hal_flash_ex.c ****   }
 338:Drivers/STM32F3xx_HAL_Driver/Src/stm32f3xx_hal_flash_ex.c **** 
 339:Drivers/STM32F3xx_HAL_Driver/Src/stm32f3xx_hal_flash_ex.c ****   /* Return the erase status */
 340:Drivers/STM32F3xx_HAL_Driver/Src/stm32f3xx_hal_flash_ex.c ****   return status;
 387              		.loc 1 340 0
 388 0082 BB7F     		ldrb	r3, [r7, #30]	@ zero_extendqisi2
 341:Drivers/STM32F3xx_HAL_Driver/Src/stm32f3xx_hal_flash_ex.c **** }
 389              		.loc 1 341 0
 390 0084 1846     		mov	r0, r3
 391 0086 2037     		adds	r7, r7, #32
 392              	.LCFI13:
 393              		.cfi_def_cfa_offset 8
 394 0088 BD46     		mov	sp, r7
 395              	.LCFI14:
 396              		.cfi_def_cfa_register 13
 397              		@ sp needed
 398 008a 80BD     		pop	{r7, pc}
 399              	.L25:
 400              		.align	2
 401              	.L24:
 402 008c 00200240 		.word	1073881088
ARM GAS  /tmp/ccAhm58A.s 			page 14


 403              		.cfi_endproc
 404              	.LFE114:
 406              		.section	.text.HAL_FLASHEx_OBProgram,"ax",%progbits
 407              		.align	2
 408              		.global	HAL_FLASHEx_OBProgram
 409              		.thumb
 410              		.thumb_func
 412              	HAL_FLASHEx_OBProgram:
 413              	.LFB115:
 342:Drivers/STM32F3xx_HAL_Driver/Src/stm32f3xx_hal_flash_ex.c **** 
 343:Drivers/STM32F3xx_HAL_Driver/Src/stm32f3xx_hal_flash_ex.c **** /**
 344:Drivers/STM32F3xx_HAL_Driver/Src/stm32f3xx_hal_flash_ex.c ****   * @brief  Program option bytes
 345:Drivers/STM32F3xx_HAL_Driver/Src/stm32f3xx_hal_flash_ex.c ****   * @note   The function HAL_FLASH_Unlock() should be called before to unlock the FLASH interface
 346:Drivers/STM32F3xx_HAL_Driver/Src/stm32f3xx_hal_flash_ex.c ****   *         The function HAL_FLASH_OB_Unlock() should be called before to unlock the options bytes
 347:Drivers/STM32F3xx_HAL_Driver/Src/stm32f3xx_hal_flash_ex.c ****   *         The function HAL_FLASH_OB_Launch() should be called after to force the reload of the op
 348:Drivers/STM32F3xx_HAL_Driver/Src/stm32f3xx_hal_flash_ex.c ****   *         (system reset will occur)
 349:Drivers/STM32F3xx_HAL_Driver/Src/stm32f3xx_hal_flash_ex.c ****   *
 350:Drivers/STM32F3xx_HAL_Driver/Src/stm32f3xx_hal_flash_ex.c ****   * @param  pOBInit: pointer to an FLASH_OBInitStruct structure that
 351:Drivers/STM32F3xx_HAL_Driver/Src/stm32f3xx_hal_flash_ex.c ****   *         contains the configuration information for the programming.
 352:Drivers/STM32F3xx_HAL_Driver/Src/stm32f3xx_hal_flash_ex.c ****   *
 353:Drivers/STM32F3xx_HAL_Driver/Src/stm32f3xx_hal_flash_ex.c ****   * @retval HAL_StatusTypeDef HAL Status
 354:Drivers/STM32F3xx_HAL_Driver/Src/stm32f3xx_hal_flash_ex.c ****   */
 355:Drivers/STM32F3xx_HAL_Driver/Src/stm32f3xx_hal_flash_ex.c **** HAL_StatusTypeDef HAL_FLASHEx_OBProgram(FLASH_OBProgramInitTypeDef *pOBInit)
 356:Drivers/STM32F3xx_HAL_Driver/Src/stm32f3xx_hal_flash_ex.c **** {
 414              		.loc 1 356 0
 415              		.cfi_startproc
 416              		@ args = 0, pretend = 0, frame = 16
 417              		@ frame_needed = 1, uses_anonymous_args = 0
 418 0000 80B5     		push	{r7, lr}
 419              	.LCFI15:
 420              		.cfi_def_cfa_offset 8
 421              		.cfi_offset 7, -8
 422              		.cfi_offset 14, -4
 423 0002 84B0     		sub	sp, sp, #16
 424              	.LCFI16:
 425              		.cfi_def_cfa_offset 24
 426 0004 00AF     		add	r7, sp, #0
 427              	.LCFI17:
 428              		.cfi_def_cfa_register 7
 429 0006 7860     		str	r0, [r7, #4]
 357:Drivers/STM32F3xx_HAL_Driver/Src/stm32f3xx_hal_flash_ex.c ****   HAL_StatusTypeDef status = HAL_ERROR;
 430              		.loc 1 357 0
 431 0008 0123     		movs	r3, #1
 432 000a FB73     		strb	r3, [r7, #15]
 358:Drivers/STM32F3xx_HAL_Driver/Src/stm32f3xx_hal_flash_ex.c **** 
 359:Drivers/STM32F3xx_HAL_Driver/Src/stm32f3xx_hal_flash_ex.c ****   /* Check the parameters */
 360:Drivers/STM32F3xx_HAL_Driver/Src/stm32f3xx_hal_flash_ex.c ****   assert_param(IS_OPTIONBYTE(pOBInit->OptionType));
 361:Drivers/STM32F3xx_HAL_Driver/Src/stm32f3xx_hal_flash_ex.c **** 
 362:Drivers/STM32F3xx_HAL_Driver/Src/stm32f3xx_hal_flash_ex.c ****   /* Write protection configuration */
 363:Drivers/STM32F3xx_HAL_Driver/Src/stm32f3xx_hal_flash_ex.c ****   if((pOBInit->OptionType & OPTIONBYTE_WRP) == OPTIONBYTE_WRP)
 433              		.loc 1 363 0
 434 000c 7B68     		ldr	r3, [r7, #4]
 435 000e 1B68     		ldr	r3, [r3]
 436 0010 03F00103 		and	r3, r3, #1
 437 0014 002B     		cmp	r3, #0
 438 0016 12D0     		beq	.L27
 364:Drivers/STM32F3xx_HAL_Driver/Src/stm32f3xx_hal_flash_ex.c ****   {
ARM GAS  /tmp/ccAhm58A.s 			page 15


 365:Drivers/STM32F3xx_HAL_Driver/Src/stm32f3xx_hal_flash_ex.c ****     assert_param(IS_WRPSTATE(pOBInit->WRPState));
 366:Drivers/STM32F3xx_HAL_Driver/Src/stm32f3xx_hal_flash_ex.c ****     if (pOBInit->WRPState == WRPSTATE_ENABLE)
 439              		.loc 1 366 0
 440 0018 7B68     		ldr	r3, [r7, #4]
 441 001a 5B68     		ldr	r3, [r3, #4]
 442 001c 012B     		cmp	r3, #1
 443 001e 07D1     		bne	.L28
 367:Drivers/STM32F3xx_HAL_Driver/Src/stm32f3xx_hal_flash_ex.c ****     {
 368:Drivers/STM32F3xx_HAL_Driver/Src/stm32f3xx_hal_flash_ex.c ****       /* Enable of Write protection on the selected page */
 369:Drivers/STM32F3xx_HAL_Driver/Src/stm32f3xx_hal_flash_ex.c ****       status = FLASH_OB_EnableWRP(pOBInit->WRPPage);
 444              		.loc 1 369 0
 445 0020 7B68     		ldr	r3, [r7, #4]
 446 0022 9B68     		ldr	r3, [r3, #8]
 447 0024 1846     		mov	r0, r3
 448 0026 FFF7FEFF 		bl	FLASH_OB_EnableWRP
 449 002a 0346     		mov	r3, r0
 450 002c FB73     		strb	r3, [r7, #15]
 451 002e 06E0     		b	.L27
 452              	.L28:
 370:Drivers/STM32F3xx_HAL_Driver/Src/stm32f3xx_hal_flash_ex.c ****     }
 371:Drivers/STM32F3xx_HAL_Driver/Src/stm32f3xx_hal_flash_ex.c ****     else
 372:Drivers/STM32F3xx_HAL_Driver/Src/stm32f3xx_hal_flash_ex.c ****     {
 373:Drivers/STM32F3xx_HAL_Driver/Src/stm32f3xx_hal_flash_ex.c ****       /* Disable of Write protection on the selected page */
 374:Drivers/STM32F3xx_HAL_Driver/Src/stm32f3xx_hal_flash_ex.c ****       status = FLASH_OB_DisableWRP(pOBInit->WRPPage);
 453              		.loc 1 374 0
 454 0030 7B68     		ldr	r3, [r7, #4]
 455 0032 9B68     		ldr	r3, [r3, #8]
 456 0034 1846     		mov	r0, r3
 457 0036 FFF7FEFF 		bl	FLASH_OB_DisableWRP
 458 003a 0346     		mov	r3, r0
 459 003c FB73     		strb	r3, [r7, #15]
 460              	.L27:
 375:Drivers/STM32F3xx_HAL_Driver/Src/stm32f3xx_hal_flash_ex.c ****     }
 376:Drivers/STM32F3xx_HAL_Driver/Src/stm32f3xx_hal_flash_ex.c ****   }
 377:Drivers/STM32F3xx_HAL_Driver/Src/stm32f3xx_hal_flash_ex.c **** 
 378:Drivers/STM32F3xx_HAL_Driver/Src/stm32f3xx_hal_flash_ex.c ****   /* Read protection configuration */
 379:Drivers/STM32F3xx_HAL_Driver/Src/stm32f3xx_hal_flash_ex.c ****   if((pOBInit->OptionType & OPTIONBYTE_RDP) == OPTIONBYTE_RDP)
 461              		.loc 1 379 0
 462 003e 7B68     		ldr	r3, [r7, #4]
 463 0040 1B68     		ldr	r3, [r3]
 464 0042 03F00203 		and	r3, r3, #2
 465 0046 002B     		cmp	r3, #0
 466 0048 06D0     		beq	.L29
 380:Drivers/STM32F3xx_HAL_Driver/Src/stm32f3xx_hal_flash_ex.c ****   {
 381:Drivers/STM32F3xx_HAL_Driver/Src/stm32f3xx_hal_flash_ex.c ****     status = FLASH_OB_RDP_LevelConfig(pOBInit->RDPLevel);
 467              		.loc 1 381 0
 468 004a 7B68     		ldr	r3, [r7, #4]
 469 004c 1B7B     		ldrb	r3, [r3, #12]	@ zero_extendqisi2
 470 004e 1846     		mov	r0, r3
 471 0050 FFF7FEFF 		bl	FLASH_OB_RDP_LevelConfig
 472 0054 0346     		mov	r3, r0
 473 0056 FB73     		strb	r3, [r7, #15]
 474              	.L29:
 382:Drivers/STM32F3xx_HAL_Driver/Src/stm32f3xx_hal_flash_ex.c ****   }
 383:Drivers/STM32F3xx_HAL_Driver/Src/stm32f3xx_hal_flash_ex.c **** 
 384:Drivers/STM32F3xx_HAL_Driver/Src/stm32f3xx_hal_flash_ex.c ****   /* USER configuration */
 385:Drivers/STM32F3xx_HAL_Driver/Src/stm32f3xx_hal_flash_ex.c ****   if((pOBInit->OptionType & OPTIONBYTE_USER) == OPTIONBYTE_USER)
ARM GAS  /tmp/ccAhm58A.s 			page 16


 475              		.loc 1 385 0
 476 0058 7B68     		ldr	r3, [r7, #4]
 477 005a 1B68     		ldr	r3, [r3]
 478 005c 03F00403 		and	r3, r3, #4
 479 0060 002B     		cmp	r3, #0
 480 0062 06D0     		beq	.L30
 386:Drivers/STM32F3xx_HAL_Driver/Src/stm32f3xx_hal_flash_ex.c ****   {
 387:Drivers/STM32F3xx_HAL_Driver/Src/stm32f3xx_hal_flash_ex.c ****     status = FLASH_OB_UserConfig(pOBInit->USERConfig);
 481              		.loc 1 387 0
 482 0064 7B68     		ldr	r3, [r7, #4]
 483 0066 5B7B     		ldrb	r3, [r3, #13]	@ zero_extendqisi2
 484 0068 1846     		mov	r0, r3
 485 006a FFF7FEFF 		bl	FLASH_OB_UserConfig
 486 006e 0346     		mov	r3, r0
 487 0070 FB73     		strb	r3, [r7, #15]
 488              	.L30:
 388:Drivers/STM32F3xx_HAL_Driver/Src/stm32f3xx_hal_flash_ex.c ****   }
 389:Drivers/STM32F3xx_HAL_Driver/Src/stm32f3xx_hal_flash_ex.c **** 
 390:Drivers/STM32F3xx_HAL_Driver/Src/stm32f3xx_hal_flash_ex.c ****   /* DATA configuration*/
 391:Drivers/STM32F3xx_HAL_Driver/Src/stm32f3xx_hal_flash_ex.c ****   if((pOBInit->OptionType & OPTIONBYTE_DATA) == OPTIONBYTE_DATA)
 489              		.loc 1 391 0
 490 0072 7B68     		ldr	r3, [r7, #4]
 491 0074 1B68     		ldr	r3, [r3]
 492 0076 03F00803 		and	r3, r3, #8
 493 007a 002B     		cmp	r3, #0
 494 007c 09D0     		beq	.L31
 392:Drivers/STM32F3xx_HAL_Driver/Src/stm32f3xx_hal_flash_ex.c ****   {
 393:Drivers/STM32F3xx_HAL_Driver/Src/stm32f3xx_hal_flash_ex.c ****     status = FLASH_OB_ProgramData(pOBInit->DATAAddress, pOBInit->DATAData);
 495              		.loc 1 393 0
 496 007e 7B68     		ldr	r3, [r7, #4]
 497 0080 1A69     		ldr	r2, [r3, #16]
 498 0082 7B68     		ldr	r3, [r7, #4]
 499 0084 1B7D     		ldrb	r3, [r3, #20]	@ zero_extendqisi2
 500 0086 1946     		mov	r1, r3
 501 0088 1046     		mov	r0, r2
 502 008a FFF7FEFF 		bl	FLASH_OB_ProgramData
 503 008e 0346     		mov	r3, r0
 504 0090 FB73     		strb	r3, [r7, #15]
 505              	.L31:
 394:Drivers/STM32F3xx_HAL_Driver/Src/stm32f3xx_hal_flash_ex.c ****   }
 395:Drivers/STM32F3xx_HAL_Driver/Src/stm32f3xx_hal_flash_ex.c **** 
 396:Drivers/STM32F3xx_HAL_Driver/Src/stm32f3xx_hal_flash_ex.c ****   return status;
 506              		.loc 1 396 0
 507 0092 FB7B     		ldrb	r3, [r7, #15]	@ zero_extendqisi2
 397:Drivers/STM32F3xx_HAL_Driver/Src/stm32f3xx_hal_flash_ex.c **** }
 508              		.loc 1 397 0
 509 0094 1846     		mov	r0, r3
 510 0096 1037     		adds	r7, r7, #16
 511              	.LCFI18:
 512              		.cfi_def_cfa_offset 8
 513 0098 BD46     		mov	sp, r7
 514              	.LCFI19:
 515              		.cfi_def_cfa_register 13
 516              		@ sp needed
 517 009a 80BD     		pop	{r7, pc}
 518              		.cfi_endproc
 519              	.LFE115:
ARM GAS  /tmp/ccAhm58A.s 			page 17


 521              		.section	.text.HAL_FLASHEx_OBGetConfig,"ax",%progbits
 522              		.align	2
 523              		.global	HAL_FLASHEx_OBGetConfig
 524              		.thumb
 525              		.thumb_func
 527              	HAL_FLASHEx_OBGetConfig:
 528              	.LFB116:
 398:Drivers/STM32F3xx_HAL_Driver/Src/stm32f3xx_hal_flash_ex.c **** 
 399:Drivers/STM32F3xx_HAL_Driver/Src/stm32f3xx_hal_flash_ex.c **** /**
 400:Drivers/STM32F3xx_HAL_Driver/Src/stm32f3xx_hal_flash_ex.c ****   * @brief  Get the Option byte configuration
 401:Drivers/STM32F3xx_HAL_Driver/Src/stm32f3xx_hal_flash_ex.c ****   * @param  pOBInit: pointer to an FLASH_OBInitStruct structure that
 402:Drivers/STM32F3xx_HAL_Driver/Src/stm32f3xx_hal_flash_ex.c ****   *         contains the configuration information for the programming.
 403:Drivers/STM32F3xx_HAL_Driver/Src/stm32f3xx_hal_flash_ex.c ****   *
 404:Drivers/STM32F3xx_HAL_Driver/Src/stm32f3xx_hal_flash_ex.c ****   * @retval None
 405:Drivers/STM32F3xx_HAL_Driver/Src/stm32f3xx_hal_flash_ex.c ****   */
 406:Drivers/STM32F3xx_HAL_Driver/Src/stm32f3xx_hal_flash_ex.c **** void HAL_FLASHEx_OBGetConfig(FLASH_OBProgramInitTypeDef *pOBInit)
 407:Drivers/STM32F3xx_HAL_Driver/Src/stm32f3xx_hal_flash_ex.c **** {
 529              		.loc 1 407 0
 530              		.cfi_startproc
 531              		@ args = 0, pretend = 0, frame = 8
 532              		@ frame_needed = 1, uses_anonymous_args = 0
 533 0000 80B5     		push	{r7, lr}
 534              	.LCFI20:
 535              		.cfi_def_cfa_offset 8
 536              		.cfi_offset 7, -8
 537              		.cfi_offset 14, -4
 538 0002 82B0     		sub	sp, sp, #8
 539              	.LCFI21:
 540              		.cfi_def_cfa_offset 16
 541 0004 00AF     		add	r7, sp, #0
 542              	.LCFI22:
 543              		.cfi_def_cfa_register 7
 544 0006 7860     		str	r0, [r7, #4]
 408:Drivers/STM32F3xx_HAL_Driver/Src/stm32f3xx_hal_flash_ex.c ****   pOBInit->OptionType = OPTIONBYTE_WRP | OPTIONBYTE_RDP | OPTIONBYTE_USER;
 545              		.loc 1 408 0
 546 0008 7B68     		ldr	r3, [r7, #4]
 547 000a 0722     		movs	r2, #7
 548 000c 1A60     		str	r2, [r3]
 409:Drivers/STM32F3xx_HAL_Driver/Src/stm32f3xx_hal_flash_ex.c **** 
 410:Drivers/STM32F3xx_HAL_Driver/Src/stm32f3xx_hal_flash_ex.c ****   /*Get WRP*/
 411:Drivers/STM32F3xx_HAL_Driver/Src/stm32f3xx_hal_flash_ex.c ****   pOBInit->WRPPage = FLASH_OB_GetWRP();
 549              		.loc 1 411 0
 550 000e FFF7FEFF 		bl	FLASH_OB_GetWRP
 551 0012 0246     		mov	r2, r0
 552 0014 7B68     		ldr	r3, [r7, #4]
 553 0016 9A60     		str	r2, [r3, #8]
 412:Drivers/STM32F3xx_HAL_Driver/Src/stm32f3xx_hal_flash_ex.c **** 
 413:Drivers/STM32F3xx_HAL_Driver/Src/stm32f3xx_hal_flash_ex.c ****   /*Get RDP Level*/
 414:Drivers/STM32F3xx_HAL_Driver/Src/stm32f3xx_hal_flash_ex.c ****   pOBInit->RDPLevel = FLASH_OB_GetRDP();
 554              		.loc 1 414 0
 555 0018 FFF7FEFF 		bl	FLASH_OB_GetRDP
 556 001c 0346     		mov	r3, r0
 557 001e 1A46     		mov	r2, r3
 558 0020 7B68     		ldr	r3, [r7, #4]
 559 0022 1A73     		strb	r2, [r3, #12]
 415:Drivers/STM32F3xx_HAL_Driver/Src/stm32f3xx_hal_flash_ex.c **** 
 416:Drivers/STM32F3xx_HAL_Driver/Src/stm32f3xx_hal_flash_ex.c ****   /*Get USER*/
ARM GAS  /tmp/ccAhm58A.s 			page 18


 417:Drivers/STM32F3xx_HAL_Driver/Src/stm32f3xx_hal_flash_ex.c ****   pOBInit->USERConfig = FLASH_OB_GetUser();
 560              		.loc 1 417 0
 561 0024 FFF7FEFF 		bl	FLASH_OB_GetUser
 562 0028 0346     		mov	r3, r0
 563 002a 1A46     		mov	r2, r3
 564 002c 7B68     		ldr	r3, [r7, #4]
 565 002e 5A73     		strb	r2, [r3, #13]
 418:Drivers/STM32F3xx_HAL_Driver/Src/stm32f3xx_hal_flash_ex.c **** }
 566              		.loc 1 418 0
 567 0030 00BF     		nop
 568 0032 0837     		adds	r7, r7, #8
 569              	.LCFI23:
 570              		.cfi_def_cfa_offset 8
 571 0034 BD46     		mov	sp, r7
 572              	.LCFI24:
 573              		.cfi_def_cfa_register 13
 574              		@ sp needed
 575 0036 80BD     		pop	{r7, pc}
 576              		.cfi_endproc
 577              	.LFE116:
 579              		.section	.text.FLASH_MassErase,"ax",%progbits
 580              		.align	2
 581              		.thumb
 582              		.thumb_func
 584              	FLASH_MassErase:
 585              	.LFB117:
 419:Drivers/STM32F3xx_HAL_Driver/Src/stm32f3xx_hal_flash_ex.c **** 
 420:Drivers/STM32F3xx_HAL_Driver/Src/stm32f3xx_hal_flash_ex.c **** /**
 421:Drivers/STM32F3xx_HAL_Driver/Src/stm32f3xx_hal_flash_ex.c ****   * @}
 422:Drivers/STM32F3xx_HAL_Driver/Src/stm32f3xx_hal_flash_ex.c ****   */
 423:Drivers/STM32F3xx_HAL_Driver/Src/stm32f3xx_hal_flash_ex.c **** 
 424:Drivers/STM32F3xx_HAL_Driver/Src/stm32f3xx_hal_flash_ex.c **** /**
 425:Drivers/STM32F3xx_HAL_Driver/Src/stm32f3xx_hal_flash_ex.c ****   * @}
 426:Drivers/STM32F3xx_HAL_Driver/Src/stm32f3xx_hal_flash_ex.c ****   */
 427:Drivers/STM32F3xx_HAL_Driver/Src/stm32f3xx_hal_flash_ex.c **** 
 428:Drivers/STM32F3xx_HAL_Driver/Src/stm32f3xx_hal_flash_ex.c **** /** @addtogroup FLASHEx_Private_Functions FLASH Extended Private Functions
 429:Drivers/STM32F3xx_HAL_Driver/Src/stm32f3xx_hal_flash_ex.c ****  * @{
 430:Drivers/STM32F3xx_HAL_Driver/Src/stm32f3xx_hal_flash_ex.c ****  */
 431:Drivers/STM32F3xx_HAL_Driver/Src/stm32f3xx_hal_flash_ex.c **** 
 432:Drivers/STM32F3xx_HAL_Driver/Src/stm32f3xx_hal_flash_ex.c **** /**
 433:Drivers/STM32F3xx_HAL_Driver/Src/stm32f3xx_hal_flash_ex.c ****   * @brief  Mass erase of FLASH memory
 434:Drivers/STM32F3xx_HAL_Driver/Src/stm32f3xx_hal_flash_ex.c ****   * 
 435:Drivers/STM32F3xx_HAL_Driver/Src/stm32f3xx_hal_flash_ex.c ****   * @retval None
 436:Drivers/STM32F3xx_HAL_Driver/Src/stm32f3xx_hal_flash_ex.c ****   */
 437:Drivers/STM32F3xx_HAL_Driver/Src/stm32f3xx_hal_flash_ex.c **** static void FLASH_MassErase(void)
 438:Drivers/STM32F3xx_HAL_Driver/Src/stm32f3xx_hal_flash_ex.c **** {
 586              		.loc 1 438 0
 587              		.cfi_startproc
 588              		@ args = 0, pretend = 0, frame = 0
 589              		@ frame_needed = 1, uses_anonymous_args = 0
 590              		@ link register save eliminated.
 591 0000 80B4     		push	{r7}
 592              	.LCFI25:
 593              		.cfi_def_cfa_offset 4
 594              		.cfi_offset 7, -4
 595 0002 00AF     		add	r7, sp, #0
 596              	.LCFI26:
ARM GAS  /tmp/ccAhm58A.s 			page 19


 597              		.cfi_def_cfa_register 7
 439:Drivers/STM32F3xx_HAL_Driver/Src/stm32f3xx_hal_flash_ex.c ****   /* Clear pending flags (if any) */  
 440:Drivers/STM32F3xx_HAL_Driver/Src/stm32f3xx_hal_flash_ex.c ****   __HAL_FLASH_CLEAR_FLAG(FLASH_FLAG_EOP | FLASH_FLAG_WRPERR | FLASH_FLAG_PGERR); 
 598              		.loc 1 440 0
 599 0004 094B     		ldr	r3, .L35
 600 0006 3422     		movs	r2, #52
 601 0008 DA60     		str	r2, [r3, #12]
 441:Drivers/STM32F3xx_HAL_Driver/Src/stm32f3xx_hal_flash_ex.c ****   
 442:Drivers/STM32F3xx_HAL_Driver/Src/stm32f3xx_hal_flash_ex.c ****   /* Proceed to erase all sectors */
 443:Drivers/STM32F3xx_HAL_Driver/Src/stm32f3xx_hal_flash_ex.c ****   SET_BIT(FLASH->CR, FLASH_CR_MER);
 602              		.loc 1 443 0
 603 000a 084A     		ldr	r2, .L35
 604 000c 074B     		ldr	r3, .L35
 605 000e 1B69     		ldr	r3, [r3, #16]
 606 0010 43F00403 		orr	r3, r3, #4
 607 0014 1361     		str	r3, [r2, #16]
 444:Drivers/STM32F3xx_HAL_Driver/Src/stm32f3xx_hal_flash_ex.c ****   SET_BIT(FLASH->CR, FLASH_CR_STRT);
 608              		.loc 1 444 0
 609 0016 054A     		ldr	r2, .L35
 610 0018 044B     		ldr	r3, .L35
 611 001a 1B69     		ldr	r3, [r3, #16]
 612 001c 43F04003 		orr	r3, r3, #64
 613 0020 1361     		str	r3, [r2, #16]
 445:Drivers/STM32F3xx_HAL_Driver/Src/stm32f3xx_hal_flash_ex.c **** }
 614              		.loc 1 445 0
 615 0022 00BF     		nop
 616 0024 BD46     		mov	sp, r7
 617              	.LCFI27:
 618              		.cfi_def_cfa_register 13
 619              		@ sp needed
 620 0026 5DF8047B 		ldr	r7, [sp], #4
 621              	.LCFI28:
 622              		.cfi_restore 7
 623              		.cfi_def_cfa_offset 0
 624 002a 7047     		bx	lr
 625              	.L36:
 626              		.align	2
 627              	.L35:
 628 002c 00200240 		.word	1073881088
 629              		.cfi_endproc
 630              	.LFE117:
 632              		.section	.text.FLASH_OB_EnableWRP,"ax",%progbits
 633              		.align	2
 634              		.thumb
 635              		.thumb_func
 637              	FLASH_OB_EnableWRP:
 638              	.LFB118:
 446:Drivers/STM32F3xx_HAL_Driver/Src/stm32f3xx_hal_flash_ex.c **** 
 447:Drivers/STM32F3xx_HAL_Driver/Src/stm32f3xx_hal_flash_ex.c **** /**
 448:Drivers/STM32F3xx_HAL_Driver/Src/stm32f3xx_hal_flash_ex.c ****   * @}
 449:Drivers/STM32F3xx_HAL_Driver/Src/stm32f3xx_hal_flash_ex.c ****   */
 450:Drivers/STM32F3xx_HAL_Driver/Src/stm32f3xx_hal_flash_ex.c **** 
 451:Drivers/STM32F3xx_HAL_Driver/Src/stm32f3xx_hal_flash_ex.c **** /**
 452:Drivers/STM32F3xx_HAL_Driver/Src/stm32f3xx_hal_flash_ex.c ****   * @brief  Enable the write protection of the desired pages
 453:Drivers/STM32F3xx_HAL_Driver/Src/stm32f3xx_hal_flash_ex.c ****   * @note   When the memory read protection level is selected (RDP level = 1), 
 454:Drivers/STM32F3xx_HAL_Driver/Src/stm32f3xx_hal_flash_ex.c ****   *         it is not possible to program or erase the flash page i if CortexM4  
 455:Drivers/STM32F3xx_HAL_Driver/Src/stm32f3xx_hal_flash_ex.c ****   *         debug features are connected or boot code is executed in RAM, even if nWRPi = 1 
ARM GAS  /tmp/ccAhm58A.s 			page 20


 456:Drivers/STM32F3xx_HAL_Driver/Src/stm32f3xx_hal_flash_ex.c ****   * 
 457:Drivers/STM32F3xx_HAL_Driver/Src/stm32f3xx_hal_flash_ex.c ****   * @param  WriteProtectPage: specifies the page(s) to be write protected.
 458:Drivers/STM32F3xx_HAL_Driver/Src/stm32f3xx_hal_flash_ex.c ****   *         The value of this parameter depend on device used within the same series 
 459:Drivers/STM32F3xx_HAL_Driver/Src/stm32f3xx_hal_flash_ex.c ****   * @retval HAL status 
 460:Drivers/STM32F3xx_HAL_Driver/Src/stm32f3xx_hal_flash_ex.c ****   */
 461:Drivers/STM32F3xx_HAL_Driver/Src/stm32f3xx_hal_flash_ex.c **** static HAL_StatusTypeDef FLASH_OB_EnableWRP(uint32_t WriteProtectPage)
 462:Drivers/STM32F3xx_HAL_Driver/Src/stm32f3xx_hal_flash_ex.c **** {
 639              		.loc 1 462 0
 640              		.cfi_startproc
 641              		@ args = 0, pretend = 0, frame = 24
 642              		@ frame_needed = 1, uses_anonymous_args = 0
 643 0000 80B5     		push	{r7, lr}
 644              	.LCFI29:
 645              		.cfi_def_cfa_offset 8
 646              		.cfi_offset 7, -8
 647              		.cfi_offset 14, -4
 648 0002 86B0     		sub	sp, sp, #24
 649              	.LCFI30:
 650              		.cfi_def_cfa_offset 32
 651 0004 00AF     		add	r7, sp, #0
 652              	.LCFI31:
 653              		.cfi_def_cfa_register 7
 654 0006 7860     		str	r0, [r7, #4]
 463:Drivers/STM32F3xx_HAL_Driver/Src/stm32f3xx_hal_flash_ex.c ****   HAL_StatusTypeDef status = HAL_OK;
 655              		.loc 1 463 0
 656 0008 0023     		movs	r3, #0
 657 000a FB75     		strb	r3, [r7, #23]
 464:Drivers/STM32F3xx_HAL_Driver/Src/stm32f3xx_hal_flash_ex.c ****   uint16_t WRP0_Data = 0xFFFF, WRP1_Data = 0xFFFF;
 658              		.loc 1 464 0
 659 000c 4FF6FF73 		movw	r3, #65535
 660 0010 BB82     		strh	r3, [r7, #20]	@ movhi
 661 0012 4FF6FF73 		movw	r3, #65535
 662 0016 7B82     		strh	r3, [r7, #18]	@ movhi
 465:Drivers/STM32F3xx_HAL_Driver/Src/stm32f3xx_hal_flash_ex.c **** #if defined(STM32F302xE) || defined(STM32F303xE) || defined(STM32F398xx) || \
 466:Drivers/STM32F3xx_HAL_Driver/Src/stm32f3xx_hal_flash_ex.c ****     defined(STM32F302xC) || defined(STM32F303xC) || defined(STM32F358xx) || \
 467:Drivers/STM32F3xx_HAL_Driver/Src/stm32f3xx_hal_flash_ex.c ****     defined(STM32F373xC) || defined(STM32F378xx)
 468:Drivers/STM32F3xx_HAL_Driver/Src/stm32f3xx_hal_flash_ex.c ****   uint16_t WRP2_Data = 0xFFFF, WRP3_Data = 0xFFFF;
 663              		.loc 1 468 0
 664 0018 4FF6FF73 		movw	r3, #65535
 665 001c 3B82     		strh	r3, [r7, #16]	@ movhi
 666 001e 4FF6FF73 		movw	r3, #65535
 667 0022 FB81     		strh	r3, [r7, #14]	@ movhi
 469:Drivers/STM32F3xx_HAL_Driver/Src/stm32f3xx_hal_flash_ex.c **** #endif /* STM32F302xE || STM32F303xE || STM32F398xx || */
 470:Drivers/STM32F3xx_HAL_Driver/Src/stm32f3xx_hal_flash_ex.c ****        /* STM32F302xC || STM32F303xC || STM32F358xx || */
 471:Drivers/STM32F3xx_HAL_Driver/Src/stm32f3xx_hal_flash_ex.c ****        /* STM32F373xC || STM32F378xx                   */
 472:Drivers/STM32F3xx_HAL_Driver/Src/stm32f3xx_hal_flash_ex.c ****   
 473:Drivers/STM32F3xx_HAL_Driver/Src/stm32f3xx_hal_flash_ex.c ****   /* Check the parameters */
 474:Drivers/STM32F3xx_HAL_Driver/Src/stm32f3xx_hal_flash_ex.c ****   assert_param(IS_OB_WRP(WriteProtectPage));
 475:Drivers/STM32F3xx_HAL_Driver/Src/stm32f3xx_hal_flash_ex.c ****     
 476:Drivers/STM32F3xx_HAL_Driver/Src/stm32f3xx_hal_flash_ex.c ****   WriteProtectPage = (uint32_t)(~WriteProtectPage);
 668              		.loc 1 476 0
 669 0024 7B68     		ldr	r3, [r7, #4]
 670 0026 DB43     		mvns	r3, r3
 671 0028 7B60     		str	r3, [r7, #4]
 477:Drivers/STM32F3xx_HAL_Driver/Src/stm32f3xx_hal_flash_ex.c ****   WRP0_Data = (uint16_t)(WriteProtectPage & OB_WRP_PAGES0TO15MASK);
 672              		.loc 1 477 0
 673 002a 7B68     		ldr	r3, [r7, #4]
ARM GAS  /tmp/ccAhm58A.s 			page 21


 674 002c 9BB2     		uxth	r3, r3
 675 002e DBB2     		uxtb	r3, r3
 676 0030 BB82     		strh	r3, [r7, #20]	@ movhi
 478:Drivers/STM32F3xx_HAL_Driver/Src/stm32f3xx_hal_flash_ex.c ****   WRP1_Data = (uint16_t)((WriteProtectPage & OB_WRP_PAGES16TO31MASK) >> 8);
 677              		.loc 1 478 0
 678 0032 7B68     		ldr	r3, [r7, #4]
 679 0034 03F47F43 		and	r3, r3, #65280
 680 0038 1B0A     		lsrs	r3, r3, #8
 681 003a 7B82     		strh	r3, [r7, #18]	@ movhi
 479:Drivers/STM32F3xx_HAL_Driver/Src/stm32f3xx_hal_flash_ex.c **** #if defined(STM32F302xC) || defined(STM32F303xC) || defined(STM32F358xx) || \
 480:Drivers/STM32F3xx_HAL_Driver/Src/stm32f3xx_hal_flash_ex.c ****     defined(STM32F373xC) || defined(STM32F378xx)
 481:Drivers/STM32F3xx_HAL_Driver/Src/stm32f3xx_hal_flash_ex.c ****   WRP2_Data = (uint16_t)((WriteProtectPage & OB_WRP_PAGES32TO47MASK) >> 16);
 682              		.loc 1 481 0
 683 003c 7B68     		ldr	r3, [r7, #4]
 684 003e 03F47F03 		and	r3, r3, #16711680
 685 0042 1B0C     		lsrs	r3, r3, #16
 686 0044 3B82     		strh	r3, [r7, #16]	@ movhi
 482:Drivers/STM32F3xx_HAL_Driver/Src/stm32f3xx_hal_flash_ex.c ****   WRP3_Data = (uint16_t)((WriteProtectPage & OB_WRP_PAGES48TO127MASK) >> 24); 
 687              		.loc 1 482 0
 688 0046 7B68     		ldr	r3, [r7, #4]
 689 0048 1B0E     		lsrs	r3, r3, #24
 690 004a FB81     		strh	r3, [r7, #14]	@ movhi
 483:Drivers/STM32F3xx_HAL_Driver/Src/stm32f3xx_hal_flash_ex.c **** #endif /* STM32F302xC || STM32F303xC || STM32F358xx || */
 484:Drivers/STM32F3xx_HAL_Driver/Src/stm32f3xx_hal_flash_ex.c ****        /* STM32F373xC || STM32F378xx                   */
 485:Drivers/STM32F3xx_HAL_Driver/Src/stm32f3xx_hal_flash_ex.c **** 
 486:Drivers/STM32F3xx_HAL_Driver/Src/stm32f3xx_hal_flash_ex.c **** #if defined(STM32F302xE) || defined(STM32F303xE) || defined(STM32F398xx)
 487:Drivers/STM32F3xx_HAL_Driver/Src/stm32f3xx_hal_flash_ex.c ****   WRP2_Data = (uint16_t)((WriteProtectPage & OB_WRP_PAGES32TO47MASK) >> 16);
 488:Drivers/STM32F3xx_HAL_Driver/Src/stm32f3xx_hal_flash_ex.c ****   WRP3_Data = (uint16_t)((WriteProtectPage & OB_WRP_PAGES48TO255MASK) >> 24); 
 489:Drivers/STM32F3xx_HAL_Driver/Src/stm32f3xx_hal_flash_ex.c **** #endif /* STM32F302xE || STM32F303xE || STM32F398xx */
 490:Drivers/STM32F3xx_HAL_Driver/Src/stm32f3xx_hal_flash_ex.c **** 
 491:Drivers/STM32F3xx_HAL_Driver/Src/stm32f3xx_hal_flash_ex.c ****   /* Wait for last operation to be completed */
 492:Drivers/STM32F3xx_HAL_Driver/Src/stm32f3xx_hal_flash_ex.c ****   status = FLASH_WaitForLastOperation((uint32_t)HAL_FLASH_TIMEOUT_VALUE);
 691              		.loc 1 492 0
 692 004c 4CF25030 		movw	r0, #50000
 693 0050 FFF7FEFF 		bl	FLASH_WaitForLastOperation
 694 0054 0346     		mov	r3, r0
 695 0056 FB75     		strb	r3, [r7, #23]
 493:Drivers/STM32F3xx_HAL_Driver/Src/stm32f3xx_hal_flash_ex.c **** 
 494:Drivers/STM32F3xx_HAL_Driver/Src/stm32f3xx_hal_flash_ex.c ****   /* Clear pending flags (if any) */  
 495:Drivers/STM32F3xx_HAL_Driver/Src/stm32f3xx_hal_flash_ex.c ****   __HAL_FLASH_CLEAR_FLAG(FLASH_FLAG_EOP | FLASH_FLAG_WRPERR | FLASH_FLAG_PGERR); 
 696              		.loc 1 495 0
 697 0058 314B     		ldr	r3, .L44
 698 005a 3422     		movs	r2, #52
 699 005c DA60     		str	r2, [r3, #12]
 496:Drivers/STM32F3xx_HAL_Driver/Src/stm32f3xx_hal_flash_ex.c **** 
 497:Drivers/STM32F3xx_HAL_Driver/Src/stm32f3xx_hal_flash_ex.c ****   if(status == HAL_OK)
 700              		.loc 1 497 0
 701 005e FB7D     		ldrb	r3, [r7, #23]	@ zero_extendqisi2
 702 0060 002B     		cmp	r3, #0
 703 0062 58D1     		bne	.L38
 498:Drivers/STM32F3xx_HAL_Driver/Src/stm32f3xx_hal_flash_ex.c ****   { 
 499:Drivers/STM32F3xx_HAL_Driver/Src/stm32f3xx_hal_flash_ex.c ****     SET_BIT(FLASH->CR, FLASH_CR_OPTPG);
 704              		.loc 1 499 0
 705 0064 2E4A     		ldr	r2, .L44
 706 0066 2E4B     		ldr	r3, .L44
 707 0068 1B69     		ldr	r3, [r3, #16]
 708 006a 43F01003 		orr	r3, r3, #16
ARM GAS  /tmp/ccAhm58A.s 			page 22


 709 006e 1361     		str	r3, [r2, #16]
 500:Drivers/STM32F3xx_HAL_Driver/Src/stm32f3xx_hal_flash_ex.c **** 
 501:Drivers/STM32F3xx_HAL_Driver/Src/stm32f3xx_hal_flash_ex.c ****     if(WRP0_Data != 0xFF)
 710              		.loc 1 501 0
 711 0070 BB8A     		ldrh	r3, [r7, #20]
 712 0072 FF2B     		cmp	r3, #255
 713 0074 0DD0     		beq	.L39
 502:Drivers/STM32F3xx_HAL_Driver/Src/stm32f3xx_hal_flash_ex.c ****     {
 503:Drivers/STM32F3xx_HAL_Driver/Src/stm32f3xx_hal_flash_ex.c ****       OB->WRP0 &= WRP0_Data;
 714              		.loc 1 503 0
 715 0076 2B49     		ldr	r1, .L44+4
 716 0078 2A4B     		ldr	r3, .L44+4
 717 007a 1B89     		ldrh	r3, [r3, #8]	@ movhi
 718 007c 9AB2     		uxth	r2, r3
 719 007e BB8A     		ldrh	r3, [r7, #20]	@ movhi
 720 0080 1340     		ands	r3, r3, r2
 721 0082 9BB2     		uxth	r3, r3
 722 0084 0B81     		strh	r3, [r1, #8]	@ movhi
 504:Drivers/STM32F3xx_HAL_Driver/Src/stm32f3xx_hal_flash_ex.c ****       
 505:Drivers/STM32F3xx_HAL_Driver/Src/stm32f3xx_hal_flash_ex.c ****       /* Wait for last operation to be completed */
 506:Drivers/STM32F3xx_HAL_Driver/Src/stm32f3xx_hal_flash_ex.c ****       status = FLASH_WaitForLastOperation((uint32_t)HAL_FLASH_TIMEOUT_VALUE);
 723              		.loc 1 506 0
 724 0086 4CF25030 		movw	r0, #50000
 725 008a FFF7FEFF 		bl	FLASH_WaitForLastOperation
 726 008e 0346     		mov	r3, r0
 727 0090 FB75     		strb	r3, [r7, #23]
 728              	.L39:
 507:Drivers/STM32F3xx_HAL_Driver/Src/stm32f3xx_hal_flash_ex.c ****     }
 508:Drivers/STM32F3xx_HAL_Driver/Src/stm32f3xx_hal_flash_ex.c **** 
 509:Drivers/STM32F3xx_HAL_Driver/Src/stm32f3xx_hal_flash_ex.c ****     if((status == HAL_OK) && (WRP1_Data != 0xFF))
 729              		.loc 1 509 0
 730 0092 FB7D     		ldrb	r3, [r7, #23]	@ zero_extendqisi2
 731 0094 002B     		cmp	r3, #0
 732 0096 10D1     		bne	.L40
 733              		.loc 1 509 0 is_stmt 0 discriminator 1
 734 0098 7B8A     		ldrh	r3, [r7, #18]
 735 009a FF2B     		cmp	r3, #255
 736 009c 0DD0     		beq	.L40
 510:Drivers/STM32F3xx_HAL_Driver/Src/stm32f3xx_hal_flash_ex.c ****     {
 511:Drivers/STM32F3xx_HAL_Driver/Src/stm32f3xx_hal_flash_ex.c ****       OB->WRP1 &= WRP1_Data;
 737              		.loc 1 511 0 is_stmt 1
 738 009e 2149     		ldr	r1, .L44+4
 739 00a0 204B     		ldr	r3, .L44+4
 740 00a2 5B89     		ldrh	r3, [r3, #10]	@ movhi
 741 00a4 9AB2     		uxth	r2, r3
 742 00a6 7B8A     		ldrh	r3, [r7, #18]	@ movhi
 743 00a8 1340     		ands	r3, r3, r2
 744 00aa 9BB2     		uxth	r3, r3
 745 00ac 4B81     		strh	r3, [r1, #10]	@ movhi
 512:Drivers/STM32F3xx_HAL_Driver/Src/stm32f3xx_hal_flash_ex.c ****       
 513:Drivers/STM32F3xx_HAL_Driver/Src/stm32f3xx_hal_flash_ex.c ****       /* Wait for last operation to be completed */
 514:Drivers/STM32F3xx_HAL_Driver/Src/stm32f3xx_hal_flash_ex.c ****       status = FLASH_WaitForLastOperation((uint32_t)HAL_FLASH_TIMEOUT_VALUE);
 746              		.loc 1 514 0
 747 00ae 4CF25030 		movw	r0, #50000
 748 00b2 FFF7FEFF 		bl	FLASH_WaitForLastOperation
 749 00b6 0346     		mov	r3, r0
 750 00b8 FB75     		strb	r3, [r7, #23]
ARM GAS  /tmp/ccAhm58A.s 			page 23


 751              	.L40:
 515:Drivers/STM32F3xx_HAL_Driver/Src/stm32f3xx_hal_flash_ex.c ****     }
 516:Drivers/STM32F3xx_HAL_Driver/Src/stm32f3xx_hal_flash_ex.c ****           
 517:Drivers/STM32F3xx_HAL_Driver/Src/stm32f3xx_hal_flash_ex.c **** #if defined(STM32F302xE) || defined(STM32F303xE) || defined(STM32F398xx) || \
 518:Drivers/STM32F3xx_HAL_Driver/Src/stm32f3xx_hal_flash_ex.c ****     defined(STM32F302xC) || defined(STM32F303xC) || defined(STM32F358xx) || \
 519:Drivers/STM32F3xx_HAL_Driver/Src/stm32f3xx_hal_flash_ex.c ****     defined(STM32F373xC) || defined(STM32F378xx)
 520:Drivers/STM32F3xx_HAL_Driver/Src/stm32f3xx_hal_flash_ex.c ****     if((status == HAL_OK) && (WRP2_Data != 0xFF))
 752              		.loc 1 520 0
 753 00ba FB7D     		ldrb	r3, [r7, #23]	@ zero_extendqisi2
 754 00bc 002B     		cmp	r3, #0
 755 00be 10D1     		bne	.L41
 756              		.loc 1 520 0 is_stmt 0 discriminator 1
 757 00c0 3B8A     		ldrh	r3, [r7, #16]
 758 00c2 FF2B     		cmp	r3, #255
 759 00c4 0DD0     		beq	.L41
 521:Drivers/STM32F3xx_HAL_Driver/Src/stm32f3xx_hal_flash_ex.c ****     {
 522:Drivers/STM32F3xx_HAL_Driver/Src/stm32f3xx_hal_flash_ex.c ****       OB->WRP2 &= WRP2_Data;
 760              		.loc 1 522 0 is_stmt 1
 761 00c6 1749     		ldr	r1, .L44+4
 762 00c8 164B     		ldr	r3, .L44+4
 763 00ca 9B89     		ldrh	r3, [r3, #12]	@ movhi
 764 00cc 9AB2     		uxth	r2, r3
 765 00ce 3B8A     		ldrh	r3, [r7, #16]	@ movhi
 766 00d0 1340     		ands	r3, r3, r2
 767 00d2 9BB2     		uxth	r3, r3
 768 00d4 8B81     		strh	r3, [r1, #12]	@ movhi
 523:Drivers/STM32F3xx_HAL_Driver/Src/stm32f3xx_hal_flash_ex.c ****       
 524:Drivers/STM32F3xx_HAL_Driver/Src/stm32f3xx_hal_flash_ex.c ****       /* Wait for last operation to be completed */
 525:Drivers/STM32F3xx_HAL_Driver/Src/stm32f3xx_hal_flash_ex.c ****       status = FLASH_WaitForLastOperation((uint32_t)HAL_FLASH_TIMEOUT_VALUE);
 769              		.loc 1 525 0
 770 00d6 4CF25030 		movw	r0, #50000
 771 00da FFF7FEFF 		bl	FLASH_WaitForLastOperation
 772 00de 0346     		mov	r3, r0
 773 00e0 FB75     		strb	r3, [r7, #23]
 774              	.L41:
 526:Drivers/STM32F3xx_HAL_Driver/Src/stm32f3xx_hal_flash_ex.c ****     }
 527:Drivers/STM32F3xx_HAL_Driver/Src/stm32f3xx_hal_flash_ex.c **** 
 528:Drivers/STM32F3xx_HAL_Driver/Src/stm32f3xx_hal_flash_ex.c ****     if((status == HAL_OK) && (WRP3_Data != 0xFF))
 775              		.loc 1 528 0
 776 00e2 FB7D     		ldrb	r3, [r7, #23]	@ zero_extendqisi2
 777 00e4 002B     		cmp	r3, #0
 778 00e6 10D1     		bne	.L42
 779              		.loc 1 528 0 is_stmt 0 discriminator 1
 780 00e8 FB89     		ldrh	r3, [r7, #14]
 781 00ea FF2B     		cmp	r3, #255
 782 00ec 0DD0     		beq	.L42
 529:Drivers/STM32F3xx_HAL_Driver/Src/stm32f3xx_hal_flash_ex.c ****     {
 530:Drivers/STM32F3xx_HAL_Driver/Src/stm32f3xx_hal_flash_ex.c ****       OB->WRP3 &= WRP3_Data;
 783              		.loc 1 530 0 is_stmt 1
 784 00ee 0D49     		ldr	r1, .L44+4
 785 00f0 0C4B     		ldr	r3, .L44+4
 786 00f2 DB89     		ldrh	r3, [r3, #14]	@ movhi
 787 00f4 9AB2     		uxth	r2, r3
 788 00f6 FB89     		ldrh	r3, [r7, #14]	@ movhi
 789 00f8 1340     		ands	r3, r3, r2
 790 00fa 9BB2     		uxth	r3, r3
 791 00fc CB81     		strh	r3, [r1, #14]	@ movhi
ARM GAS  /tmp/ccAhm58A.s 			page 24


 531:Drivers/STM32F3xx_HAL_Driver/Src/stm32f3xx_hal_flash_ex.c ****       
 532:Drivers/STM32F3xx_HAL_Driver/Src/stm32f3xx_hal_flash_ex.c ****       /* Wait for last operation to be completed */
 533:Drivers/STM32F3xx_HAL_Driver/Src/stm32f3xx_hal_flash_ex.c ****       status = FLASH_WaitForLastOperation((uint32_t)HAL_FLASH_TIMEOUT_VALUE);
 792              		.loc 1 533 0
 793 00fe 4CF25030 		movw	r0, #50000
 794 0102 FFF7FEFF 		bl	FLASH_WaitForLastOperation
 795 0106 0346     		mov	r3, r0
 796 0108 FB75     		strb	r3, [r7, #23]
 797              	.L42:
 534:Drivers/STM32F3xx_HAL_Driver/Src/stm32f3xx_hal_flash_ex.c ****     }
 535:Drivers/STM32F3xx_HAL_Driver/Src/stm32f3xx_hal_flash_ex.c **** #endif /* STM32F302xE || STM32F303xE || STM32F398xx || */
 536:Drivers/STM32F3xx_HAL_Driver/Src/stm32f3xx_hal_flash_ex.c ****        /* STM32F302xC || STM32F303xC || STM32F358xx || */
 537:Drivers/STM32F3xx_HAL_Driver/Src/stm32f3xx_hal_flash_ex.c ****        /* STM32F373xC || STM32F378xx                   */
 538:Drivers/STM32F3xx_HAL_Driver/Src/stm32f3xx_hal_flash_ex.c **** 
 539:Drivers/STM32F3xx_HAL_Driver/Src/stm32f3xx_hal_flash_ex.c ****     /* if the program operation is completed, disable the OPTPG Bit */
 540:Drivers/STM32F3xx_HAL_Driver/Src/stm32f3xx_hal_flash_ex.c ****     CLEAR_BIT(FLASH->CR, FLASH_CR_OPTPG);
 798              		.loc 1 540 0
 799 010a 054A     		ldr	r2, .L44
 800 010c 044B     		ldr	r3, .L44
 801 010e 1B69     		ldr	r3, [r3, #16]
 802 0110 23F01003 		bic	r3, r3, #16
 803 0114 1361     		str	r3, [r2, #16]
 804              	.L38:
 541:Drivers/STM32F3xx_HAL_Driver/Src/stm32f3xx_hal_flash_ex.c ****   }
 542:Drivers/STM32F3xx_HAL_Driver/Src/stm32f3xx_hal_flash_ex.c ****   
 543:Drivers/STM32F3xx_HAL_Driver/Src/stm32f3xx_hal_flash_ex.c ****   return status;
 805              		.loc 1 543 0
 806 0116 FB7D     		ldrb	r3, [r7, #23]	@ zero_extendqisi2
 544:Drivers/STM32F3xx_HAL_Driver/Src/stm32f3xx_hal_flash_ex.c **** 
 545:Drivers/STM32F3xx_HAL_Driver/Src/stm32f3xx_hal_flash_ex.c **** }
 807              		.loc 1 545 0
 808 0118 1846     		mov	r0, r3
 809 011a 1837     		adds	r7, r7, #24
 810              	.LCFI32:
 811              		.cfi_def_cfa_offset 8
 812 011c BD46     		mov	sp, r7
 813              	.LCFI33:
 814              		.cfi_def_cfa_register 13
 815              		@ sp needed
 816 011e 80BD     		pop	{r7, pc}
 817              	.L45:
 818              		.align	2
 819              	.L44:
 820 0120 00200240 		.word	1073881088
 821 0124 00F8FF1F 		.word	536868864
 822              		.cfi_endproc
 823              	.LFE118:
 825              		.section	.text.FLASH_OB_DisableWRP,"ax",%progbits
 826              		.align	2
 827              		.thumb
 828              		.thumb_func
 830              	FLASH_OB_DisableWRP:
 831              	.LFB119:
 546:Drivers/STM32F3xx_HAL_Driver/Src/stm32f3xx_hal_flash_ex.c **** 
 547:Drivers/STM32F3xx_HAL_Driver/Src/stm32f3xx_hal_flash_ex.c **** /**
 548:Drivers/STM32F3xx_HAL_Driver/Src/stm32f3xx_hal_flash_ex.c ****   * @brief  Disable the write protection of the desired pages
 549:Drivers/STM32F3xx_HAL_Driver/Src/stm32f3xx_hal_flash_ex.c ****   * @note   When the memory read protection level is selected (RDP level = 1), 
ARM GAS  /tmp/ccAhm58A.s 			page 25


 550:Drivers/STM32F3xx_HAL_Driver/Src/stm32f3xx_hal_flash_ex.c ****   *         it is not possible to program or erase the flash page i if CortexM4  
 551:Drivers/STM32F3xx_HAL_Driver/Src/stm32f3xx_hal_flash_ex.c ****   *         debug features are connected or boot code is executed in RAM, even if nWRPi = 1 
 552:Drivers/STM32F3xx_HAL_Driver/Src/stm32f3xx_hal_flash_ex.c ****   * 
 553:Drivers/STM32F3xx_HAL_Driver/Src/stm32f3xx_hal_flash_ex.c ****   * @param  WriteProtectPage: specifies the page(s) to be write unprotected.
 554:Drivers/STM32F3xx_HAL_Driver/Src/stm32f3xx_hal_flash_ex.c ****   *         The value of this parameter depend on device used within the same series 
 555:Drivers/STM32F3xx_HAL_Driver/Src/stm32f3xx_hal_flash_ex.c ****   * @retval HAL status 
 556:Drivers/STM32F3xx_HAL_Driver/Src/stm32f3xx_hal_flash_ex.c ****   */
 557:Drivers/STM32F3xx_HAL_Driver/Src/stm32f3xx_hal_flash_ex.c **** static HAL_StatusTypeDef FLASH_OB_DisableWRP(uint32_t WriteProtectPage)
 558:Drivers/STM32F3xx_HAL_Driver/Src/stm32f3xx_hal_flash_ex.c **** {
 832              		.loc 1 558 0
 833              		.cfi_startproc
 834              		@ args = 0, pretend = 0, frame = 24
 835              		@ frame_needed = 1, uses_anonymous_args = 0
 836 0000 80B5     		push	{r7, lr}
 837              	.LCFI34:
 838              		.cfi_def_cfa_offset 8
 839              		.cfi_offset 7, -8
 840              		.cfi_offset 14, -4
 841 0002 86B0     		sub	sp, sp, #24
 842              	.LCFI35:
 843              		.cfi_def_cfa_offset 32
 844 0004 00AF     		add	r7, sp, #0
 845              	.LCFI36:
 846              		.cfi_def_cfa_register 7
 847 0006 7860     		str	r0, [r7, #4]
 559:Drivers/STM32F3xx_HAL_Driver/Src/stm32f3xx_hal_flash_ex.c ****   HAL_StatusTypeDef status = HAL_OK;
 848              		.loc 1 559 0
 849 0008 0023     		movs	r3, #0
 850 000a FB75     		strb	r3, [r7, #23]
 560:Drivers/STM32F3xx_HAL_Driver/Src/stm32f3xx_hal_flash_ex.c ****   uint16_t WRP0_Data = 0xFFFF, WRP1_Data = 0xFFFF;
 851              		.loc 1 560 0
 852 000c 4FF6FF73 		movw	r3, #65535
 853 0010 BB82     		strh	r3, [r7, #20]	@ movhi
 854 0012 4FF6FF73 		movw	r3, #65535
 855 0016 7B82     		strh	r3, [r7, #18]	@ movhi
 561:Drivers/STM32F3xx_HAL_Driver/Src/stm32f3xx_hal_flash_ex.c **** #if defined(STM32F302xE) || defined(STM32F303xE) || defined(STM32F398xx) || \
 562:Drivers/STM32F3xx_HAL_Driver/Src/stm32f3xx_hal_flash_ex.c ****     defined(STM32F302xC) || defined(STM32F303xC) || defined(STM32F358xx) || \
 563:Drivers/STM32F3xx_HAL_Driver/Src/stm32f3xx_hal_flash_ex.c ****     defined(STM32F373xC) || defined(STM32F378xx)
 564:Drivers/STM32F3xx_HAL_Driver/Src/stm32f3xx_hal_flash_ex.c ****   uint16_t WRP2_Data = 0xFFFF, WRP3_Data = 0xFFFF;
 856              		.loc 1 564 0
 857 0018 4FF6FF73 		movw	r3, #65535
 858 001c 3B82     		strh	r3, [r7, #16]	@ movhi
 859 001e 4FF6FF73 		movw	r3, #65535
 860 0022 FB81     		strh	r3, [r7, #14]	@ movhi
 565:Drivers/STM32F3xx_HAL_Driver/Src/stm32f3xx_hal_flash_ex.c **** #endif /* STM32F302xE || STM32F303xE || STM32F398xx || */
 566:Drivers/STM32F3xx_HAL_Driver/Src/stm32f3xx_hal_flash_ex.c ****        /* STM32F302xC || STM32F303xC || STM32F358xx || */
 567:Drivers/STM32F3xx_HAL_Driver/Src/stm32f3xx_hal_flash_ex.c ****        /* STM32F373xC || STM32F378xx                   */
 568:Drivers/STM32F3xx_HAL_Driver/Src/stm32f3xx_hal_flash_ex.c ****   
 569:Drivers/STM32F3xx_HAL_Driver/Src/stm32f3xx_hal_flash_ex.c ****   /* Check the parameters */
 570:Drivers/STM32F3xx_HAL_Driver/Src/stm32f3xx_hal_flash_ex.c ****   assert_param(IS_OB_WRP(WriteProtectPage));
 571:Drivers/STM32F3xx_HAL_Driver/Src/stm32f3xx_hal_flash_ex.c **** 
 572:Drivers/STM32F3xx_HAL_Driver/Src/stm32f3xx_hal_flash_ex.c ****   WRP0_Data = (uint16_t)(WriteProtectPage & OB_WRP_PAGES0TO15MASK);
 861              		.loc 1 572 0
 862 0024 7B68     		ldr	r3, [r7, #4]
 863 0026 9BB2     		uxth	r3, r3
 864 0028 DBB2     		uxtb	r3, r3
 865 002a BB82     		strh	r3, [r7, #20]	@ movhi
ARM GAS  /tmp/ccAhm58A.s 			page 26


 573:Drivers/STM32F3xx_HAL_Driver/Src/stm32f3xx_hal_flash_ex.c ****   WRP1_Data = (uint16_t)((WriteProtectPage & OB_WRP_PAGES16TO31MASK) >> 8);
 866              		.loc 1 573 0
 867 002c 7B68     		ldr	r3, [r7, #4]
 868 002e 03F47F43 		and	r3, r3, #65280
 869 0032 1B0A     		lsrs	r3, r3, #8
 870 0034 7B82     		strh	r3, [r7, #18]	@ movhi
 574:Drivers/STM32F3xx_HAL_Driver/Src/stm32f3xx_hal_flash_ex.c **** #if defined(STM32F302xC) || defined(STM32F303xC) || defined(STM32F358xx) || \
 575:Drivers/STM32F3xx_HAL_Driver/Src/stm32f3xx_hal_flash_ex.c ****     defined(STM32F373xC) || defined(STM32F378xx)
 576:Drivers/STM32F3xx_HAL_Driver/Src/stm32f3xx_hal_flash_ex.c ****   WRP2_Data = (uint16_t)((WriteProtectPage & OB_WRP_PAGES32TO47MASK) >> 16);
 871              		.loc 1 576 0
 872 0036 7B68     		ldr	r3, [r7, #4]
 873 0038 03F47F03 		and	r3, r3, #16711680
 874 003c 1B0C     		lsrs	r3, r3, #16
 875 003e 3B82     		strh	r3, [r7, #16]	@ movhi
 577:Drivers/STM32F3xx_HAL_Driver/Src/stm32f3xx_hal_flash_ex.c ****   WRP3_Data = (uint16_t)((WriteProtectPage & OB_WRP_PAGES48TO127MASK) >> 24); 
 876              		.loc 1 577 0
 877 0040 7B68     		ldr	r3, [r7, #4]
 878 0042 1B0E     		lsrs	r3, r3, #24
 879 0044 FB81     		strh	r3, [r7, #14]	@ movhi
 578:Drivers/STM32F3xx_HAL_Driver/Src/stm32f3xx_hal_flash_ex.c **** #endif /* STM32F302xC || STM32F303xC || STM32F358xx || */
 579:Drivers/STM32F3xx_HAL_Driver/Src/stm32f3xx_hal_flash_ex.c ****        /* STM32F373xC || STM32F378xx                   */
 580:Drivers/STM32F3xx_HAL_Driver/Src/stm32f3xx_hal_flash_ex.c **** 
 581:Drivers/STM32F3xx_HAL_Driver/Src/stm32f3xx_hal_flash_ex.c **** #if defined(STM32F302xE) || defined(STM32F303xE) || defined(STM32F398xx)
 582:Drivers/STM32F3xx_HAL_Driver/Src/stm32f3xx_hal_flash_ex.c ****   WRP2_Data = (uint16_t)((WriteProtectPage & OB_WRP_PAGES32TO47MASK) >> 16);
 583:Drivers/STM32F3xx_HAL_Driver/Src/stm32f3xx_hal_flash_ex.c ****   WRP3_Data = (uint16_t)((WriteProtectPage & OB_WRP_PAGES48TO255MASK) >> 24); 
 584:Drivers/STM32F3xx_HAL_Driver/Src/stm32f3xx_hal_flash_ex.c **** #endif /* STM32F303xE || STM32F303xE || STM32F398xx */
 585:Drivers/STM32F3xx_HAL_Driver/Src/stm32f3xx_hal_flash_ex.c ****     
 586:Drivers/STM32F3xx_HAL_Driver/Src/stm32f3xx_hal_flash_ex.c ****   /* Wait for last operation to be completed */
 587:Drivers/STM32F3xx_HAL_Driver/Src/stm32f3xx_hal_flash_ex.c ****   status = FLASH_WaitForLastOperation((uint32_t)HAL_FLASH_TIMEOUT_VALUE);
 880              		.loc 1 587 0
 881 0046 4CF25030 		movw	r0, #50000
 882 004a FFF7FEFF 		bl	FLASH_WaitForLastOperation
 883 004e 0346     		mov	r3, r0
 884 0050 FB75     		strb	r3, [r7, #23]
 588:Drivers/STM32F3xx_HAL_Driver/Src/stm32f3xx_hal_flash_ex.c **** 
 589:Drivers/STM32F3xx_HAL_Driver/Src/stm32f3xx_hal_flash_ex.c ****   /* Clear pending flags (if any) */  
 590:Drivers/STM32F3xx_HAL_Driver/Src/stm32f3xx_hal_flash_ex.c ****   __HAL_FLASH_CLEAR_FLAG(FLASH_FLAG_EOP | FLASH_FLAG_WRPERR | FLASH_FLAG_PGERR); 
 885              		.loc 1 590 0
 886 0052 324B     		ldr	r3, .L53
 887 0054 3422     		movs	r2, #52
 888 0056 DA60     		str	r2, [r3, #12]
 591:Drivers/STM32F3xx_HAL_Driver/Src/stm32f3xx_hal_flash_ex.c **** 
 592:Drivers/STM32F3xx_HAL_Driver/Src/stm32f3xx_hal_flash_ex.c ****   if(status == HAL_OK)
 889              		.loc 1 592 0
 890 0058 FB7D     		ldrb	r3, [r7, #23]	@ zero_extendqisi2
 891 005a 002B     		cmp	r3, #0
 892 005c 58D1     		bne	.L47
 593:Drivers/STM32F3xx_HAL_Driver/Src/stm32f3xx_hal_flash_ex.c ****   { 
 594:Drivers/STM32F3xx_HAL_Driver/Src/stm32f3xx_hal_flash_ex.c ****     SET_BIT(FLASH->CR, FLASH_CR_OPTPG);
 893              		.loc 1 594 0
 894 005e 2F4A     		ldr	r2, .L53
 895 0060 2E4B     		ldr	r3, .L53
 896 0062 1B69     		ldr	r3, [r3, #16]
 897 0064 43F01003 		orr	r3, r3, #16
 898 0068 1361     		str	r3, [r2, #16]
 595:Drivers/STM32F3xx_HAL_Driver/Src/stm32f3xx_hal_flash_ex.c **** 
 596:Drivers/STM32F3xx_HAL_Driver/Src/stm32f3xx_hal_flash_ex.c ****     if(WRP0_Data != 0xFF)
ARM GAS  /tmp/ccAhm58A.s 			page 27


 899              		.loc 1 596 0
 900 006a BB8A     		ldrh	r3, [r7, #20]
 901 006c FF2B     		cmp	r3, #255
 902 006e 0DD0     		beq	.L48
 597:Drivers/STM32F3xx_HAL_Driver/Src/stm32f3xx_hal_flash_ex.c ****     {
 598:Drivers/STM32F3xx_HAL_Driver/Src/stm32f3xx_hal_flash_ex.c ****       OB->WRP0 |= WRP0_Data;
 903              		.loc 1 598 0
 904 0070 2B49     		ldr	r1, .L53+4
 905 0072 2B4B     		ldr	r3, .L53+4
 906 0074 1B89     		ldrh	r3, [r3, #8]	@ movhi
 907 0076 9AB2     		uxth	r2, r3
 908 0078 BB8A     		ldrh	r3, [r7, #20]	@ movhi
 909 007a 1343     		orrs	r3, r3, r2
 910 007c 9BB2     		uxth	r3, r3
 911 007e 0B81     		strh	r3, [r1, #8]	@ movhi
 599:Drivers/STM32F3xx_HAL_Driver/Src/stm32f3xx_hal_flash_ex.c ****       
 600:Drivers/STM32F3xx_HAL_Driver/Src/stm32f3xx_hal_flash_ex.c ****       /* Wait for last operation to be completed */
 601:Drivers/STM32F3xx_HAL_Driver/Src/stm32f3xx_hal_flash_ex.c ****       status = FLASH_WaitForLastOperation((uint32_t)HAL_FLASH_TIMEOUT_VALUE);
 912              		.loc 1 601 0
 913 0080 4CF25030 		movw	r0, #50000
 914 0084 FFF7FEFF 		bl	FLASH_WaitForLastOperation
 915 0088 0346     		mov	r3, r0
 916 008a FB75     		strb	r3, [r7, #23]
 917              	.L48:
 602:Drivers/STM32F3xx_HAL_Driver/Src/stm32f3xx_hal_flash_ex.c ****     }
 603:Drivers/STM32F3xx_HAL_Driver/Src/stm32f3xx_hal_flash_ex.c **** 
 604:Drivers/STM32F3xx_HAL_Driver/Src/stm32f3xx_hal_flash_ex.c ****     if((status == HAL_OK) && (WRP1_Data != 0xFF))
 918              		.loc 1 604 0
 919 008c FB7D     		ldrb	r3, [r7, #23]	@ zero_extendqisi2
 920 008e 002B     		cmp	r3, #0
 921 0090 10D1     		bne	.L49
 922              		.loc 1 604 0 is_stmt 0 discriminator 1
 923 0092 7B8A     		ldrh	r3, [r7, #18]
 924 0094 FF2B     		cmp	r3, #255
 925 0096 0DD0     		beq	.L49
 605:Drivers/STM32F3xx_HAL_Driver/Src/stm32f3xx_hal_flash_ex.c ****     {
 606:Drivers/STM32F3xx_HAL_Driver/Src/stm32f3xx_hal_flash_ex.c ****       OB->WRP1 |= WRP1_Data;
 926              		.loc 1 606 0 is_stmt 1
 927 0098 2149     		ldr	r1, .L53+4
 928 009a 214B     		ldr	r3, .L53+4
 929 009c 5B89     		ldrh	r3, [r3, #10]	@ movhi
 930 009e 9AB2     		uxth	r2, r3
 931 00a0 7B8A     		ldrh	r3, [r7, #18]	@ movhi
 932 00a2 1343     		orrs	r3, r3, r2
 933 00a4 9BB2     		uxth	r3, r3
 934 00a6 4B81     		strh	r3, [r1, #10]	@ movhi
 607:Drivers/STM32F3xx_HAL_Driver/Src/stm32f3xx_hal_flash_ex.c ****       
 608:Drivers/STM32F3xx_HAL_Driver/Src/stm32f3xx_hal_flash_ex.c ****       /* Wait for last operation to be completed */
 609:Drivers/STM32F3xx_HAL_Driver/Src/stm32f3xx_hal_flash_ex.c ****       status = FLASH_WaitForLastOperation((uint32_t)HAL_FLASH_TIMEOUT_VALUE);
 935              		.loc 1 609 0
 936 00a8 4CF25030 		movw	r0, #50000
 937 00ac FFF7FEFF 		bl	FLASH_WaitForLastOperation
 938 00b0 0346     		mov	r3, r0
 939 00b2 FB75     		strb	r3, [r7, #23]
 940              	.L49:
 610:Drivers/STM32F3xx_HAL_Driver/Src/stm32f3xx_hal_flash_ex.c ****     }
 611:Drivers/STM32F3xx_HAL_Driver/Src/stm32f3xx_hal_flash_ex.c ****           
ARM GAS  /tmp/ccAhm58A.s 			page 28


 612:Drivers/STM32F3xx_HAL_Driver/Src/stm32f3xx_hal_flash_ex.c **** #if defined(STM32F302xE) || defined(STM32F303xE) || defined(STM32F398xx) || \
 613:Drivers/STM32F3xx_HAL_Driver/Src/stm32f3xx_hal_flash_ex.c ****     defined(STM32F302xC) || defined(STM32F303xC) || defined(STM32F358xx) || \
 614:Drivers/STM32F3xx_HAL_Driver/Src/stm32f3xx_hal_flash_ex.c ****     defined(STM32F373xC) || defined(STM32F378xx)
 615:Drivers/STM32F3xx_HAL_Driver/Src/stm32f3xx_hal_flash_ex.c ****     if((status == HAL_OK) && (WRP2_Data != 0xFF))
 941              		.loc 1 615 0
 942 00b4 FB7D     		ldrb	r3, [r7, #23]	@ zero_extendqisi2
 943 00b6 002B     		cmp	r3, #0
 944 00b8 10D1     		bne	.L50
 945              		.loc 1 615 0 is_stmt 0 discriminator 1
 946 00ba 3B8A     		ldrh	r3, [r7, #16]
 947 00bc FF2B     		cmp	r3, #255
 948 00be 0DD0     		beq	.L50
 616:Drivers/STM32F3xx_HAL_Driver/Src/stm32f3xx_hal_flash_ex.c ****     {
 617:Drivers/STM32F3xx_HAL_Driver/Src/stm32f3xx_hal_flash_ex.c ****       OB->WRP2 |= WRP2_Data;
 949              		.loc 1 617 0 is_stmt 1
 950 00c0 1749     		ldr	r1, .L53+4
 951 00c2 174B     		ldr	r3, .L53+4
 952 00c4 9B89     		ldrh	r3, [r3, #12]	@ movhi
 953 00c6 9AB2     		uxth	r2, r3
 954 00c8 3B8A     		ldrh	r3, [r7, #16]	@ movhi
 955 00ca 1343     		orrs	r3, r3, r2
 956 00cc 9BB2     		uxth	r3, r3
 957 00ce 8B81     		strh	r3, [r1, #12]	@ movhi
 618:Drivers/STM32F3xx_HAL_Driver/Src/stm32f3xx_hal_flash_ex.c ****       
 619:Drivers/STM32F3xx_HAL_Driver/Src/stm32f3xx_hal_flash_ex.c ****       /* Wait for last operation to be completed */
 620:Drivers/STM32F3xx_HAL_Driver/Src/stm32f3xx_hal_flash_ex.c ****       status = FLASH_WaitForLastOperation((uint32_t)HAL_FLASH_TIMEOUT_VALUE);
 958              		.loc 1 620 0
 959 00d0 4CF25030 		movw	r0, #50000
 960 00d4 FFF7FEFF 		bl	FLASH_WaitForLastOperation
 961 00d8 0346     		mov	r3, r0
 962 00da FB75     		strb	r3, [r7, #23]
 963              	.L50:
 621:Drivers/STM32F3xx_HAL_Driver/Src/stm32f3xx_hal_flash_ex.c ****     }
 622:Drivers/STM32F3xx_HAL_Driver/Src/stm32f3xx_hal_flash_ex.c **** 
 623:Drivers/STM32F3xx_HAL_Driver/Src/stm32f3xx_hal_flash_ex.c ****     if((status == HAL_OK) && (WRP3_Data != 0xFF))
 964              		.loc 1 623 0
 965 00dc FB7D     		ldrb	r3, [r7, #23]	@ zero_extendqisi2
 966 00de 002B     		cmp	r3, #0
 967 00e0 10D1     		bne	.L51
 968              		.loc 1 623 0 is_stmt 0 discriminator 1
 969 00e2 FB89     		ldrh	r3, [r7, #14]
 970 00e4 FF2B     		cmp	r3, #255
 971 00e6 0DD0     		beq	.L51
 624:Drivers/STM32F3xx_HAL_Driver/Src/stm32f3xx_hal_flash_ex.c ****     {
 625:Drivers/STM32F3xx_HAL_Driver/Src/stm32f3xx_hal_flash_ex.c ****       OB->WRP3 |= WRP3_Data;
 972              		.loc 1 625 0 is_stmt 1
 973 00e8 0D49     		ldr	r1, .L53+4
 974 00ea 0D4B     		ldr	r3, .L53+4
 975 00ec DB89     		ldrh	r3, [r3, #14]	@ movhi
 976 00ee 9AB2     		uxth	r2, r3
 977 00f0 FB89     		ldrh	r3, [r7, #14]	@ movhi
 978 00f2 1343     		orrs	r3, r3, r2
 979 00f4 9BB2     		uxth	r3, r3
 980 00f6 CB81     		strh	r3, [r1, #14]	@ movhi
 626:Drivers/STM32F3xx_HAL_Driver/Src/stm32f3xx_hal_flash_ex.c ****       
 627:Drivers/STM32F3xx_HAL_Driver/Src/stm32f3xx_hal_flash_ex.c ****       /* Wait for last operation to be completed */
 628:Drivers/STM32F3xx_HAL_Driver/Src/stm32f3xx_hal_flash_ex.c ****       status = FLASH_WaitForLastOperation((uint32_t)HAL_FLASH_TIMEOUT_VALUE);
ARM GAS  /tmp/ccAhm58A.s 			page 29


 981              		.loc 1 628 0
 982 00f8 4CF25030 		movw	r0, #50000
 983 00fc FFF7FEFF 		bl	FLASH_WaitForLastOperation
 984 0100 0346     		mov	r3, r0
 985 0102 FB75     		strb	r3, [r7, #23]
 986              	.L51:
 629:Drivers/STM32F3xx_HAL_Driver/Src/stm32f3xx_hal_flash_ex.c ****     }
 630:Drivers/STM32F3xx_HAL_Driver/Src/stm32f3xx_hal_flash_ex.c **** #endif /* STM32F302xE || STM32F303xE || STM32F398xx || */
 631:Drivers/STM32F3xx_HAL_Driver/Src/stm32f3xx_hal_flash_ex.c ****        /* STM32F302xC || STM32F303xC || STM32F358xx || */
 632:Drivers/STM32F3xx_HAL_Driver/Src/stm32f3xx_hal_flash_ex.c ****        /* STM32F373xC || STM32F378xx                   */
 633:Drivers/STM32F3xx_HAL_Driver/Src/stm32f3xx_hal_flash_ex.c **** 
 634:Drivers/STM32F3xx_HAL_Driver/Src/stm32f3xx_hal_flash_ex.c ****     /* if the program operation is completed, disable the OPTPG Bit */
 635:Drivers/STM32F3xx_HAL_Driver/Src/stm32f3xx_hal_flash_ex.c ****     CLEAR_BIT(FLASH->CR, FLASH_CR_OPTPG);
 987              		.loc 1 635 0
 988 0104 054A     		ldr	r2, .L53
 989 0106 054B     		ldr	r3, .L53
 990 0108 1B69     		ldr	r3, [r3, #16]
 991 010a 23F01003 		bic	r3, r3, #16
 992 010e 1361     		str	r3, [r2, #16]
 993              	.L47:
 636:Drivers/STM32F3xx_HAL_Driver/Src/stm32f3xx_hal_flash_ex.c ****   }
 637:Drivers/STM32F3xx_HAL_Driver/Src/stm32f3xx_hal_flash_ex.c ****   
 638:Drivers/STM32F3xx_HAL_Driver/Src/stm32f3xx_hal_flash_ex.c ****   return status;
 994              		.loc 1 638 0
 995 0110 FB7D     		ldrb	r3, [r7, #23]	@ zero_extendqisi2
 639:Drivers/STM32F3xx_HAL_Driver/Src/stm32f3xx_hal_flash_ex.c **** }
 996              		.loc 1 639 0
 997 0112 1846     		mov	r0, r3
 998 0114 1837     		adds	r7, r7, #24
 999              	.LCFI37:
 1000              		.cfi_def_cfa_offset 8
 1001 0116 BD46     		mov	sp, r7
 1002              	.LCFI38:
 1003              		.cfi_def_cfa_register 13
 1004              		@ sp needed
 1005 0118 80BD     		pop	{r7, pc}
 1006              	.L54:
 1007 011a 00BF     		.align	2
 1008              	.L53:
 1009 011c 00200240 		.word	1073881088
 1010 0120 00F8FF1F 		.word	536868864
 1011              		.cfi_endproc
 1012              	.LFE119:
 1014              		.section	.text.FLASH_OB_RDP_LevelConfig,"ax",%progbits
 1015              		.align	2
 1016              		.thumb
 1017              		.thumb_func
 1019              	FLASH_OB_RDP_LevelConfig:
 1020              	.LFB120:
 640:Drivers/STM32F3xx_HAL_Driver/Src/stm32f3xx_hal_flash_ex.c **** 
 641:Drivers/STM32F3xx_HAL_Driver/Src/stm32f3xx_hal_flash_ex.c **** /**
 642:Drivers/STM32F3xx_HAL_Driver/Src/stm32f3xx_hal_flash_ex.c ****   * @brief  Set the read protection level.
 643:Drivers/STM32F3xx_HAL_Driver/Src/stm32f3xx_hal_flash_ex.c ****   * @param  ReadProtectLevel: specifies the read protection level.
 644:Drivers/STM32F3xx_HAL_Driver/Src/stm32f3xx_hal_flash_ex.c ****   *         This parameter can be one of the following values:
 645:Drivers/STM32F3xx_HAL_Driver/Src/stm32f3xx_hal_flash_ex.c ****   *            @arg OB_RDP_LEVEL_0: No protection
 646:Drivers/STM32F3xx_HAL_Driver/Src/stm32f3xx_hal_flash_ex.c ****   *            @arg OB_RDP_LEVEL_1: Read protection of the memory
 647:Drivers/STM32F3xx_HAL_Driver/Src/stm32f3xx_hal_flash_ex.c ****   *            @arg OB_RDP_LEVEL_2: Full chip protection
ARM GAS  /tmp/ccAhm58A.s 			page 30


 648:Drivers/STM32F3xx_HAL_Driver/Src/stm32f3xx_hal_flash_ex.c ****   *   
 649:Drivers/STM32F3xx_HAL_Driver/Src/stm32f3xx_hal_flash_ex.c ****   * @note   Warning: When enabling OB_RDP level 2 it's no more possible to go back to level 1 or 0
 650:Drivers/STM32F3xx_HAL_Driver/Src/stm32f3xx_hal_flash_ex.c ****   *    
 651:Drivers/STM32F3xx_HAL_Driver/Src/stm32f3xx_hal_flash_ex.c ****   * @retval HAL status
 652:Drivers/STM32F3xx_HAL_Driver/Src/stm32f3xx_hal_flash_ex.c ****   */
 653:Drivers/STM32F3xx_HAL_Driver/Src/stm32f3xx_hal_flash_ex.c **** static HAL_StatusTypeDef FLASH_OB_RDP_LevelConfig(uint8_t ReadProtectLevel)
 654:Drivers/STM32F3xx_HAL_Driver/Src/stm32f3xx_hal_flash_ex.c **** {
 1021              		.loc 1 654 0
 1022              		.cfi_startproc
 1023              		@ args = 0, pretend = 0, frame = 16
 1024              		@ frame_needed = 1, uses_anonymous_args = 0
 1025 0000 80B5     		push	{r7, lr}
 1026              	.LCFI39:
 1027              		.cfi_def_cfa_offset 8
 1028              		.cfi_offset 7, -8
 1029              		.cfi_offset 14, -4
 1030 0002 84B0     		sub	sp, sp, #16
 1031              	.LCFI40:
 1032              		.cfi_def_cfa_offset 24
 1033 0004 00AF     		add	r7, sp, #0
 1034              	.LCFI41:
 1035              		.cfi_def_cfa_register 7
 1036 0006 0346     		mov	r3, r0
 1037 0008 FB71     		strb	r3, [r7, #7]
 655:Drivers/STM32F3xx_HAL_Driver/Src/stm32f3xx_hal_flash_ex.c ****   HAL_StatusTypeDef status = HAL_OK;
 1038              		.loc 1 655 0
 1039 000a 0023     		movs	r3, #0
 1040 000c FB73     		strb	r3, [r7, #15]
 656:Drivers/STM32F3xx_HAL_Driver/Src/stm32f3xx_hal_flash_ex.c ****   
 657:Drivers/STM32F3xx_HAL_Driver/Src/stm32f3xx_hal_flash_ex.c ****   /* Check the parameters */
 658:Drivers/STM32F3xx_HAL_Driver/Src/stm32f3xx_hal_flash_ex.c ****   assert_param(IS_OB_RDP_LEVEL(ReadProtectLevel));
 659:Drivers/STM32F3xx_HAL_Driver/Src/stm32f3xx_hal_flash_ex.c ****     
 660:Drivers/STM32F3xx_HAL_Driver/Src/stm32f3xx_hal_flash_ex.c ****   /* Wait for last operation to be completed */
 661:Drivers/STM32F3xx_HAL_Driver/Src/stm32f3xx_hal_flash_ex.c ****   status = FLASH_WaitForLastOperation((uint32_t)HAL_FLASH_TIMEOUT_VALUE);
 1041              		.loc 1 661 0
 1042 000e 4CF25030 		movw	r0, #50000
 1043 0012 FFF7FEFF 		bl	FLASH_WaitForLastOperation
 1044 0016 0346     		mov	r3, r0
 1045 0018 FB73     		strb	r3, [r7, #15]
 662:Drivers/STM32F3xx_HAL_Driver/Src/stm32f3xx_hal_flash_ex.c **** 
 663:Drivers/STM32F3xx_HAL_Driver/Src/stm32f3xx_hal_flash_ex.c ****   /* Clear pending flags (if any) */  
 664:Drivers/STM32F3xx_HAL_Driver/Src/stm32f3xx_hal_flash_ex.c ****   __HAL_FLASH_CLEAR_FLAG(FLASH_FLAG_EOP | FLASH_FLAG_WRPERR | FLASH_FLAG_PGERR); 
 1046              		.loc 1 664 0
 1047 001a 104B     		ldr	r3, .L58
 1048 001c 3422     		movs	r2, #52
 1049 001e DA60     		str	r2, [r3, #12]
 665:Drivers/STM32F3xx_HAL_Driver/Src/stm32f3xx_hal_flash_ex.c **** 
 666:Drivers/STM32F3xx_HAL_Driver/Src/stm32f3xx_hal_flash_ex.c ****   if(status == HAL_OK)
 1050              		.loc 1 666 0
 1051 0020 FB7B     		ldrb	r3, [r7, #15]	@ zero_extendqisi2
 1052 0022 002B     		cmp	r3, #0
 1053 0024 15D1     		bne	.L56
 667:Drivers/STM32F3xx_HAL_Driver/Src/stm32f3xx_hal_flash_ex.c ****   { 
 668:Drivers/STM32F3xx_HAL_Driver/Src/stm32f3xx_hal_flash_ex.c ****     /* Enable the Option Bytes Programming operation */
 669:Drivers/STM32F3xx_HAL_Driver/Src/stm32f3xx_hal_flash_ex.c ****     SET_BIT(FLASH->CR, FLASH_CR_OPTPG);
 1054              		.loc 1 669 0
 1055 0026 0D4A     		ldr	r2, .L58
ARM GAS  /tmp/ccAhm58A.s 			page 31


 1056 0028 0C4B     		ldr	r3, .L58
 1057 002a 1B69     		ldr	r3, [r3, #16]
 1058 002c 43F01003 		orr	r3, r3, #16
 1059 0030 1361     		str	r3, [r2, #16]
 670:Drivers/STM32F3xx_HAL_Driver/Src/stm32f3xx_hal_flash_ex.c **** 
 671:Drivers/STM32F3xx_HAL_Driver/Src/stm32f3xx_hal_flash_ex.c ****     WRITE_REG(OB->RDP, ReadProtectLevel);
 1060              		.loc 1 671 0
 1061 0032 0B4B     		ldr	r3, .L58+4
 1062 0034 FA79     		ldrb	r2, [r7, #7]	@ zero_extendqisi2
 1063 0036 92B2     		uxth	r2, r2
 1064 0038 1A80     		strh	r2, [r3]	@ movhi
 672:Drivers/STM32F3xx_HAL_Driver/Src/stm32f3xx_hal_flash_ex.c **** 
 673:Drivers/STM32F3xx_HAL_Driver/Src/stm32f3xx_hal_flash_ex.c ****     /* Wait for last operation to be completed */
 674:Drivers/STM32F3xx_HAL_Driver/Src/stm32f3xx_hal_flash_ex.c ****     status = FLASH_WaitForLastOperation((uint32_t)HAL_FLASH_TIMEOUT_VALUE); 
 1065              		.loc 1 674 0
 1066 003a 4CF25030 		movw	r0, #50000
 1067 003e FFF7FEFF 		bl	FLASH_WaitForLastOperation
 1068 0042 0346     		mov	r3, r0
 1069 0044 FB73     		strb	r3, [r7, #15]
 675:Drivers/STM32F3xx_HAL_Driver/Src/stm32f3xx_hal_flash_ex.c **** 
 676:Drivers/STM32F3xx_HAL_Driver/Src/stm32f3xx_hal_flash_ex.c ****       /* if the program operation is completed, disable the OPTPG Bit */
 677:Drivers/STM32F3xx_HAL_Driver/Src/stm32f3xx_hal_flash_ex.c ****       CLEAR_BIT(FLASH->CR, FLASH_CR_OPTPG);
 1070              		.loc 1 677 0
 1071 0046 054A     		ldr	r2, .L58
 1072 0048 044B     		ldr	r3, .L58
 1073 004a 1B69     		ldr	r3, [r3, #16]
 1074 004c 23F01003 		bic	r3, r3, #16
 1075 0050 1361     		str	r3, [r2, #16]
 1076              	.L56:
 678:Drivers/STM32F3xx_HAL_Driver/Src/stm32f3xx_hal_flash_ex.c ****     }
 679:Drivers/STM32F3xx_HAL_Driver/Src/stm32f3xx_hal_flash_ex.c ****   
 680:Drivers/STM32F3xx_HAL_Driver/Src/stm32f3xx_hal_flash_ex.c ****   return status;
 1077              		.loc 1 680 0
 1078 0052 FB7B     		ldrb	r3, [r7, #15]	@ zero_extendqisi2
 681:Drivers/STM32F3xx_HAL_Driver/Src/stm32f3xx_hal_flash_ex.c **** }
 1079              		.loc 1 681 0
 1080 0054 1846     		mov	r0, r3
 1081 0056 1037     		adds	r7, r7, #16
 1082              	.LCFI42:
 1083              		.cfi_def_cfa_offset 8
 1084 0058 BD46     		mov	sp, r7
 1085              	.LCFI43:
 1086              		.cfi_def_cfa_register 13
 1087              		@ sp needed
 1088 005a 80BD     		pop	{r7, pc}
 1089              	.L59:
 1090              		.align	2
 1091              	.L58:
 1092 005c 00200240 		.word	1073881088
 1093 0060 00F8FF1F 		.word	536868864
 1094              		.cfi_endproc
 1095              	.LFE120:
 1097              		.section	.text.FLASH_OB_UserConfig,"ax",%progbits
 1098              		.align	2
 1099              		.thumb
 1100              		.thumb_func
 1102              	FLASH_OB_UserConfig:
ARM GAS  /tmp/ccAhm58A.s 			page 32


 1103              	.LFB121:
 682:Drivers/STM32F3xx_HAL_Driver/Src/stm32f3xx_hal_flash_ex.c **** 
 683:Drivers/STM32F3xx_HAL_Driver/Src/stm32f3xx_hal_flash_ex.c **** /**
 684:Drivers/STM32F3xx_HAL_Driver/Src/stm32f3xx_hal_flash_ex.c ****   * @brief  Program the FLASH User Option Byte.    
 685:Drivers/STM32F3xx_HAL_Driver/Src/stm32f3xx_hal_flash_ex.c ****   * @note   Programming of the OB should be performed only after an erase (otherwise PGERR occurs)
 686:Drivers/STM32F3xx_HAL_Driver/Src/stm32f3xx_hal_flash_ex.c ****   * @param  UserConfig: The FLASH User Option Bytes values: IWDG_SW(Bit0), RST_STOP(Bit1), RST_STDB
 687:Drivers/STM32F3xx_HAL_Driver/Src/stm32f3xx_hal_flash_ex.c ****   *         VDDA_Analog_Monitoring(Bit5) and SRAM_Parity_Enable(Bit6). 
 688:Drivers/STM32F3xx_HAL_Driver/Src/stm32f3xx_hal_flash_ex.c ****   *         And SDADC12_VDD_MONITOR(Bit7) for STM32F373 or STM32F378 . 
 689:Drivers/STM32F3xx_HAL_Driver/Src/stm32f3xx_hal_flash_ex.c ****   * @retval HAL status
 690:Drivers/STM32F3xx_HAL_Driver/Src/stm32f3xx_hal_flash_ex.c ****   */
 691:Drivers/STM32F3xx_HAL_Driver/Src/stm32f3xx_hal_flash_ex.c **** static HAL_StatusTypeDef FLASH_OB_UserConfig(uint8_t UserConfig)
 692:Drivers/STM32F3xx_HAL_Driver/Src/stm32f3xx_hal_flash_ex.c **** {
 1104              		.loc 1 692 0
 1105              		.cfi_startproc
 1106              		@ args = 0, pretend = 0, frame = 16
 1107              		@ frame_needed = 1, uses_anonymous_args = 0
 1108 0000 80B5     		push	{r7, lr}
 1109              	.LCFI44:
 1110              		.cfi_def_cfa_offset 8
 1111              		.cfi_offset 7, -8
 1112              		.cfi_offset 14, -4
 1113 0002 84B0     		sub	sp, sp, #16
 1114              	.LCFI45:
 1115              		.cfi_def_cfa_offset 24
 1116 0004 00AF     		add	r7, sp, #0
 1117              	.LCFI46:
 1118              		.cfi_def_cfa_register 7
 1119 0006 0346     		mov	r3, r0
 1120 0008 FB71     		strb	r3, [r7, #7]
 693:Drivers/STM32F3xx_HAL_Driver/Src/stm32f3xx_hal_flash_ex.c ****   HAL_StatusTypeDef status = HAL_OK;
 1121              		.loc 1 693 0
 1122 000a 0023     		movs	r3, #0
 1123 000c FB73     		strb	r3, [r7, #15]
 694:Drivers/STM32F3xx_HAL_Driver/Src/stm32f3xx_hal_flash_ex.c **** 
 695:Drivers/STM32F3xx_HAL_Driver/Src/stm32f3xx_hal_flash_ex.c ****   /* Check the parameters */
 696:Drivers/STM32F3xx_HAL_Driver/Src/stm32f3xx_hal_flash_ex.c ****   assert_param(IS_OB_IWDG_SOURCE((UserConfig&OB_IWDG_SW)));
 697:Drivers/STM32F3xx_HAL_Driver/Src/stm32f3xx_hal_flash_ex.c ****   assert_param(IS_OB_STOP_SOURCE((UserConfig&OB_STOP_NO_RST)));
 698:Drivers/STM32F3xx_HAL_Driver/Src/stm32f3xx_hal_flash_ex.c ****   assert_param(IS_OB_STDBY_SOURCE((UserConfig&OB_STDBY_NO_RST)));
 699:Drivers/STM32F3xx_HAL_Driver/Src/stm32f3xx_hal_flash_ex.c ****   assert_param(IS_OB_BOOT1((UserConfig&OB_BOOT1_SET)));
 700:Drivers/STM32F3xx_HAL_Driver/Src/stm32f3xx_hal_flash_ex.c ****   assert_param(IS_OB_VDDA_ANALOG((UserConfig&OB_VDDA_ANALOG_ON)));
 701:Drivers/STM32F3xx_HAL_Driver/Src/stm32f3xx_hal_flash_ex.c ****   assert_param(IS_OB_SRAM_PARITY((UserConfig&OB_SRAM_PARITY_RESET)));
 702:Drivers/STM32F3xx_HAL_Driver/Src/stm32f3xx_hal_flash_ex.c **** #if defined(STM32F373xC) || defined(STM32F378xx)
 703:Drivers/STM32F3xx_HAL_Driver/Src/stm32f3xx_hal_flash_ex.c ****   assert_param(IS_OB_SDACD_VDD_MONITOR((UserConfig&OB_SDACD_VDD_MONITOR_SET)));
 704:Drivers/STM32F3xx_HAL_Driver/Src/stm32f3xx_hal_flash_ex.c **** #endif /* STM32F373xC || STM32F378xx */
 705:Drivers/STM32F3xx_HAL_Driver/Src/stm32f3xx_hal_flash_ex.c **** 
 706:Drivers/STM32F3xx_HAL_Driver/Src/stm32f3xx_hal_flash_ex.c ****   /* Wait for last operation to be completed */
 707:Drivers/STM32F3xx_HAL_Driver/Src/stm32f3xx_hal_flash_ex.c ****   status = FLASH_WaitForLastOperation((uint32_t)HAL_FLASH_TIMEOUT_VALUE);
 1124              		.loc 1 707 0
 1125 000e 4CF25030 		movw	r0, #50000
 1126 0012 FFF7FEFF 		bl	FLASH_WaitForLastOperation
 1127 0016 0346     		mov	r3, r0
 1128 0018 FB73     		strb	r3, [r7, #15]
 708:Drivers/STM32F3xx_HAL_Driver/Src/stm32f3xx_hal_flash_ex.c ****   
 709:Drivers/STM32F3xx_HAL_Driver/Src/stm32f3xx_hal_flash_ex.c ****   /* Clear pending flags (if any) */  
 710:Drivers/STM32F3xx_HAL_Driver/Src/stm32f3xx_hal_flash_ex.c ****   __HAL_FLASH_CLEAR_FLAG(FLASH_FLAG_EOP | FLASH_FLAG_WRPERR | FLASH_FLAG_PGERR); 
 1129              		.loc 1 710 0
 1130 001a 124B     		ldr	r3, .L63
ARM GAS  /tmp/ccAhm58A.s 			page 33


 1131 001c 3422     		movs	r2, #52
 1132 001e DA60     		str	r2, [r3, #12]
 711:Drivers/STM32F3xx_HAL_Driver/Src/stm32f3xx_hal_flash_ex.c ****   
 712:Drivers/STM32F3xx_HAL_Driver/Src/stm32f3xx_hal_flash_ex.c ****   if(status == HAL_OK)
 1133              		.loc 1 712 0
 1134 0020 FB7B     		ldrb	r3, [r7, #15]	@ zero_extendqisi2
 1135 0022 002B     		cmp	r3, #0
 1136 0024 18D1     		bne	.L61
 713:Drivers/STM32F3xx_HAL_Driver/Src/stm32f3xx_hal_flash_ex.c ****   {     
 714:Drivers/STM32F3xx_HAL_Driver/Src/stm32f3xx_hal_flash_ex.c ****     /* Enable the Option Bytes Programming operation */
 715:Drivers/STM32F3xx_HAL_Driver/Src/stm32f3xx_hal_flash_ex.c ****     SET_BIT(FLASH->CR, FLASH_CR_OPTPG); 
 1137              		.loc 1 715 0
 1138 0026 0F4A     		ldr	r2, .L63
 1139 0028 0E4B     		ldr	r3, .L63
 1140 002a 1B69     		ldr	r3, [r3, #16]
 1141 002c 43F01003 		orr	r3, r3, #16
 1142 0030 1361     		str	r3, [r2, #16]
 716:Drivers/STM32F3xx_HAL_Driver/Src/stm32f3xx_hal_flash_ex.c ****            
 717:Drivers/STM32F3xx_HAL_Driver/Src/stm32f3xx_hal_flash_ex.c **** #if defined(STM32F302xE) || defined(STM32F303xE) || defined(STM32F398xx) || \
 718:Drivers/STM32F3xx_HAL_Driver/Src/stm32f3xx_hal_flash_ex.c ****     defined(STM32F302xC) || defined(STM32F303xC) || defined(STM32F358xx) || \
 719:Drivers/STM32F3xx_HAL_Driver/Src/stm32f3xx_hal_flash_ex.c ****     defined(STM32F303x8) || defined(STM32F334x8)                         || \
 720:Drivers/STM32F3xx_HAL_Driver/Src/stm32f3xx_hal_flash_ex.c ****     defined(STM32F301x8) || defined(STM32F302x8) || defined(STM32F318xx)
 721:Drivers/STM32F3xx_HAL_Driver/Src/stm32f3xx_hal_flash_ex.c ****     OB->USER = (UserConfig | 0x88);
 1143              		.loc 1 721 0
 1144 0032 0D4A     		ldr	r2, .L63+4
 1145 0034 FB79     		ldrb	r3, [r7, #7]
 1146 0036 63F07703 		orn	r3, r3, #119
 1147 003a DBB2     		uxtb	r3, r3
 1148 003c 9BB2     		uxth	r3, r3
 1149 003e 5380     		strh	r3, [r2, #2]	@ movhi
 722:Drivers/STM32F3xx_HAL_Driver/Src/stm32f3xx_hal_flash_ex.c **** #endif /* STM32F302xE || STM32F303xE || STM32F398xx || */
 723:Drivers/STM32F3xx_HAL_Driver/Src/stm32f3xx_hal_flash_ex.c ****        /* STM32F302xC || STM32F303xC || STM32F358xx || */
 724:Drivers/STM32F3xx_HAL_Driver/Src/stm32f3xx_hal_flash_ex.c ****        /* STM32F303x8 || STM32F334x8                || */
 725:Drivers/STM32F3xx_HAL_Driver/Src/stm32f3xx_hal_flash_ex.c ****        /* STM32F301x8 || STM32F302x8 || STM32F318xx    */
 726:Drivers/STM32F3xx_HAL_Driver/Src/stm32f3xx_hal_flash_ex.c **** 
 727:Drivers/STM32F3xx_HAL_Driver/Src/stm32f3xx_hal_flash_ex.c **** #if defined(STM32F373xC) || defined(STM32F378xx)
 728:Drivers/STM32F3xx_HAL_Driver/Src/stm32f3xx_hal_flash_ex.c ****     OB->USER = (UserConfig | 0x08);
 729:Drivers/STM32F3xx_HAL_Driver/Src/stm32f3xx_hal_flash_ex.c **** #endif /* STM32F373xC || STM32F378xx */
 730:Drivers/STM32F3xx_HAL_Driver/Src/stm32f3xx_hal_flash_ex.c ****   
 731:Drivers/STM32F3xx_HAL_Driver/Src/stm32f3xx_hal_flash_ex.c ****     /* Wait for last operation to be completed */
 732:Drivers/STM32F3xx_HAL_Driver/Src/stm32f3xx_hal_flash_ex.c ****     status = FLASH_WaitForLastOperation((uint32_t)HAL_FLASH_TIMEOUT_VALUE);
 1150              		.loc 1 732 0
 1151 0040 4CF25030 		movw	r0, #50000
 1152 0044 FFF7FEFF 		bl	FLASH_WaitForLastOperation
 1153 0048 0346     		mov	r3, r0
 1154 004a FB73     		strb	r3, [r7, #15]
 733:Drivers/STM32F3xx_HAL_Driver/Src/stm32f3xx_hal_flash_ex.c **** 
 734:Drivers/STM32F3xx_HAL_Driver/Src/stm32f3xx_hal_flash_ex.c ****     /* if the program operation is completed, disable the OPTPG Bit */
 735:Drivers/STM32F3xx_HAL_Driver/Src/stm32f3xx_hal_flash_ex.c ****     CLEAR_BIT(FLASH->CR, FLASH_CR_OPTPG);
 1155              		.loc 1 735 0
 1156 004c 054A     		ldr	r2, .L63
 1157 004e 054B     		ldr	r3, .L63
 1158 0050 1B69     		ldr	r3, [r3, #16]
 1159 0052 23F01003 		bic	r3, r3, #16
 1160 0056 1361     		str	r3, [r2, #16]
 1161              	.L61:
 736:Drivers/STM32F3xx_HAL_Driver/Src/stm32f3xx_hal_flash_ex.c ****   }
ARM GAS  /tmp/ccAhm58A.s 			page 34


 737:Drivers/STM32F3xx_HAL_Driver/Src/stm32f3xx_hal_flash_ex.c ****   
 738:Drivers/STM32F3xx_HAL_Driver/Src/stm32f3xx_hal_flash_ex.c ****   return status; 
 1162              		.loc 1 738 0
 1163 0058 FB7B     		ldrb	r3, [r7, #15]	@ zero_extendqisi2
 739:Drivers/STM32F3xx_HAL_Driver/Src/stm32f3xx_hal_flash_ex.c **** }
 1164              		.loc 1 739 0
 1165 005a 1846     		mov	r0, r3
 1166 005c 1037     		adds	r7, r7, #16
 1167              	.LCFI47:
 1168              		.cfi_def_cfa_offset 8
 1169 005e BD46     		mov	sp, r7
 1170              	.LCFI48:
 1171              		.cfi_def_cfa_register 13
 1172              		@ sp needed
 1173 0060 80BD     		pop	{r7, pc}
 1174              	.L64:
 1175 0062 00BF     		.align	2
 1176              	.L63:
 1177 0064 00200240 		.word	1073881088
 1178 0068 00F8FF1F 		.word	536868864
 1179              		.cfi_endproc
 1180              	.LFE121:
 1182              		.section	.text.FLASH_OB_ProgramData,"ax",%progbits
 1183              		.align	2
 1184              		.thumb
 1185              		.thumb_func
 1187              	FLASH_OB_ProgramData:
 1188              	.LFB122:
 740:Drivers/STM32F3xx_HAL_Driver/Src/stm32f3xx_hal_flash_ex.c **** 
 741:Drivers/STM32F3xx_HAL_Driver/Src/stm32f3xx_hal_flash_ex.c **** /**
 742:Drivers/STM32F3xx_HAL_Driver/Src/stm32f3xx_hal_flash_ex.c ****   * @brief  Programs a half word at a specified Option Byte Data address.
 743:Drivers/STM32F3xx_HAL_Driver/Src/stm32f3xx_hal_flash_ex.c ****   * @note   The function HAL_FLASH_Unlock() should be called before to unlock the FLASH interface
 744:Drivers/STM32F3xx_HAL_Driver/Src/stm32f3xx_hal_flash_ex.c ****   *         The function HAL_FLASH_OB_Unlock() should be called before to unlock the options bytes
 745:Drivers/STM32F3xx_HAL_Driver/Src/stm32f3xx_hal_flash_ex.c ****   *         The function HAL_FLASH_OB_Launch() should be called after to force the reload of the op
 746:Drivers/STM32F3xx_HAL_Driver/Src/stm32f3xx_hal_flash_ex.c ****   *         (system reset will occur)
 747:Drivers/STM32F3xx_HAL_Driver/Src/stm32f3xx_hal_flash_ex.c ****   *         Programming of the OB should be performed only after an erase (otherwise PGERR occurs)
 748:Drivers/STM32F3xx_HAL_Driver/Src/stm32f3xx_hal_flash_ex.c ****   * @param  Address: specifies the address to be programmed.
 749:Drivers/STM32F3xx_HAL_Driver/Src/stm32f3xx_hal_flash_ex.c ****   *         This parameter can be 0x1FFFF804 or 0x1FFFF806. 
 750:Drivers/STM32F3xx_HAL_Driver/Src/stm32f3xx_hal_flash_ex.c ****   * @param  Data: specifies the data to be programmed.
 751:Drivers/STM32F3xx_HAL_Driver/Src/stm32f3xx_hal_flash_ex.c ****   * @retval HAL status
 752:Drivers/STM32F3xx_HAL_Driver/Src/stm32f3xx_hal_flash_ex.c ****   */
 753:Drivers/STM32F3xx_HAL_Driver/Src/stm32f3xx_hal_flash_ex.c **** static HAL_StatusTypeDef FLASH_OB_ProgramData(uint32_t Address, uint8_t Data)
 754:Drivers/STM32F3xx_HAL_Driver/Src/stm32f3xx_hal_flash_ex.c **** {
 1189              		.loc 1 754 0
 1190              		.cfi_startproc
 1191              		@ args = 0, pretend = 0, frame = 16
 1192              		@ frame_needed = 1, uses_anonymous_args = 0
 1193 0000 80B5     		push	{r7, lr}
 1194              	.LCFI49:
 1195              		.cfi_def_cfa_offset 8
 1196              		.cfi_offset 7, -8
 1197              		.cfi_offset 14, -4
 1198 0002 84B0     		sub	sp, sp, #16
 1199              	.LCFI50:
 1200              		.cfi_def_cfa_offset 24
 1201 0004 00AF     		add	r7, sp, #0
 1202              	.LCFI51:
ARM GAS  /tmp/ccAhm58A.s 			page 35


 1203              		.cfi_def_cfa_register 7
 1204 0006 7860     		str	r0, [r7, #4]
 1205 0008 0B46     		mov	r3, r1
 1206 000a FB70     		strb	r3, [r7, #3]
 755:Drivers/STM32F3xx_HAL_Driver/Src/stm32f3xx_hal_flash_ex.c ****   HAL_StatusTypeDef status = HAL_ERROR;
 1207              		.loc 1 755 0
 1208 000c 0123     		movs	r3, #1
 1209 000e FB73     		strb	r3, [r7, #15]
 756:Drivers/STM32F3xx_HAL_Driver/Src/stm32f3xx_hal_flash_ex.c **** 
 757:Drivers/STM32F3xx_HAL_Driver/Src/stm32f3xx_hal_flash_ex.c ****   /* Check the parameters */
 758:Drivers/STM32F3xx_HAL_Driver/Src/stm32f3xx_hal_flash_ex.c ****   assert_param(IS_OB_DATA_ADDRESS(Address));
 759:Drivers/STM32F3xx_HAL_Driver/Src/stm32f3xx_hal_flash_ex.c **** 
 760:Drivers/STM32F3xx_HAL_Driver/Src/stm32f3xx_hal_flash_ex.c ****   /* Wait for last operation to be completed */
 761:Drivers/STM32F3xx_HAL_Driver/Src/stm32f3xx_hal_flash_ex.c ****   status = FLASH_WaitForLastOperation((uint32_t)HAL_FLASH_TIMEOUT_VALUE);
 1210              		.loc 1 761 0
 1211 0010 4CF25030 		movw	r0, #50000
 1212 0014 FFF7FEFF 		bl	FLASH_WaitForLastOperation
 1213 0018 0346     		mov	r3, r0
 1214 001a FB73     		strb	r3, [r7, #15]
 762:Drivers/STM32F3xx_HAL_Driver/Src/stm32f3xx_hal_flash_ex.c **** 
 763:Drivers/STM32F3xx_HAL_Driver/Src/stm32f3xx_hal_flash_ex.c ****   /* Clear pending flags (if any) */  
 764:Drivers/STM32F3xx_HAL_Driver/Src/stm32f3xx_hal_flash_ex.c ****   __HAL_FLASH_CLEAR_FLAG(FLASH_FLAG_EOP | FLASH_FLAG_WRPERR | FLASH_FLAG_PGERR); 
 1215              		.loc 1 764 0
 1216 001c 104B     		ldr	r3, .L68
 1217 001e 3422     		movs	r2, #52
 1218 0020 DA60     		str	r2, [r3, #12]
 765:Drivers/STM32F3xx_HAL_Driver/Src/stm32f3xx_hal_flash_ex.c **** 
 766:Drivers/STM32F3xx_HAL_Driver/Src/stm32f3xx_hal_flash_ex.c ****   if(status == HAL_OK)
 1219              		.loc 1 766 0
 1220 0022 FB7B     		ldrb	r3, [r7, #15]	@ zero_extendqisi2
 1221 0024 002B     		cmp	r3, #0
 1222 0026 15D1     		bne	.L66
 767:Drivers/STM32F3xx_HAL_Driver/Src/stm32f3xx_hal_flash_ex.c ****   {
 768:Drivers/STM32F3xx_HAL_Driver/Src/stm32f3xx_hal_flash_ex.c ****     /* Enables the Option Bytes Programming operation */
 769:Drivers/STM32F3xx_HAL_Driver/Src/stm32f3xx_hal_flash_ex.c ****     SET_BIT(FLASH->CR, FLASH_CR_OPTPG); 
 1223              		.loc 1 769 0
 1224 0028 0D4A     		ldr	r2, .L68
 1225 002a 0D4B     		ldr	r3, .L68
 1226 002c 1B69     		ldr	r3, [r3, #16]
 1227 002e 43F01003 		orr	r3, r3, #16
 1228 0032 1361     		str	r3, [r2, #16]
 770:Drivers/STM32F3xx_HAL_Driver/Src/stm32f3xx_hal_flash_ex.c ****     *(__IO uint16_t*)Address = Data;
 1229              		.loc 1 770 0
 1230 0034 7B68     		ldr	r3, [r7, #4]
 1231 0036 FA78     		ldrb	r2, [r7, #3]	@ zero_extendqisi2
 1232 0038 92B2     		uxth	r2, r2
 1233 003a 1A80     		strh	r2, [r3]	@ movhi
 771:Drivers/STM32F3xx_HAL_Driver/Src/stm32f3xx_hal_flash_ex.c ****     
 772:Drivers/STM32F3xx_HAL_Driver/Src/stm32f3xx_hal_flash_ex.c ****     /* Wait for last operation to be completed */
 773:Drivers/STM32F3xx_HAL_Driver/Src/stm32f3xx_hal_flash_ex.c ****     status = FLASH_WaitForLastOperation((uint32_t)HAL_FLASH_TIMEOUT_VALUE);
 1234              		.loc 1 773 0
 1235 003c 4CF25030 		movw	r0, #50000
 1236 0040 FFF7FEFF 		bl	FLASH_WaitForLastOperation
 1237 0044 0346     		mov	r3, r0
 1238 0046 FB73     		strb	r3, [r7, #15]
 774:Drivers/STM32F3xx_HAL_Driver/Src/stm32f3xx_hal_flash_ex.c ****     
 775:Drivers/STM32F3xx_HAL_Driver/Src/stm32f3xx_hal_flash_ex.c ****       /* If the program operation is completed, disable the OPTPG Bit */
ARM GAS  /tmp/ccAhm58A.s 			page 36


 776:Drivers/STM32F3xx_HAL_Driver/Src/stm32f3xx_hal_flash_ex.c ****       CLEAR_BIT(FLASH->CR, FLASH_CR_OPTPG);
 1239              		.loc 1 776 0
 1240 0048 054A     		ldr	r2, .L68
 1241 004a 054B     		ldr	r3, .L68
 1242 004c 1B69     		ldr	r3, [r3, #16]
 1243 004e 23F01003 		bic	r3, r3, #16
 1244 0052 1361     		str	r3, [r2, #16]
 1245              	.L66:
 777:Drivers/STM32F3xx_HAL_Driver/Src/stm32f3xx_hal_flash_ex.c ****     }
 778:Drivers/STM32F3xx_HAL_Driver/Src/stm32f3xx_hal_flash_ex.c ****   /* Return the Option Byte Data Program Status */
 779:Drivers/STM32F3xx_HAL_Driver/Src/stm32f3xx_hal_flash_ex.c ****   return status;
 1246              		.loc 1 779 0
 1247 0054 FB7B     		ldrb	r3, [r7, #15]	@ zero_extendqisi2
 780:Drivers/STM32F3xx_HAL_Driver/Src/stm32f3xx_hal_flash_ex.c **** }
 1248              		.loc 1 780 0
 1249 0056 1846     		mov	r0, r3
 1250 0058 1037     		adds	r7, r7, #16
 1251              	.LCFI52:
 1252              		.cfi_def_cfa_offset 8
 1253 005a BD46     		mov	sp, r7
 1254              	.LCFI53:
 1255              		.cfi_def_cfa_register 13
 1256              		@ sp needed
 1257 005c 80BD     		pop	{r7, pc}
 1258              	.L69:
 1259 005e 00BF     		.align	2
 1260              	.L68:
 1261 0060 00200240 		.word	1073881088
 1262              		.cfi_endproc
 1263              	.LFE122:
 1265              		.section	.text.FLASH_OB_GetWRP,"ax",%progbits
 1266              		.align	2
 1267              		.thumb
 1268              		.thumb_func
 1270              	FLASH_OB_GetWRP:
 1271              	.LFB123:
 781:Drivers/STM32F3xx_HAL_Driver/Src/stm32f3xx_hal_flash_ex.c **** 
 782:Drivers/STM32F3xx_HAL_Driver/Src/stm32f3xx_hal_flash_ex.c **** /**
 783:Drivers/STM32F3xx_HAL_Driver/Src/stm32f3xx_hal_flash_ex.c ****   * @brief  Return the FLASH Write Protection Option Bytes value.
 784:Drivers/STM32F3xx_HAL_Driver/Src/stm32f3xx_hal_flash_ex.c ****   * @retval The FLASH Write Protection Option Bytes value
 785:Drivers/STM32F3xx_HAL_Driver/Src/stm32f3xx_hal_flash_ex.c ****   */
 786:Drivers/STM32F3xx_HAL_Driver/Src/stm32f3xx_hal_flash_ex.c **** static uint32_t FLASH_OB_GetWRP(void)
 787:Drivers/STM32F3xx_HAL_Driver/Src/stm32f3xx_hal_flash_ex.c **** {
 1272              		.loc 1 787 0
 1273              		.cfi_startproc
 1274              		@ args = 0, pretend = 0, frame = 0
 1275              		@ frame_needed = 1, uses_anonymous_args = 0
 1276              		@ link register save eliminated.
 1277 0000 80B4     		push	{r7}
 1278              	.LCFI54:
 1279              		.cfi_def_cfa_offset 4
 1280              		.cfi_offset 7, -4
 1281 0002 00AF     		add	r7, sp, #0
 1282              	.LCFI55:
 1283              		.cfi_def_cfa_register 7
 788:Drivers/STM32F3xx_HAL_Driver/Src/stm32f3xx_hal_flash_ex.c ****   /* Return the FLASH write protection Register value */
 789:Drivers/STM32F3xx_HAL_Driver/Src/stm32f3xx_hal_flash_ex.c ****   return (uint32_t)(READ_REG(FLASH->WRPR));
ARM GAS  /tmp/ccAhm58A.s 			page 37


 1284              		.loc 1 789 0
 1285 0004 034B     		ldr	r3, .L72
 1286 0006 1B6A     		ldr	r3, [r3, #32]
 790:Drivers/STM32F3xx_HAL_Driver/Src/stm32f3xx_hal_flash_ex.c **** }
 1287              		.loc 1 790 0
 1288 0008 1846     		mov	r0, r3
 1289 000a BD46     		mov	sp, r7
 1290              	.LCFI56:
 1291              		.cfi_def_cfa_register 13
 1292              		@ sp needed
 1293 000c 5DF8047B 		ldr	r7, [sp], #4
 1294              	.LCFI57:
 1295              		.cfi_restore 7
 1296              		.cfi_def_cfa_offset 0
 1297 0010 7047     		bx	lr
 1298              	.L73:
 1299 0012 00BF     		.align	2
 1300              	.L72:
 1301 0014 00200240 		.word	1073881088
 1302              		.cfi_endproc
 1303              	.LFE123:
 1305              		.section	.text.FLASH_OB_GetRDP,"ax",%progbits
 1306              		.align	2
 1307              		.thumb
 1308              		.thumb_func
 1310              	FLASH_OB_GetRDP:
 1311              	.LFB124:
 791:Drivers/STM32F3xx_HAL_Driver/Src/stm32f3xx_hal_flash_ex.c **** 
 792:Drivers/STM32F3xx_HAL_Driver/Src/stm32f3xx_hal_flash_ex.c **** /**
 793:Drivers/STM32F3xx_HAL_Driver/Src/stm32f3xx_hal_flash_ex.c ****   * @brief  Returns the FLASH Read Protection level.
 794:Drivers/STM32F3xx_HAL_Driver/Src/stm32f3xx_hal_flash_ex.c ****   * @retval FLASH ReadOut Protection Status:
 795:Drivers/STM32F3xx_HAL_Driver/Src/stm32f3xx_hal_flash_ex.c ****   *           - SET, when OB_RDP_Level_1 or OB_RDP_Level_2 is set
 796:Drivers/STM32F3xx_HAL_Driver/Src/stm32f3xx_hal_flash_ex.c ****   *           - RESET, when OB_RDP_Level_0 is set
 797:Drivers/STM32F3xx_HAL_Driver/Src/stm32f3xx_hal_flash_ex.c ****   */
 798:Drivers/STM32F3xx_HAL_Driver/Src/stm32f3xx_hal_flash_ex.c **** static FlagStatus FLASH_OB_GetRDP(void)
 799:Drivers/STM32F3xx_HAL_Driver/Src/stm32f3xx_hal_flash_ex.c **** {
 1312              		.loc 1 799 0
 1313              		.cfi_startproc
 1314              		@ args = 0, pretend = 0, frame = 8
 1315              		@ frame_needed = 1, uses_anonymous_args = 0
 1316              		@ link register save eliminated.
 1317 0000 80B4     		push	{r7}
 1318              	.LCFI58:
 1319              		.cfi_def_cfa_offset 4
 1320              		.cfi_offset 7, -4
 1321 0002 83B0     		sub	sp, sp, #12
 1322              	.LCFI59:
 1323              		.cfi_def_cfa_offset 16
 1324 0004 00AF     		add	r7, sp, #0
 1325              	.LCFI60:
 1326              		.cfi_def_cfa_register 7
 800:Drivers/STM32F3xx_HAL_Driver/Src/stm32f3xx_hal_flash_ex.c ****   FlagStatus readstatus = RESET;
 1327              		.loc 1 800 0
 1328 0006 0023     		movs	r3, #0
 1329 0008 FB71     		strb	r3, [r7, #7]
 801:Drivers/STM32F3xx_HAL_Driver/Src/stm32f3xx_hal_flash_ex.c **** 
 802:Drivers/STM32F3xx_HAL_Driver/Src/stm32f3xx_hal_flash_ex.c **** #if defined(STM32F302xE) || defined(STM32F303xE) || defined(STM32F398xx) || \
ARM GAS  /tmp/ccAhm58A.s 			page 38


 803:Drivers/STM32F3xx_HAL_Driver/Src/stm32f3xx_hal_flash_ex.c ****     defined(STM32F302xC) || defined(STM32F303xC) || defined(STM32F358xx) || \
 804:Drivers/STM32F3xx_HAL_Driver/Src/stm32f3xx_hal_flash_ex.c ****     defined(STM32F303x8) || defined(STM32F334x8) || defined(STM32F328xx) || \
 805:Drivers/STM32F3xx_HAL_Driver/Src/stm32f3xx_hal_flash_ex.c ****     defined(STM32F301x8) || defined(STM32F302x8) || defined(STM32F318xx)
 806:Drivers/STM32F3xx_HAL_Driver/Src/stm32f3xx_hal_flash_ex.c ****   if ((uint8_t)READ_BIT(FLASH->OBR, FLASH_OBR_RDPRT) != RESET)
 1330              		.loc 1 806 0
 1331 000a 094B     		ldr	r3, .L78
 1332 000c DB69     		ldr	r3, [r3, #28]
 1333 000e 03F00603 		and	r3, r3, #6
 1334 0012 002B     		cmp	r3, #0
 1335 0014 02D0     		beq	.L75
 807:Drivers/STM32F3xx_HAL_Driver/Src/stm32f3xx_hal_flash_ex.c **** #endif /* STM32F302xE || STM32F303xE || STM32F398xx || */
 808:Drivers/STM32F3xx_HAL_Driver/Src/stm32f3xx_hal_flash_ex.c ****        /* STM32F302xC || STM32F303xC || STM32F358xx || */
 809:Drivers/STM32F3xx_HAL_Driver/Src/stm32f3xx_hal_flash_ex.c ****        /* STM32F303x8 || STM32F334x8 || STM32F328xx || */
 810:Drivers/STM32F3xx_HAL_Driver/Src/stm32f3xx_hal_flash_ex.c ****        /* STM32F301x8 || STM32F302x8 || STM32F318xx    */
 811:Drivers/STM32F3xx_HAL_Driver/Src/stm32f3xx_hal_flash_ex.c ****     
 812:Drivers/STM32F3xx_HAL_Driver/Src/stm32f3xx_hal_flash_ex.c **** #if defined(STM32F373xC) || defined(STM32F378xx)
 813:Drivers/STM32F3xx_HAL_Driver/Src/stm32f3xx_hal_flash_ex.c ****   if ((uint8_t)READ_BIT(FLASH->OBR, (FLASH_OBR_LEVEL1_PROT | FLASH_OBR_LEVEL2_PROT)) != RESET)
 814:Drivers/STM32F3xx_HAL_Driver/Src/stm32f3xx_hal_flash_ex.c **** #endif /* STM32F373xC || STM32F378xx */
 815:Drivers/STM32F3xx_HAL_Driver/Src/stm32f3xx_hal_flash_ex.c ****   {
 816:Drivers/STM32F3xx_HAL_Driver/Src/stm32f3xx_hal_flash_ex.c ****     readstatus = SET;
 1336              		.loc 1 816 0
 1337 0016 0123     		movs	r3, #1
 1338 0018 FB71     		strb	r3, [r7, #7]
 1339 001a 01E0     		b	.L76
 1340              	.L75:
 817:Drivers/STM32F3xx_HAL_Driver/Src/stm32f3xx_hal_flash_ex.c ****   }
 818:Drivers/STM32F3xx_HAL_Driver/Src/stm32f3xx_hal_flash_ex.c ****   else
 819:Drivers/STM32F3xx_HAL_Driver/Src/stm32f3xx_hal_flash_ex.c ****   {
 820:Drivers/STM32F3xx_HAL_Driver/Src/stm32f3xx_hal_flash_ex.c ****     readstatus = RESET;
 1341              		.loc 1 820 0
 1342 001c 0023     		movs	r3, #0
 1343 001e FB71     		strb	r3, [r7, #7]
 1344              	.L76:
 821:Drivers/STM32F3xx_HAL_Driver/Src/stm32f3xx_hal_flash_ex.c ****   }
 822:Drivers/STM32F3xx_HAL_Driver/Src/stm32f3xx_hal_flash_ex.c ****   return readstatus;
 1345              		.loc 1 822 0
 1346 0020 FB79     		ldrb	r3, [r7, #7]	@ zero_extendqisi2
 823:Drivers/STM32F3xx_HAL_Driver/Src/stm32f3xx_hal_flash_ex.c **** }
 1347              		.loc 1 823 0
 1348 0022 1846     		mov	r0, r3
 1349 0024 0C37     		adds	r7, r7, #12
 1350              	.LCFI61:
 1351              		.cfi_def_cfa_offset 4
 1352 0026 BD46     		mov	sp, r7
 1353              	.LCFI62:
 1354              		.cfi_def_cfa_register 13
 1355              		@ sp needed
 1356 0028 5DF8047B 		ldr	r7, [sp], #4
 1357              	.LCFI63:
 1358              		.cfi_restore 7
 1359              		.cfi_def_cfa_offset 0
 1360 002c 7047     		bx	lr
 1361              	.L79:
 1362 002e 00BF     		.align	2
 1363              	.L78:
 1364 0030 00200240 		.word	1073881088
 1365              		.cfi_endproc
ARM GAS  /tmp/ccAhm58A.s 			page 39


 1366              	.LFE124:
 1368              		.section	.text.FLASH_OB_GetUser,"ax",%progbits
 1369              		.align	2
 1370              		.thumb
 1371              		.thumb_func
 1373              	FLASH_OB_GetUser:
 1374              	.LFB125:
 824:Drivers/STM32F3xx_HAL_Driver/Src/stm32f3xx_hal_flash_ex.c **** 
 825:Drivers/STM32F3xx_HAL_Driver/Src/stm32f3xx_hal_flash_ex.c **** /**
 826:Drivers/STM32F3xx_HAL_Driver/Src/stm32f3xx_hal_flash_ex.c ****   * @brief  Return the FLASH User Option Byte value.
 827:Drivers/STM32F3xx_HAL_Driver/Src/stm32f3xx_hal_flash_ex.c ****   * @retval The FLASH User Option Bytes values: IWDG_SW(Bit0), RST_STOP(Bit1), RST_STDBY(Bit2), BOO
 828:Drivers/STM32F3xx_HAL_Driver/Src/stm32f3xx_hal_flash_ex.c ****   *         VDDA_Analog_Monitoring(Bit5) and SRAM_Parity_Enable(Bit6).
 829:Drivers/STM32F3xx_HAL_Driver/Src/stm32f3xx_hal_flash_ex.c ****   *         And SDADC12_VDD_MONITOR(Bit7) for STM32F373 or STM32F378 . 
 830:Drivers/STM32F3xx_HAL_Driver/Src/stm32f3xx_hal_flash_ex.c ****   */
 831:Drivers/STM32F3xx_HAL_Driver/Src/stm32f3xx_hal_flash_ex.c **** static uint8_t FLASH_OB_GetUser(void)
 832:Drivers/STM32F3xx_HAL_Driver/Src/stm32f3xx_hal_flash_ex.c **** {
 1375              		.loc 1 832 0
 1376              		.cfi_startproc
 1377              		@ args = 0, pretend = 0, frame = 0
 1378              		@ frame_needed = 1, uses_anonymous_args = 0
 1379              		@ link register save eliminated.
 1380 0000 80B4     		push	{r7}
 1381              	.LCFI64:
 1382              		.cfi_def_cfa_offset 4
 1383              		.cfi_offset 7, -4
 1384 0002 00AF     		add	r7, sp, #0
 1385              	.LCFI65:
 1386              		.cfi_def_cfa_register 7
 833:Drivers/STM32F3xx_HAL_Driver/Src/stm32f3xx_hal_flash_ex.c ****   /* Return the User Option Byte */
 834:Drivers/STM32F3xx_HAL_Driver/Src/stm32f3xx_hal_flash_ex.c ****   return (uint8_t)(READ_REG(FLASH->OBR) >> 8);
 1387              		.loc 1 834 0
 1388 0004 044B     		ldr	r3, .L82
 1389 0006 DB69     		ldr	r3, [r3, #28]
 1390 0008 1B0A     		lsrs	r3, r3, #8
 1391 000a DBB2     		uxtb	r3, r3
 835:Drivers/STM32F3xx_HAL_Driver/Src/stm32f3xx_hal_flash_ex.c **** }
 1392              		.loc 1 835 0
 1393 000c 1846     		mov	r0, r3
 1394 000e BD46     		mov	sp, r7
 1395              	.LCFI66:
 1396              		.cfi_def_cfa_register 13
 1397              		@ sp needed
 1398 0010 5DF8047B 		ldr	r7, [sp], #4
 1399              	.LCFI67:
 1400              		.cfi_restore 7
 1401              		.cfi_def_cfa_offset 0
 1402 0014 7047     		bx	lr
 1403              	.L83:
 1404 0016 00BF     		.align	2
 1405              	.L82:
 1406 0018 00200240 		.word	1073881088
 1407              		.cfi_endproc
 1408              	.LFE125:
 1410              		.text
 1411              	.Letext0:
 1412              		.file 2 "/usr/arm-none-eabi/include/machine/_default_types.h"
 1413              		.file 3 "/usr/arm-none-eabi/include/sys/_stdint.h"
ARM GAS  /tmp/ccAhm58A.s 			page 40


 1414              		.file 4 "Drivers/CMSIS/Device/ST/STM32F3xx/Include/stm32f303xc.h"
 1415              		.file 5 "Drivers/CMSIS/Device/ST/STM32F3xx/Include/stm32f3xx.h"
 1416              		.file 6 "Drivers/STM32F3xx_HAL_Driver/Inc/stm32f3xx_hal_def.h"
 1417              		.file 7 "Drivers/STM32F3xx_HAL_Driver/Inc/stm32f3xx_hal_flash.h"
 1418              		.file 8 "Drivers/CMSIS/Include/core_cm4.h"
ARM GAS  /tmp/ccAhm58A.s 			page 41

