ARM GAS  /tmp/cc4ZCISd.s 			page 1


   1              		.syntax unified
   2              		.cpu cortex-m4
   3              		.eabi_attribute 27, 1
   4              		.fpu fpv4-sp-d16
   5              		.eabi_attribute 20, 1
   6              		.eabi_attribute 21, 1
   7              		.eabi_attribute 23, 3
   8              		.eabi_attribute 24, 1
   9              		.eabi_attribute 25, 1
  10              		.eabi_attribute 26, 1
  11              		.eabi_attribute 30, 6
  12              		.eabi_attribute 34, 1
  13              		.eabi_attribute 18, 4
  14              		.thumb
  15              		.syntax unified
  16              		.file	"stm32f3xx_hal_rcc_ex.c"
  17              		.text
  18              	.Ltext0:
  19              		.cfi_sections	.debug_frame
  20              		.global	PLLMULFactorTable
  21              		.section	.rodata.PLLMULFactorTable,"a",%progbits
  22              		.align	2
  25              	PLLMULFactorTable:
  26 0000 02       		.byte	2
  27 0001 03       		.byte	3
  28 0002 04       		.byte	4
  29 0003 05       		.byte	5
  30 0004 06       		.byte	6
  31 0005 07       		.byte	7
  32 0006 08       		.byte	8
  33 0007 09       		.byte	9
  34 0008 0A       		.byte	10
  35 0009 0B       		.byte	11
  36 000a 0C       		.byte	12
  37 000b 0D       		.byte	13
  38 000c 0E       		.byte	14
  39 000d 0F       		.byte	15
  40 000e 10       		.byte	16
  41 000f 10       		.byte	16
  42              		.global	PredivFactorTable
  43              		.section	.rodata.PredivFactorTable,"a",%progbits
  44              		.align	2
  47              	PredivFactorTable:
  48 0000 01       		.byte	1
  49 0001 02       		.byte	2
  50 0002 03       		.byte	3
  51 0003 04       		.byte	4
  52 0004 05       		.byte	5
  53 0005 06       		.byte	6
  54 0006 07       		.byte	7
  55 0007 08       		.byte	8
  56 0008 09       		.byte	9
  57 0009 0A       		.byte	10
  58 000a 0B       		.byte	11
  59 000b 0C       		.byte	12
  60 000c 0D       		.byte	13
  61 000d 0E       		.byte	14
ARM GAS  /tmp/cc4ZCISd.s 			page 2


  62 000e 0F       		.byte	15
  63 000f 10       		.byte	16
  64              		.section	.text.HAL_RCCEx_PeriphCLKConfig,"ax",%progbits
  65              		.align	2
  66              		.global	HAL_RCCEx_PeriphCLKConfig
  67              		.thumb
  68              		.thumb_func
  70              	HAL_RCCEx_PeriphCLKConfig:
  71              	.LFB112:
  72              		.file 1 "Drivers/STM32F3xx_HAL_Driver/Src/stm32f3xx_hal_rcc_ex.c"
   1:Drivers/STM32F3xx_HAL_Driver/Src/stm32f3xx_hal_rcc_ex.c **** /**
   2:Drivers/STM32F3xx_HAL_Driver/Src/stm32f3xx_hal_rcc_ex.c ****   ******************************************************************************
   3:Drivers/STM32F3xx_HAL_Driver/Src/stm32f3xx_hal_rcc_ex.c ****   * @file    stm32f3xx_hal_rcc_ex.c
   4:Drivers/STM32F3xx_HAL_Driver/Src/stm32f3xx_hal_rcc_ex.c ****   * @author  MCD Application Team
   5:Drivers/STM32F3xx_HAL_Driver/Src/stm32f3xx_hal_rcc_ex.c ****   * @version V1.1.0
   6:Drivers/STM32F3xx_HAL_Driver/Src/stm32f3xx_hal_rcc_ex.c ****   * @date    12-Sept-2014
   7:Drivers/STM32F3xx_HAL_Driver/Src/stm32f3xx_hal_rcc_ex.c ****   * @brief   Extended RCC HAL module driver
   8:Drivers/STM32F3xx_HAL_Driver/Src/stm32f3xx_hal_rcc_ex.c ****   *          This file provides firmware functions to manage the following 
   9:Drivers/STM32F3xx_HAL_Driver/Src/stm32f3xx_hal_rcc_ex.c ****   *          functionalities RCC Extended peripheral:
  10:Drivers/STM32F3xx_HAL_Driver/Src/stm32f3xx_hal_rcc_ex.c ****   *           + Extended Clock Source configuration functions
  11:Drivers/STM32F3xx_HAL_Driver/Src/stm32f3xx_hal_rcc_ex.c ****   *  
  12:Drivers/STM32F3xx_HAL_Driver/Src/stm32f3xx_hal_rcc_ex.c ****   ******************************************************************************
  13:Drivers/STM32F3xx_HAL_Driver/Src/stm32f3xx_hal_rcc_ex.c ****   * @attention
  14:Drivers/STM32F3xx_HAL_Driver/Src/stm32f3xx_hal_rcc_ex.c ****   *
  15:Drivers/STM32F3xx_HAL_Driver/Src/stm32f3xx_hal_rcc_ex.c ****   * <h2><center>&copy; COPYRIGHT(c) 2014 STMicroelectronics</center></h2>
  16:Drivers/STM32F3xx_HAL_Driver/Src/stm32f3xx_hal_rcc_ex.c ****   *
  17:Drivers/STM32F3xx_HAL_Driver/Src/stm32f3xx_hal_rcc_ex.c ****   * Redistribution and use in source and binary forms, with or without modification,
  18:Drivers/STM32F3xx_HAL_Driver/Src/stm32f3xx_hal_rcc_ex.c ****   * are permitted provided that the following conditions are met:
  19:Drivers/STM32F3xx_HAL_Driver/Src/stm32f3xx_hal_rcc_ex.c ****   *   1. Redistributions of source code must retain the above copyright notice,
  20:Drivers/STM32F3xx_HAL_Driver/Src/stm32f3xx_hal_rcc_ex.c ****   *      this list of conditions and the following disclaimer.
  21:Drivers/STM32F3xx_HAL_Driver/Src/stm32f3xx_hal_rcc_ex.c ****   *   2. Redistributions in binary form must reproduce the above copyright notice,
  22:Drivers/STM32F3xx_HAL_Driver/Src/stm32f3xx_hal_rcc_ex.c ****   *      this list of conditions and the following disclaimer in the documentation
  23:Drivers/STM32F3xx_HAL_Driver/Src/stm32f3xx_hal_rcc_ex.c ****   *      and/or other materials provided with the distribution.
  24:Drivers/STM32F3xx_HAL_Driver/Src/stm32f3xx_hal_rcc_ex.c ****   *   3. Neither the name of STMicroelectronics nor the names of its contributors
  25:Drivers/STM32F3xx_HAL_Driver/Src/stm32f3xx_hal_rcc_ex.c ****   *      may be used to endorse or promote products derived from this software
  26:Drivers/STM32F3xx_HAL_Driver/Src/stm32f3xx_hal_rcc_ex.c ****   *      without specific prior written permission.
  27:Drivers/STM32F3xx_HAL_Driver/Src/stm32f3xx_hal_rcc_ex.c ****   *
  28:Drivers/STM32F3xx_HAL_Driver/Src/stm32f3xx_hal_rcc_ex.c ****   * THIS SOFTWARE IS PROVIDED BY THE COPYRIGHT HOLDERS AND CONTRIBUTORS "AS IS"
  29:Drivers/STM32F3xx_HAL_Driver/Src/stm32f3xx_hal_rcc_ex.c ****   * AND ANY EXPRESS OR IMPLIED WARRANTIES, INCLUDING, BUT NOT LIMITED TO, THE
  30:Drivers/STM32F3xx_HAL_Driver/Src/stm32f3xx_hal_rcc_ex.c ****   * IMPLIED WARRANTIES OF MERCHANTABILITY AND FITNESS FOR A PARTICULAR PURPOSE ARE
  31:Drivers/STM32F3xx_HAL_Driver/Src/stm32f3xx_hal_rcc_ex.c ****   * DISCLAIMED. IN NO EVENT SHALL THE COPYRIGHT HOLDER OR CONTRIBUTORS BE LIABLE
  32:Drivers/STM32F3xx_HAL_Driver/Src/stm32f3xx_hal_rcc_ex.c ****   * FOR ANY DIRECT, INDIRECT, INCIDENTAL, SPECIAL, EXEMPLARY, OR CONSEQUENTIAL
  33:Drivers/STM32F3xx_HAL_Driver/Src/stm32f3xx_hal_rcc_ex.c ****   * DAMAGES (INCLUDING, BUT NOT LIMITED TO, PROCUREMENT OF SUBSTITUTE GOODS OR
  34:Drivers/STM32F3xx_HAL_Driver/Src/stm32f3xx_hal_rcc_ex.c ****   * SERVICES; LOSS OF USE, DATA, OR PROFITS; OR BUSINESS INTERRUPTION) HOWEVER
  35:Drivers/STM32F3xx_HAL_Driver/Src/stm32f3xx_hal_rcc_ex.c ****   * CAUSED AND ON ANY THEORY OF LIABILITY, WHETHER IN CONTRACT, STRICT LIABILITY,
  36:Drivers/STM32F3xx_HAL_Driver/Src/stm32f3xx_hal_rcc_ex.c ****   * OR TORT (INCLUDING NEGLIGENCE OR OTHERWISE) ARISING IN ANY WAY OUT OF THE USE
  37:Drivers/STM32F3xx_HAL_Driver/Src/stm32f3xx_hal_rcc_ex.c ****   * OF THIS SOFTWARE, EVEN IF ADVISED OF THE POSSIBILITY OF SUCH DAMAGE.
  38:Drivers/STM32F3xx_HAL_Driver/Src/stm32f3xx_hal_rcc_ex.c ****   *
  39:Drivers/STM32F3xx_HAL_Driver/Src/stm32f3xx_hal_rcc_ex.c ****   ******************************************************************************
  40:Drivers/STM32F3xx_HAL_Driver/Src/stm32f3xx_hal_rcc_ex.c ****   */ 
  41:Drivers/STM32F3xx_HAL_Driver/Src/stm32f3xx_hal_rcc_ex.c **** 
  42:Drivers/STM32F3xx_HAL_Driver/Src/stm32f3xx_hal_rcc_ex.c **** /* Includes ------------------------------------------------------------------*/
  43:Drivers/STM32F3xx_HAL_Driver/Src/stm32f3xx_hal_rcc_ex.c **** #include "stm32f3xx_hal.h"
  44:Drivers/STM32F3xx_HAL_Driver/Src/stm32f3xx_hal_rcc_ex.c **** 
  45:Drivers/STM32F3xx_HAL_Driver/Src/stm32f3xx_hal_rcc_ex.c **** /** @addtogroup STM32F3xx_HAL_Driver
  46:Drivers/STM32F3xx_HAL_Driver/Src/stm32f3xx_hal_rcc_ex.c ****   * @{
  47:Drivers/STM32F3xx_HAL_Driver/Src/stm32f3xx_hal_rcc_ex.c ****   */
ARM GAS  /tmp/cc4ZCISd.s 			page 3


  48:Drivers/STM32F3xx_HAL_Driver/Src/stm32f3xx_hal_rcc_ex.c **** 
  49:Drivers/STM32F3xx_HAL_Driver/Src/stm32f3xx_hal_rcc_ex.c **** /** @defgroup RCCEx RCC Extended HAL module driver
  50:Drivers/STM32F3xx_HAL_Driver/Src/stm32f3xx_hal_rcc_ex.c ****   * @brief RCC Extended HAL module driver.
  51:Drivers/STM32F3xx_HAL_Driver/Src/stm32f3xx_hal_rcc_ex.c ****   * @{
  52:Drivers/STM32F3xx_HAL_Driver/Src/stm32f3xx_hal_rcc_ex.c ****   */
  53:Drivers/STM32F3xx_HAL_Driver/Src/stm32f3xx_hal_rcc_ex.c **** 
  54:Drivers/STM32F3xx_HAL_Driver/Src/stm32f3xx_hal_rcc_ex.c **** #ifdef HAL_RCC_MODULE_ENABLED
  55:Drivers/STM32F3xx_HAL_Driver/Src/stm32f3xx_hal_rcc_ex.c **** 
  56:Drivers/STM32F3xx_HAL_Driver/Src/stm32f3xx_hal_rcc_ex.c **** /* Private typedef -----------------------------------------------------------*/
  57:Drivers/STM32F3xx_HAL_Driver/Src/stm32f3xx_hal_rcc_ex.c **** /* Private define ------------------------------------------------------------*/
  58:Drivers/STM32F3xx_HAL_Driver/Src/stm32f3xx_hal_rcc_ex.c **** /** @defgroup RCCEx_Private_Define RCC Extended Private Define
  59:Drivers/STM32F3xx_HAL_Driver/Src/stm32f3xx_hal_rcc_ex.c ****   * @{
  60:Drivers/STM32F3xx_HAL_Driver/Src/stm32f3xx_hal_rcc_ex.c ****   */
  61:Drivers/STM32F3xx_HAL_Driver/Src/stm32f3xx_hal_rcc_ex.c **** #define HSE_TIMEOUT_VALUE          HSE_STARTUP_TIMEOUT
  62:Drivers/STM32F3xx_HAL_Driver/Src/stm32f3xx_hal_rcc_ex.c **** #define HSI_TIMEOUT_VALUE          ((uint32_t)100)  /* 100 ms */
  63:Drivers/STM32F3xx_HAL_Driver/Src/stm32f3xx_hal_rcc_ex.c **** #define LSI_TIMEOUT_VALUE          ((uint32_t)100)  /* 100 ms */
  64:Drivers/STM32F3xx_HAL_Driver/Src/stm32f3xx_hal_rcc_ex.c **** #define PLL_TIMEOUT_VALUE          ((uint32_t)100)  /* 100 ms */
  65:Drivers/STM32F3xx_HAL_Driver/Src/stm32f3xx_hal_rcc_ex.c **** #define CLOCKSWITCH_TIMEOUT_VALUE  ((uint32_t)5000) /* 5 s    */
  66:Drivers/STM32F3xx_HAL_Driver/Src/stm32f3xx_hal_rcc_ex.c **** /**
  67:Drivers/STM32F3xx_HAL_Driver/Src/stm32f3xx_hal_rcc_ex.c ****   * @}
  68:Drivers/STM32F3xx_HAL_Driver/Src/stm32f3xx_hal_rcc_ex.c ****   */
  69:Drivers/STM32F3xx_HAL_Driver/Src/stm32f3xx_hal_rcc_ex.c **** 
  70:Drivers/STM32F3xx_HAL_Driver/Src/stm32f3xx_hal_rcc_ex.c **** /* Private macro -------------------------------------------------------------*/
  71:Drivers/STM32F3xx_HAL_Driver/Src/stm32f3xx_hal_rcc_ex.c **** /* Private variables ---------------------------------------------------------*/
  72:Drivers/STM32F3xx_HAL_Driver/Src/stm32f3xx_hal_rcc_ex.c **** /** @defgroup RCCEx_Private_Variables RCC Extented Private Variables
  73:Drivers/STM32F3xx_HAL_Driver/Src/stm32f3xx_hal_rcc_ex.c ****   * @{
  74:Drivers/STM32F3xx_HAL_Driver/Src/stm32f3xx_hal_rcc_ex.c ****   */
  75:Drivers/STM32F3xx_HAL_Driver/Src/stm32f3xx_hal_rcc_ex.c **** const uint8_t PLLMULFactorTable[16] = { 2,  3,  4,  5,  6,  7,  8,  9,
  76:Drivers/STM32F3xx_HAL_Driver/Src/stm32f3xx_hal_rcc_ex.c ****                                        10, 11, 12, 13, 14, 15, 16, 16};
  77:Drivers/STM32F3xx_HAL_Driver/Src/stm32f3xx_hal_rcc_ex.c **** const uint8_t PredivFactorTable[16] = { 1, 2,  3,  4,  5,  6,  7,  8,
  78:Drivers/STM32F3xx_HAL_Driver/Src/stm32f3xx_hal_rcc_ex.c ****                                          9,10, 11, 12, 13, 14, 15, 16};
  79:Drivers/STM32F3xx_HAL_Driver/Src/stm32f3xx_hal_rcc_ex.c **** /**
  80:Drivers/STM32F3xx_HAL_Driver/Src/stm32f3xx_hal_rcc_ex.c ****   * @}
  81:Drivers/STM32F3xx_HAL_Driver/Src/stm32f3xx_hal_rcc_ex.c ****   */
  82:Drivers/STM32F3xx_HAL_Driver/Src/stm32f3xx_hal_rcc_ex.c **** 
  83:Drivers/STM32F3xx_HAL_Driver/Src/stm32f3xx_hal_rcc_ex.c **** /* Private function prototypes -----------------------------------------------*/
  84:Drivers/STM32F3xx_HAL_Driver/Src/stm32f3xx_hal_rcc_ex.c **** /* Exported functions ---------------------------------------------------------*/
  85:Drivers/STM32F3xx_HAL_Driver/Src/stm32f3xx_hal_rcc_ex.c **** 
  86:Drivers/STM32F3xx_HAL_Driver/Src/stm32f3xx_hal_rcc_ex.c **** /** @defgroup RCCEx_Exported_Functions RCC Extended Exported Functions
  87:Drivers/STM32F3xx_HAL_Driver/Src/stm32f3xx_hal_rcc_ex.c ****   * @{
  88:Drivers/STM32F3xx_HAL_Driver/Src/stm32f3xx_hal_rcc_ex.c ****   */
  89:Drivers/STM32F3xx_HAL_Driver/Src/stm32f3xx_hal_rcc_ex.c **** 
  90:Drivers/STM32F3xx_HAL_Driver/Src/stm32f3xx_hal_rcc_ex.c **** /** @defgroup RCCEx_Exported_Functions_Group1 Extended Peripheral Control functions 
  91:Drivers/STM32F3xx_HAL_Driver/Src/stm32f3xx_hal_rcc_ex.c ****   * @brief    Extended Peripheral Control functions
  92:Drivers/STM32F3xx_HAL_Driver/Src/stm32f3xx_hal_rcc_ex.c ****   *
  93:Drivers/STM32F3xx_HAL_Driver/Src/stm32f3xx_hal_rcc_ex.c **** @verbatim   
  94:Drivers/STM32F3xx_HAL_Driver/Src/stm32f3xx_hal_rcc_ex.c ****  ===============================================================================
  95:Drivers/STM32F3xx_HAL_Driver/Src/stm32f3xx_hal_rcc_ex.c ****                 ##### Extended Peripheral Control functions  #####
  96:Drivers/STM32F3xx_HAL_Driver/Src/stm32f3xx_hal_rcc_ex.c ****  ===============================================================================  
  97:Drivers/STM32F3xx_HAL_Driver/Src/stm32f3xx_hal_rcc_ex.c ****     [..]
  98:Drivers/STM32F3xx_HAL_Driver/Src/stm32f3xx_hal_rcc_ex.c ****     This subsection provides a set of functions allowing to control the RCC Clocks 
  99:Drivers/STM32F3xx_HAL_Driver/Src/stm32f3xx_hal_rcc_ex.c ****     frequencies.
 100:Drivers/STM32F3xx_HAL_Driver/Src/stm32f3xx_hal_rcc_ex.c ****     [..] 
 101:Drivers/STM32F3xx_HAL_Driver/Src/stm32f3xx_hal_rcc_ex.c ****     (@) Important note: Care must be taken when HAL_RCCEx_PeriphCLKConfig() is used to
 102:Drivers/STM32F3xx_HAL_Driver/Src/stm32f3xx_hal_rcc_ex.c ****         select the RTC clock source; in this case the Backup domain will be reset in  
 103:Drivers/STM32F3xx_HAL_Driver/Src/stm32f3xx_hal_rcc_ex.c ****         order to modify the RTC Clock source, as consequence RTC registers (including 
 104:Drivers/STM32F3xx_HAL_Driver/Src/stm32f3xx_hal_rcc_ex.c ****         the backup registers) and RCC_BDCR register are set to their reset values.
ARM GAS  /tmp/cc4ZCISd.s 			page 4


 105:Drivers/STM32F3xx_HAL_Driver/Src/stm32f3xx_hal_rcc_ex.c ****       
 106:Drivers/STM32F3xx_HAL_Driver/Src/stm32f3xx_hal_rcc_ex.c **** @endverbatim
 107:Drivers/STM32F3xx_HAL_Driver/Src/stm32f3xx_hal_rcc_ex.c ****   * @{
 108:Drivers/STM32F3xx_HAL_Driver/Src/stm32f3xx_hal_rcc_ex.c ****   */
 109:Drivers/STM32F3xx_HAL_Driver/Src/stm32f3xx_hal_rcc_ex.c **** 
 110:Drivers/STM32F3xx_HAL_Driver/Src/stm32f3xx_hal_rcc_ex.c **** /**
 111:Drivers/STM32F3xx_HAL_Driver/Src/stm32f3xx_hal_rcc_ex.c ****   * @brief  Initializes the RCC extended peripherals clocks according to the specified
 112:Drivers/STM32F3xx_HAL_Driver/Src/stm32f3xx_hal_rcc_ex.c ****   *         parameters in the RCC_PeriphCLKInitTypeDef.
 113:Drivers/STM32F3xx_HAL_Driver/Src/stm32f3xx_hal_rcc_ex.c ****   * @param  PeriphClkInit: pointer to an RCC_PeriphCLKInitTypeDef structure that
 114:Drivers/STM32F3xx_HAL_Driver/Src/stm32f3xx_hal_rcc_ex.c ****   *         contains the configuration information for the Extended Peripherals clocks
 115:Drivers/STM32F3xx_HAL_Driver/Src/stm32f3xx_hal_rcc_ex.c ****   *         (ADC, CEC, I2C, I2S, SDADC, HRTIM, TIM, USART, RTC and USB).
 116:Drivers/STM32F3xx_HAL_Driver/Src/stm32f3xx_hal_rcc_ex.c ****   *
 117:Drivers/STM32F3xx_HAL_Driver/Src/stm32f3xx_hal_rcc_ex.c ****   * @note   Care must be taken when HAL_RCCEx_PeriphCLKConfig() is used to select 
 118:Drivers/STM32F3xx_HAL_Driver/Src/stm32f3xx_hal_rcc_ex.c ****   *         the RTC clock source; in this case the Backup domain will be reset in  
 119:Drivers/STM32F3xx_HAL_Driver/Src/stm32f3xx_hal_rcc_ex.c ****   *         order to modify the RTC Clock source, as consequence RTC registers (including 
 120:Drivers/STM32F3xx_HAL_Driver/Src/stm32f3xx_hal_rcc_ex.c ****   *         the backup registers) and RCC_BDCR register are set to their reset values.
 121:Drivers/STM32F3xx_HAL_Driver/Src/stm32f3xx_hal_rcc_ex.c ****   *
 122:Drivers/STM32F3xx_HAL_Driver/Src/stm32f3xx_hal_rcc_ex.c ****   * @retval HAL status
 123:Drivers/STM32F3xx_HAL_Driver/Src/stm32f3xx_hal_rcc_ex.c ****   */
 124:Drivers/STM32F3xx_HAL_Driver/Src/stm32f3xx_hal_rcc_ex.c **** HAL_StatusTypeDef HAL_RCCEx_PeriphCLKConfig(RCC_PeriphCLKInitTypeDef  *PeriphClkInit)
 125:Drivers/STM32F3xx_HAL_Driver/Src/stm32f3xx_hal_rcc_ex.c **** {
  73              		.loc 1 125 0
  74              		.cfi_startproc
  75              		@ args = 0, pretend = 0, frame = 64
  76              		@ frame_needed = 1, uses_anonymous_args = 0
  77 0000 80B5     		push	{r7, lr}
  78              	.LCFI0:
  79              		.cfi_def_cfa_offset 8
  80              		.cfi_offset 7, -8
  81              		.cfi_offset 14, -4
  82 0002 90B0     		sub	sp, sp, #64
  83              	.LCFI1:
  84              		.cfi_def_cfa_offset 72
  85 0004 00AF     		add	r7, sp, #0
  86              	.LCFI2:
  87              		.cfi_def_cfa_register 7
  88 0006 7860     		str	r0, [r7, #4]
 126:Drivers/STM32F3xx_HAL_Driver/Src/stm32f3xx_hal_rcc_ex.c ****   uint32_t tickstart = 0;
  89              		.loc 1 126 0
  90 0008 0023     		movs	r3, #0
  91 000a FB63     		str	r3, [r7, #60]
 127:Drivers/STM32F3xx_HAL_Driver/Src/stm32f3xx_hal_rcc_ex.c ****   uint32_t tmpreg = 0;
  92              		.loc 1 127 0
  93 000c 0023     		movs	r3, #0
  94 000e BB63     		str	r3, [r7, #56]
 128:Drivers/STM32F3xx_HAL_Driver/Src/stm32f3xx_hal_rcc_ex.c ****     
 129:Drivers/STM32F3xx_HAL_Driver/Src/stm32f3xx_hal_rcc_ex.c ****   /* Check the parameters */
 130:Drivers/STM32F3xx_HAL_Driver/Src/stm32f3xx_hal_rcc_ex.c ****   assert_param(IS_RCC_PERIPHCLK(PeriphClkInit->PeriphClockSelection));
 131:Drivers/STM32F3xx_HAL_Driver/Src/stm32f3xx_hal_rcc_ex.c ****   
 132:Drivers/STM32F3xx_HAL_Driver/Src/stm32f3xx_hal_rcc_ex.c ****    
 133:Drivers/STM32F3xx_HAL_Driver/Src/stm32f3xx_hal_rcc_ex.c ****   /*---------------------------- RTC configuration -------------------------------*/
 134:Drivers/STM32F3xx_HAL_Driver/Src/stm32f3xx_hal_rcc_ex.c ****   if(((PeriphClkInit->PeriphClockSelection) & RCC_PERIPHCLK_RTC) == (RCC_PERIPHCLK_RTC))
  95              		.loc 1 134 0
  96 0010 7B68     		ldr	r3, [r7, #4]
  97 0012 1B68     		ldr	r3, [r3]
  98 0014 03F48033 		and	r3, r3, #65536
  99 0018 002B     		cmp	r3, #0
ARM GAS  /tmp/cc4ZCISd.s 			page 5


 100 001a 00F0A580 		beq	.L2
 135:Drivers/STM32F3xx_HAL_Driver/Src/stm32f3xx_hal_rcc_ex.c ****   {
 136:Drivers/STM32F3xx_HAL_Driver/Src/stm32f3xx_hal_rcc_ex.c ****     /* Enable Power Clock*/
 137:Drivers/STM32F3xx_HAL_Driver/Src/stm32f3xx_hal_rcc_ex.c ****     __PWR_CLK_ENABLE();
 101              		.loc 1 137 0
 102 001e 3D4A     		ldr	r2, .L33
 103 0020 3C4B     		ldr	r3, .L33
 104 0022 DB69     		ldr	r3, [r3, #28]
 105 0024 43F08053 		orr	r3, r3, #268435456
 106 0028 D361     		str	r3, [r2, #28]
 138:Drivers/STM32F3xx_HAL_Driver/Src/stm32f3xx_hal_rcc_ex.c ****     
 139:Drivers/STM32F3xx_HAL_Driver/Src/stm32f3xx_hal_rcc_ex.c ****     /* Enable write access to Backup domain */
 140:Drivers/STM32F3xx_HAL_Driver/Src/stm32f3xx_hal_rcc_ex.c ****     SET_BIT(PWR->CR, PWR_CR_DBP);
 107              		.loc 1 140 0
 108 002a 3B4A     		ldr	r2, .L33+4
 109 002c 3A4B     		ldr	r3, .L33+4
 110 002e 1B68     		ldr	r3, [r3]
 111 0030 43F48073 		orr	r3, r3, #256
 112 0034 1360     		str	r3, [r2]
 141:Drivers/STM32F3xx_HAL_Driver/Src/stm32f3xx_hal_rcc_ex.c ****     
 142:Drivers/STM32F3xx_HAL_Driver/Src/stm32f3xx_hal_rcc_ex.c ****     /* Wait for Backup domain Write protection disable */
 143:Drivers/STM32F3xx_HAL_Driver/Src/stm32f3xx_hal_rcc_ex.c ****     tickstart = HAL_GetTick();
 113              		.loc 1 143 0
 114 0036 FFF7FEFF 		bl	HAL_GetTick
 115 003a F863     		str	r0, [r7, #60]
 144:Drivers/STM32F3xx_HAL_Driver/Src/stm32f3xx_hal_rcc_ex.c ****     
 145:Drivers/STM32F3xx_HAL_Driver/Src/stm32f3xx_hal_rcc_ex.c ****     while((PWR->CR & PWR_CR_DBP) == RESET)
 116              		.loc 1 145 0
 117 003c 08E0     		b	.L3
 118              	.L5:
 146:Drivers/STM32F3xx_HAL_Driver/Src/stm32f3xx_hal_rcc_ex.c ****     {
 147:Drivers/STM32F3xx_HAL_Driver/Src/stm32f3xx_hal_rcc_ex.c ****       if((HAL_GetTick()-tickstart) > DBP_TIMEOUT_VALUE)
 119              		.loc 1 147 0
 120 003e FFF7FEFF 		bl	HAL_GetTick
 121 0042 0246     		mov	r2, r0
 122 0044 FB6B     		ldr	r3, [r7, #60]
 123 0046 D31A     		subs	r3, r2, r3
 124 0048 642B     		cmp	r3, #100
 125 004a 01D9     		bls	.L3
 148:Drivers/STM32F3xx_HAL_Driver/Src/stm32f3xx_hal_rcc_ex.c ****       {
 149:Drivers/STM32F3xx_HAL_Driver/Src/stm32f3xx_hal_rcc_ex.c ****         return HAL_TIMEOUT;
 126              		.loc 1 149 0
 127 004c 0323     		movs	r3, #3
 128 004e 4FE1     		b	.L4
 129              	.L3:
 145:Drivers/STM32F3xx_HAL_Driver/Src/stm32f3xx_hal_rcc_ex.c ****     {
 130              		.loc 1 145 0
 131 0050 314B     		ldr	r3, .L33+4
 132 0052 1B68     		ldr	r3, [r3]
 133 0054 03F48073 		and	r3, r3, #256
 134 0058 002B     		cmp	r3, #0
 135 005a F0D0     		beq	.L5
 150:Drivers/STM32F3xx_HAL_Driver/Src/stm32f3xx_hal_rcc_ex.c ****       }      
 151:Drivers/STM32F3xx_HAL_Driver/Src/stm32f3xx_hal_rcc_ex.c ****     }
 152:Drivers/STM32F3xx_HAL_Driver/Src/stm32f3xx_hal_rcc_ex.c ****     
 153:Drivers/STM32F3xx_HAL_Driver/Src/stm32f3xx_hal_rcc_ex.c ****     /* Reset the Backup domain only if the RTC Clock source selction is modified */ 
 154:Drivers/STM32F3xx_HAL_Driver/Src/stm32f3xx_hal_rcc_ex.c ****     if((RCC->BDCR & RCC_BDCR_RTCSEL) != (PeriphClkInit->RTCClockSelection & RCC_BDCR_RTCSEL))
ARM GAS  /tmp/cc4ZCISd.s 			page 6


 136              		.loc 1 154 0
 137 005c 2D4B     		ldr	r3, .L33
 138 005e 1A6A     		ldr	r2, [r3, #32]
 139 0060 7B68     		ldr	r3, [r7, #4]
 140 0062 5B68     		ldr	r3, [r3, #4]
 141 0064 5340     		eors	r3, r3, r2
 142 0066 03F44073 		and	r3, r3, #768
 143 006a 002B     		cmp	r3, #0
 144 006c 0DD0     		beq	.L6
 155:Drivers/STM32F3xx_HAL_Driver/Src/stm32f3xx_hal_rcc_ex.c ****     {
 156:Drivers/STM32F3xx_HAL_Driver/Src/stm32f3xx_hal_rcc_ex.c ****       /* Store the content of BDCR register before the reset of Backup Domain */
 157:Drivers/STM32F3xx_HAL_Driver/Src/stm32f3xx_hal_rcc_ex.c ****       tmpreg = (RCC->BDCR & ~(RCC_BDCR_RTCSEL));
 145              		.loc 1 157 0
 146 006e 294B     		ldr	r3, .L33
 147 0070 1B6A     		ldr	r3, [r3, #32]
 148 0072 23F44073 		bic	r3, r3, #768
 149 0076 BB63     		str	r3, [r7, #56]
 158:Drivers/STM32F3xx_HAL_Driver/Src/stm32f3xx_hal_rcc_ex.c ****       /* RTC Clock selection can be changed only if the Backup Domain is reset */
 159:Drivers/STM32F3xx_HAL_Driver/Src/stm32f3xx_hal_rcc_ex.c ****       __HAL_RCC_BACKUPRESET_FORCE();
 150              		.loc 1 159 0
 151 0078 284B     		ldr	r3, .L33+8
 152 007a 0122     		movs	r2, #1
 153 007c 1A60     		str	r2, [r3]
 160:Drivers/STM32F3xx_HAL_Driver/Src/stm32f3xx_hal_rcc_ex.c ****       __HAL_RCC_BACKUPRESET_RELEASE();
 154              		.loc 1 160 0
 155 007e 274B     		ldr	r3, .L33+8
 156 0080 0022     		movs	r2, #0
 157 0082 1A60     		str	r2, [r3]
 161:Drivers/STM32F3xx_HAL_Driver/Src/stm32f3xx_hal_rcc_ex.c ****       /* Restore the Content of BDCR register */
 162:Drivers/STM32F3xx_HAL_Driver/Src/stm32f3xx_hal_rcc_ex.c ****       RCC->BDCR = tmpreg;
 158              		.loc 1 162 0
 159 0084 234A     		ldr	r2, .L33
 160 0086 BB6B     		ldr	r3, [r7, #56]
 161 0088 1362     		str	r3, [r2, #32]
 162              	.L6:
 163:Drivers/STM32F3xx_HAL_Driver/Src/stm32f3xx_hal_rcc_ex.c ****     }
 164:Drivers/STM32F3xx_HAL_Driver/Src/stm32f3xx_hal_rcc_ex.c ****     
 165:Drivers/STM32F3xx_HAL_Driver/Src/stm32f3xx_hal_rcc_ex.c ****     /* If LSE is selected as RTC clock source, wait for LSE reactivation */
 166:Drivers/STM32F3xx_HAL_Driver/Src/stm32f3xx_hal_rcc_ex.c ****     if(PeriphClkInit->RTCClockSelection == RCC_RTCCLKSOURCE_LSE)
 163              		.loc 1 166 0
 164 008a 7B68     		ldr	r3, [r7, #4]
 165 008c 5B68     		ldr	r3, [r3, #4]
 166 008e B3F5807F 		cmp	r3, #256
 167 0092 60D1     		bne	.L7
 167:Drivers/STM32F3xx_HAL_Driver/Src/stm32f3xx_hal_rcc_ex.c ****     {
 168:Drivers/STM32F3xx_HAL_Driver/Src/stm32f3xx_hal_rcc_ex.c ****       /* Get timeout */
 169:Drivers/STM32F3xx_HAL_Driver/Src/stm32f3xx_hal_rcc_ex.c ****       tickstart = HAL_GetTick();
 168              		.loc 1 169 0
 169 0094 FFF7FEFF 		bl	HAL_GetTick
 170 0098 F863     		str	r0, [r7, #60]
 170:Drivers/STM32F3xx_HAL_Driver/Src/stm32f3xx_hal_rcc_ex.c ****       
 171:Drivers/STM32F3xx_HAL_Driver/Src/stm32f3xx_hal_rcc_ex.c ****       /* Wait till LSE is ready */  
 172:Drivers/STM32F3xx_HAL_Driver/Src/stm32f3xx_hal_rcc_ex.c ****       while(__HAL_RCC_GET_FLAG(RCC_FLAG_LSERDY) == RESET)
 171              		.loc 1 172 0
 172 009a 0AE0     		b	.L8
 173              	.L19:
 173:Drivers/STM32F3xx_HAL_Driver/Src/stm32f3xx_hal_rcc_ex.c ****       {
ARM GAS  /tmp/cc4ZCISd.s 			page 7


 174:Drivers/STM32F3xx_HAL_Driver/Src/stm32f3xx_hal_rcc_ex.c ****       if((HAL_GetTick()-tickstart) > LSE_TIMEOUT_VALUE)
 174              		.loc 1 174 0
 175 009c FFF7FEFF 		bl	HAL_GetTick
 176 00a0 0246     		mov	r2, r0
 177 00a2 FB6B     		ldr	r3, [r7, #60]
 178 00a4 D31A     		subs	r3, r2, r3
 179 00a6 41F28832 		movw	r2, #5000
 180 00aa 9342     		cmp	r3, r2
 181 00ac 01D9     		bls	.L8
 175:Drivers/STM32F3xx_HAL_Driver/Src/stm32f3xx_hal_rcc_ex.c ****         {
 176:Drivers/STM32F3xx_HAL_Driver/Src/stm32f3xx_hal_rcc_ex.c ****           return HAL_TIMEOUT;
 182              		.loc 1 176 0
 183 00ae 0323     		movs	r3, #3
 184 00b0 1EE1     		b	.L4
 185              	.L8:
 186 00b2 0223     		movs	r3, #2
 187 00b4 3B63     		str	r3, [r7, #48]
 188              	.LBB214:
 189              	.LBB215:
 190              		.file 2 "Drivers/CMSIS/Include/core_cmInstr.h"
   1:Drivers/CMSIS/Include/core_cmInstr.h **** /**************************************************************************//**
   2:Drivers/CMSIS/Include/core_cmInstr.h ****  * @file     core_cmInstr.h
   3:Drivers/CMSIS/Include/core_cmInstr.h ****  * @brief    CMSIS Cortex-M Core Instruction Access Header File
   4:Drivers/CMSIS/Include/core_cmInstr.h ****  * @version  V3.20
   5:Drivers/CMSIS/Include/core_cmInstr.h ****  * @date     05. March 2013
   6:Drivers/CMSIS/Include/core_cmInstr.h ****  *
   7:Drivers/CMSIS/Include/core_cmInstr.h ****  * @note
   8:Drivers/CMSIS/Include/core_cmInstr.h ****  *
   9:Drivers/CMSIS/Include/core_cmInstr.h ****  ******************************************************************************/
  10:Drivers/CMSIS/Include/core_cmInstr.h **** /* Copyright (c) 2009 - 2013 ARM LIMITED
  11:Drivers/CMSIS/Include/core_cmInstr.h **** 
  12:Drivers/CMSIS/Include/core_cmInstr.h ****    All rights reserved.
  13:Drivers/CMSIS/Include/core_cmInstr.h ****    Redistribution and use in source and binary forms, with or without
  14:Drivers/CMSIS/Include/core_cmInstr.h ****    modification, are permitted provided that the following conditions are met:
  15:Drivers/CMSIS/Include/core_cmInstr.h ****    - Redistributions of source code must retain the above copyright
  16:Drivers/CMSIS/Include/core_cmInstr.h ****      notice, this list of conditions and the following disclaimer.
  17:Drivers/CMSIS/Include/core_cmInstr.h ****    - Redistributions in binary form must reproduce the above copyright
  18:Drivers/CMSIS/Include/core_cmInstr.h ****      notice, this list of conditions and the following disclaimer in the
  19:Drivers/CMSIS/Include/core_cmInstr.h ****      documentation and/or other materials provided with the distribution.
  20:Drivers/CMSIS/Include/core_cmInstr.h ****    - Neither the name of ARM nor the names of its contributors may be used
  21:Drivers/CMSIS/Include/core_cmInstr.h ****      to endorse or promote products derived from this software without
  22:Drivers/CMSIS/Include/core_cmInstr.h ****      specific prior written permission.
  23:Drivers/CMSIS/Include/core_cmInstr.h ****    *
  24:Drivers/CMSIS/Include/core_cmInstr.h ****    THIS SOFTWARE IS PROVIDED BY THE COPYRIGHT HOLDERS AND CONTRIBUTORS "AS IS"
  25:Drivers/CMSIS/Include/core_cmInstr.h ****    AND ANY EXPRESS OR IMPLIED WARRANTIES, INCLUDING, BUT NOT LIMITED TO, THE
  26:Drivers/CMSIS/Include/core_cmInstr.h ****    IMPLIED WARRANTIES OF MERCHANTABILITY AND FITNESS FOR A PARTICULAR PURPOSE
  27:Drivers/CMSIS/Include/core_cmInstr.h ****    ARE DISCLAIMED. IN NO EVENT SHALL COPYRIGHT HOLDERS AND CONTRIBUTORS BE
  28:Drivers/CMSIS/Include/core_cmInstr.h ****    LIABLE FOR ANY DIRECT, INDIRECT, INCIDENTAL, SPECIAL, EXEMPLARY, OR
  29:Drivers/CMSIS/Include/core_cmInstr.h ****    CONSEQUENTIAL DAMAGES (INCLUDING, BUT NOT LIMITED TO, PROCUREMENT OF
  30:Drivers/CMSIS/Include/core_cmInstr.h ****    SUBSTITUTE GOODS OR SERVICES; LOSS OF USE, DATA, OR PROFITS; OR BUSINESS
  31:Drivers/CMSIS/Include/core_cmInstr.h ****    INTERRUPTION) HOWEVER CAUSED AND ON ANY THEORY OF LIABILITY, WHETHER IN
  32:Drivers/CMSIS/Include/core_cmInstr.h ****    CONTRACT, STRICT LIABILITY, OR TORT (INCLUDING NEGLIGENCE OR OTHERWISE)
  33:Drivers/CMSIS/Include/core_cmInstr.h ****    ARISING IN ANY WAY OUT OF THE USE OF THIS SOFTWARE, EVEN IF ADVISED OF THE
  34:Drivers/CMSIS/Include/core_cmInstr.h ****    POSSIBILITY OF SUCH DAMAGE.
  35:Drivers/CMSIS/Include/core_cmInstr.h ****    ---------------------------------------------------------------------------*/
  36:Drivers/CMSIS/Include/core_cmInstr.h **** 
  37:Drivers/CMSIS/Include/core_cmInstr.h **** 
ARM GAS  /tmp/cc4ZCISd.s 			page 8


  38:Drivers/CMSIS/Include/core_cmInstr.h **** #ifndef __CORE_CMINSTR_H
  39:Drivers/CMSIS/Include/core_cmInstr.h **** #define __CORE_CMINSTR_H
  40:Drivers/CMSIS/Include/core_cmInstr.h **** 
  41:Drivers/CMSIS/Include/core_cmInstr.h **** 
  42:Drivers/CMSIS/Include/core_cmInstr.h **** /* ##########################  Core Instruction Access  ######################### */
  43:Drivers/CMSIS/Include/core_cmInstr.h **** /** \defgroup CMSIS_Core_InstructionInterface CMSIS Core Instruction Interface
  44:Drivers/CMSIS/Include/core_cmInstr.h ****   Access to dedicated instructions
  45:Drivers/CMSIS/Include/core_cmInstr.h ****   @{
  46:Drivers/CMSIS/Include/core_cmInstr.h **** */
  47:Drivers/CMSIS/Include/core_cmInstr.h **** 
  48:Drivers/CMSIS/Include/core_cmInstr.h **** #if   defined ( __CC_ARM ) /*------------------RealView Compiler -----------------*/
  49:Drivers/CMSIS/Include/core_cmInstr.h **** /* ARM armcc specific functions */
  50:Drivers/CMSIS/Include/core_cmInstr.h **** 
  51:Drivers/CMSIS/Include/core_cmInstr.h **** #if (__ARMCC_VERSION < 400677)
  52:Drivers/CMSIS/Include/core_cmInstr.h ****   #error "Please use ARM Compiler Toolchain V4.0.677 or later!"
  53:Drivers/CMSIS/Include/core_cmInstr.h **** #endif
  54:Drivers/CMSIS/Include/core_cmInstr.h **** 
  55:Drivers/CMSIS/Include/core_cmInstr.h **** 
  56:Drivers/CMSIS/Include/core_cmInstr.h **** /** \brief  No Operation
  57:Drivers/CMSIS/Include/core_cmInstr.h **** 
  58:Drivers/CMSIS/Include/core_cmInstr.h ****     No Operation does nothing. This instruction can be used for code alignment purposes.
  59:Drivers/CMSIS/Include/core_cmInstr.h ****  */
  60:Drivers/CMSIS/Include/core_cmInstr.h **** #define __NOP                             __nop
  61:Drivers/CMSIS/Include/core_cmInstr.h **** 
  62:Drivers/CMSIS/Include/core_cmInstr.h **** 
  63:Drivers/CMSIS/Include/core_cmInstr.h **** /** \brief  Wait For Interrupt
  64:Drivers/CMSIS/Include/core_cmInstr.h **** 
  65:Drivers/CMSIS/Include/core_cmInstr.h ****     Wait For Interrupt is a hint instruction that suspends execution
  66:Drivers/CMSIS/Include/core_cmInstr.h ****     until one of a number of events occurs.
  67:Drivers/CMSIS/Include/core_cmInstr.h ****  */
  68:Drivers/CMSIS/Include/core_cmInstr.h **** #define __WFI                             __wfi
  69:Drivers/CMSIS/Include/core_cmInstr.h **** 
  70:Drivers/CMSIS/Include/core_cmInstr.h **** 
  71:Drivers/CMSIS/Include/core_cmInstr.h **** /** \brief  Wait For Event
  72:Drivers/CMSIS/Include/core_cmInstr.h **** 
  73:Drivers/CMSIS/Include/core_cmInstr.h ****     Wait For Event is a hint instruction that permits the processor to enter
  74:Drivers/CMSIS/Include/core_cmInstr.h ****     a low-power state until one of a number of events occurs.
  75:Drivers/CMSIS/Include/core_cmInstr.h ****  */
  76:Drivers/CMSIS/Include/core_cmInstr.h **** #define __WFE                             __wfe
  77:Drivers/CMSIS/Include/core_cmInstr.h **** 
  78:Drivers/CMSIS/Include/core_cmInstr.h **** 
  79:Drivers/CMSIS/Include/core_cmInstr.h **** /** \brief  Send Event
  80:Drivers/CMSIS/Include/core_cmInstr.h **** 
  81:Drivers/CMSIS/Include/core_cmInstr.h ****     Send Event is a hint instruction. It causes an event to be signaled to the CPU.
  82:Drivers/CMSIS/Include/core_cmInstr.h ****  */
  83:Drivers/CMSIS/Include/core_cmInstr.h **** #define __SEV                             __sev
  84:Drivers/CMSIS/Include/core_cmInstr.h **** 
  85:Drivers/CMSIS/Include/core_cmInstr.h **** 
  86:Drivers/CMSIS/Include/core_cmInstr.h **** /** \brief  Instruction Synchronization Barrier
  87:Drivers/CMSIS/Include/core_cmInstr.h **** 
  88:Drivers/CMSIS/Include/core_cmInstr.h ****     Instruction Synchronization Barrier flushes the pipeline in the processor,
  89:Drivers/CMSIS/Include/core_cmInstr.h ****     so that all instructions following the ISB are fetched from cache or
  90:Drivers/CMSIS/Include/core_cmInstr.h ****     memory, after the instruction has been completed.
  91:Drivers/CMSIS/Include/core_cmInstr.h ****  */
  92:Drivers/CMSIS/Include/core_cmInstr.h **** #define __ISB()                           __isb(0xF)
  93:Drivers/CMSIS/Include/core_cmInstr.h **** 
  94:Drivers/CMSIS/Include/core_cmInstr.h **** 
ARM GAS  /tmp/cc4ZCISd.s 			page 9


  95:Drivers/CMSIS/Include/core_cmInstr.h **** /** \brief  Data Synchronization Barrier
  96:Drivers/CMSIS/Include/core_cmInstr.h **** 
  97:Drivers/CMSIS/Include/core_cmInstr.h ****     This function acts as a special kind of Data Memory Barrier.
  98:Drivers/CMSIS/Include/core_cmInstr.h ****     It completes when all explicit memory accesses before this instruction complete.
  99:Drivers/CMSIS/Include/core_cmInstr.h ****  */
 100:Drivers/CMSIS/Include/core_cmInstr.h **** #define __DSB()                           __dsb(0xF)
 101:Drivers/CMSIS/Include/core_cmInstr.h **** 
 102:Drivers/CMSIS/Include/core_cmInstr.h **** 
 103:Drivers/CMSIS/Include/core_cmInstr.h **** /** \brief  Data Memory Barrier
 104:Drivers/CMSIS/Include/core_cmInstr.h **** 
 105:Drivers/CMSIS/Include/core_cmInstr.h ****     This function ensures the apparent order of the explicit memory operations before
 106:Drivers/CMSIS/Include/core_cmInstr.h ****     and after the instruction, without ensuring their completion.
 107:Drivers/CMSIS/Include/core_cmInstr.h ****  */
 108:Drivers/CMSIS/Include/core_cmInstr.h **** #define __DMB()                           __dmb(0xF)
 109:Drivers/CMSIS/Include/core_cmInstr.h **** 
 110:Drivers/CMSIS/Include/core_cmInstr.h **** 
 111:Drivers/CMSIS/Include/core_cmInstr.h **** /** \brief  Reverse byte order (32 bit)
 112:Drivers/CMSIS/Include/core_cmInstr.h **** 
 113:Drivers/CMSIS/Include/core_cmInstr.h ****     This function reverses the byte order in integer value.
 114:Drivers/CMSIS/Include/core_cmInstr.h **** 
 115:Drivers/CMSIS/Include/core_cmInstr.h ****     \param [in]    value  Value to reverse
 116:Drivers/CMSIS/Include/core_cmInstr.h ****     \return               Reversed value
 117:Drivers/CMSIS/Include/core_cmInstr.h ****  */
 118:Drivers/CMSIS/Include/core_cmInstr.h **** #define __REV                             __rev
 119:Drivers/CMSIS/Include/core_cmInstr.h **** 
 120:Drivers/CMSIS/Include/core_cmInstr.h **** 
 121:Drivers/CMSIS/Include/core_cmInstr.h **** /** \brief  Reverse byte order (16 bit)
 122:Drivers/CMSIS/Include/core_cmInstr.h **** 
 123:Drivers/CMSIS/Include/core_cmInstr.h ****     This function reverses the byte order in two unsigned short values.
 124:Drivers/CMSIS/Include/core_cmInstr.h **** 
 125:Drivers/CMSIS/Include/core_cmInstr.h ****     \param [in]    value  Value to reverse
 126:Drivers/CMSIS/Include/core_cmInstr.h ****     \return               Reversed value
 127:Drivers/CMSIS/Include/core_cmInstr.h ****  */
 128:Drivers/CMSIS/Include/core_cmInstr.h **** #ifndef __NO_EMBEDDED_ASM
 129:Drivers/CMSIS/Include/core_cmInstr.h **** __attribute__((section(".rev16_text"))) __STATIC_INLINE __ASM uint32_t __REV16(uint32_t value)
 130:Drivers/CMSIS/Include/core_cmInstr.h **** {
 131:Drivers/CMSIS/Include/core_cmInstr.h ****   rev16 r0, r0
 132:Drivers/CMSIS/Include/core_cmInstr.h ****   bx lr
 133:Drivers/CMSIS/Include/core_cmInstr.h **** }
 134:Drivers/CMSIS/Include/core_cmInstr.h **** #endif
 135:Drivers/CMSIS/Include/core_cmInstr.h **** 
 136:Drivers/CMSIS/Include/core_cmInstr.h **** /** \brief  Reverse byte order in signed short value
 137:Drivers/CMSIS/Include/core_cmInstr.h **** 
 138:Drivers/CMSIS/Include/core_cmInstr.h ****     This function reverses the byte order in a signed short value with sign extension to integer.
 139:Drivers/CMSIS/Include/core_cmInstr.h **** 
 140:Drivers/CMSIS/Include/core_cmInstr.h ****     \param [in]    value  Value to reverse
 141:Drivers/CMSIS/Include/core_cmInstr.h ****     \return               Reversed value
 142:Drivers/CMSIS/Include/core_cmInstr.h ****  */
 143:Drivers/CMSIS/Include/core_cmInstr.h **** #ifndef __NO_EMBEDDED_ASM
 144:Drivers/CMSIS/Include/core_cmInstr.h **** __attribute__((section(".revsh_text"))) __STATIC_INLINE __ASM int32_t __REVSH(int32_t value)
 145:Drivers/CMSIS/Include/core_cmInstr.h **** {
 146:Drivers/CMSIS/Include/core_cmInstr.h ****   revsh r0, r0
 147:Drivers/CMSIS/Include/core_cmInstr.h ****   bx lr
 148:Drivers/CMSIS/Include/core_cmInstr.h **** }
 149:Drivers/CMSIS/Include/core_cmInstr.h **** #endif
 150:Drivers/CMSIS/Include/core_cmInstr.h **** 
 151:Drivers/CMSIS/Include/core_cmInstr.h **** 
ARM GAS  /tmp/cc4ZCISd.s 			page 10


 152:Drivers/CMSIS/Include/core_cmInstr.h **** /** \brief  Rotate Right in unsigned value (32 bit)
 153:Drivers/CMSIS/Include/core_cmInstr.h **** 
 154:Drivers/CMSIS/Include/core_cmInstr.h ****     This function Rotate Right (immediate) provides the value of the contents of a register rotated
 155:Drivers/CMSIS/Include/core_cmInstr.h **** 
 156:Drivers/CMSIS/Include/core_cmInstr.h ****     \param [in]    value  Value to rotate
 157:Drivers/CMSIS/Include/core_cmInstr.h ****     \param [in]    value  Number of Bits to rotate
 158:Drivers/CMSIS/Include/core_cmInstr.h ****     \return               Rotated value
 159:Drivers/CMSIS/Include/core_cmInstr.h ****  */
 160:Drivers/CMSIS/Include/core_cmInstr.h **** #define __ROR                             __ror
 161:Drivers/CMSIS/Include/core_cmInstr.h **** 
 162:Drivers/CMSIS/Include/core_cmInstr.h **** 
 163:Drivers/CMSIS/Include/core_cmInstr.h **** /** \brief  Breakpoint
 164:Drivers/CMSIS/Include/core_cmInstr.h **** 
 165:Drivers/CMSIS/Include/core_cmInstr.h ****     This function causes the processor to enter Debug state.
 166:Drivers/CMSIS/Include/core_cmInstr.h ****     Debug tools can use this to investigate system state when the instruction at a particular addre
 167:Drivers/CMSIS/Include/core_cmInstr.h **** 
 168:Drivers/CMSIS/Include/core_cmInstr.h ****     \param [in]    value  is ignored by the processor.
 169:Drivers/CMSIS/Include/core_cmInstr.h ****                    If required, a debugger can use it to store additional information about the bre
 170:Drivers/CMSIS/Include/core_cmInstr.h ****  */
 171:Drivers/CMSIS/Include/core_cmInstr.h **** #define __BKPT(value)                       __breakpoint(value)
 172:Drivers/CMSIS/Include/core_cmInstr.h **** 
 173:Drivers/CMSIS/Include/core_cmInstr.h **** 
 174:Drivers/CMSIS/Include/core_cmInstr.h **** #if       (__CORTEX_M >= 0x03)
 175:Drivers/CMSIS/Include/core_cmInstr.h **** 
 176:Drivers/CMSIS/Include/core_cmInstr.h **** /** \brief  Reverse bit order of value
 177:Drivers/CMSIS/Include/core_cmInstr.h **** 
 178:Drivers/CMSIS/Include/core_cmInstr.h ****     This function reverses the bit order of the given value.
 179:Drivers/CMSIS/Include/core_cmInstr.h **** 
 180:Drivers/CMSIS/Include/core_cmInstr.h ****     \param [in]    value  Value to reverse
 181:Drivers/CMSIS/Include/core_cmInstr.h ****     \return               Reversed value
 182:Drivers/CMSIS/Include/core_cmInstr.h ****  */
 183:Drivers/CMSIS/Include/core_cmInstr.h **** #define __RBIT                            __rbit
 184:Drivers/CMSIS/Include/core_cmInstr.h **** 
 185:Drivers/CMSIS/Include/core_cmInstr.h **** 
 186:Drivers/CMSIS/Include/core_cmInstr.h **** /** \brief  LDR Exclusive (8 bit)
 187:Drivers/CMSIS/Include/core_cmInstr.h **** 
 188:Drivers/CMSIS/Include/core_cmInstr.h ****     This function performs a exclusive LDR command for 8 bit value.
 189:Drivers/CMSIS/Include/core_cmInstr.h **** 
 190:Drivers/CMSIS/Include/core_cmInstr.h ****     \param [in]    ptr  Pointer to data
 191:Drivers/CMSIS/Include/core_cmInstr.h ****     \return             value of type uint8_t at (*ptr)
 192:Drivers/CMSIS/Include/core_cmInstr.h ****  */
 193:Drivers/CMSIS/Include/core_cmInstr.h **** #define __LDREXB(ptr)                     ((uint8_t ) __ldrex(ptr))
 194:Drivers/CMSIS/Include/core_cmInstr.h **** 
 195:Drivers/CMSIS/Include/core_cmInstr.h **** 
 196:Drivers/CMSIS/Include/core_cmInstr.h **** /** \brief  LDR Exclusive (16 bit)
 197:Drivers/CMSIS/Include/core_cmInstr.h **** 
 198:Drivers/CMSIS/Include/core_cmInstr.h ****     This function performs a exclusive LDR command for 16 bit values.
 199:Drivers/CMSIS/Include/core_cmInstr.h **** 
 200:Drivers/CMSIS/Include/core_cmInstr.h ****     \param [in]    ptr  Pointer to data
 201:Drivers/CMSIS/Include/core_cmInstr.h ****     \return        value of type uint16_t at (*ptr)
 202:Drivers/CMSIS/Include/core_cmInstr.h ****  */
 203:Drivers/CMSIS/Include/core_cmInstr.h **** #define __LDREXH(ptr)                     ((uint16_t) __ldrex(ptr))
 204:Drivers/CMSIS/Include/core_cmInstr.h **** 
 205:Drivers/CMSIS/Include/core_cmInstr.h **** 
 206:Drivers/CMSIS/Include/core_cmInstr.h **** /** \brief  LDR Exclusive (32 bit)
 207:Drivers/CMSIS/Include/core_cmInstr.h **** 
 208:Drivers/CMSIS/Include/core_cmInstr.h ****     This function performs a exclusive LDR command for 32 bit values.
ARM GAS  /tmp/cc4ZCISd.s 			page 11


 209:Drivers/CMSIS/Include/core_cmInstr.h **** 
 210:Drivers/CMSIS/Include/core_cmInstr.h ****     \param [in]    ptr  Pointer to data
 211:Drivers/CMSIS/Include/core_cmInstr.h ****     \return        value of type uint32_t at (*ptr)
 212:Drivers/CMSIS/Include/core_cmInstr.h ****  */
 213:Drivers/CMSIS/Include/core_cmInstr.h **** #define __LDREXW(ptr)                     ((uint32_t ) __ldrex(ptr))
 214:Drivers/CMSIS/Include/core_cmInstr.h **** 
 215:Drivers/CMSIS/Include/core_cmInstr.h **** 
 216:Drivers/CMSIS/Include/core_cmInstr.h **** /** \brief  STR Exclusive (8 bit)
 217:Drivers/CMSIS/Include/core_cmInstr.h **** 
 218:Drivers/CMSIS/Include/core_cmInstr.h ****     This function performs a exclusive STR command for 8 bit values.
 219:Drivers/CMSIS/Include/core_cmInstr.h **** 
 220:Drivers/CMSIS/Include/core_cmInstr.h ****     \param [in]  value  Value to store
 221:Drivers/CMSIS/Include/core_cmInstr.h ****     \param [in]    ptr  Pointer to location
 222:Drivers/CMSIS/Include/core_cmInstr.h ****     \return          0  Function succeeded
 223:Drivers/CMSIS/Include/core_cmInstr.h ****     \return          1  Function failed
 224:Drivers/CMSIS/Include/core_cmInstr.h ****  */
 225:Drivers/CMSIS/Include/core_cmInstr.h **** #define __STREXB(value, ptr)              __strex(value, ptr)
 226:Drivers/CMSIS/Include/core_cmInstr.h **** 
 227:Drivers/CMSIS/Include/core_cmInstr.h **** 
 228:Drivers/CMSIS/Include/core_cmInstr.h **** /** \brief  STR Exclusive (16 bit)
 229:Drivers/CMSIS/Include/core_cmInstr.h **** 
 230:Drivers/CMSIS/Include/core_cmInstr.h ****     This function performs a exclusive STR command for 16 bit values.
 231:Drivers/CMSIS/Include/core_cmInstr.h **** 
 232:Drivers/CMSIS/Include/core_cmInstr.h ****     \param [in]  value  Value to store
 233:Drivers/CMSIS/Include/core_cmInstr.h ****     \param [in]    ptr  Pointer to location
 234:Drivers/CMSIS/Include/core_cmInstr.h ****     \return          0  Function succeeded
 235:Drivers/CMSIS/Include/core_cmInstr.h ****     \return          1  Function failed
 236:Drivers/CMSIS/Include/core_cmInstr.h ****  */
 237:Drivers/CMSIS/Include/core_cmInstr.h **** #define __STREXH(value, ptr)              __strex(value, ptr)
 238:Drivers/CMSIS/Include/core_cmInstr.h **** 
 239:Drivers/CMSIS/Include/core_cmInstr.h **** 
 240:Drivers/CMSIS/Include/core_cmInstr.h **** /** \brief  STR Exclusive (32 bit)
 241:Drivers/CMSIS/Include/core_cmInstr.h **** 
 242:Drivers/CMSIS/Include/core_cmInstr.h ****     This function performs a exclusive STR command for 32 bit values.
 243:Drivers/CMSIS/Include/core_cmInstr.h **** 
 244:Drivers/CMSIS/Include/core_cmInstr.h ****     \param [in]  value  Value to store
 245:Drivers/CMSIS/Include/core_cmInstr.h ****     \param [in]    ptr  Pointer to location
 246:Drivers/CMSIS/Include/core_cmInstr.h ****     \return          0  Function succeeded
 247:Drivers/CMSIS/Include/core_cmInstr.h ****     \return          1  Function failed
 248:Drivers/CMSIS/Include/core_cmInstr.h ****  */
 249:Drivers/CMSIS/Include/core_cmInstr.h **** #define __STREXW(value, ptr)              __strex(value, ptr)
 250:Drivers/CMSIS/Include/core_cmInstr.h **** 
 251:Drivers/CMSIS/Include/core_cmInstr.h **** 
 252:Drivers/CMSIS/Include/core_cmInstr.h **** /** \brief  Remove the exclusive lock
 253:Drivers/CMSIS/Include/core_cmInstr.h **** 
 254:Drivers/CMSIS/Include/core_cmInstr.h ****     This function removes the exclusive lock which is created by LDREX.
 255:Drivers/CMSIS/Include/core_cmInstr.h **** 
 256:Drivers/CMSIS/Include/core_cmInstr.h ****  */
 257:Drivers/CMSIS/Include/core_cmInstr.h **** #define __CLREX                           __clrex
 258:Drivers/CMSIS/Include/core_cmInstr.h **** 
 259:Drivers/CMSIS/Include/core_cmInstr.h **** 
 260:Drivers/CMSIS/Include/core_cmInstr.h **** /** \brief  Signed Saturate
 261:Drivers/CMSIS/Include/core_cmInstr.h **** 
 262:Drivers/CMSIS/Include/core_cmInstr.h ****     This function saturates a signed value.
 263:Drivers/CMSIS/Include/core_cmInstr.h **** 
 264:Drivers/CMSIS/Include/core_cmInstr.h ****     \param [in]  value  Value to be saturated
 265:Drivers/CMSIS/Include/core_cmInstr.h ****     \param [in]    sat  Bit position to saturate to (1..32)
ARM GAS  /tmp/cc4ZCISd.s 			page 12


 266:Drivers/CMSIS/Include/core_cmInstr.h ****     \return             Saturated value
 267:Drivers/CMSIS/Include/core_cmInstr.h ****  */
 268:Drivers/CMSIS/Include/core_cmInstr.h **** #define __SSAT                            __ssat
 269:Drivers/CMSIS/Include/core_cmInstr.h **** 
 270:Drivers/CMSIS/Include/core_cmInstr.h **** 
 271:Drivers/CMSIS/Include/core_cmInstr.h **** /** \brief  Unsigned Saturate
 272:Drivers/CMSIS/Include/core_cmInstr.h **** 
 273:Drivers/CMSIS/Include/core_cmInstr.h ****     This function saturates an unsigned value.
 274:Drivers/CMSIS/Include/core_cmInstr.h **** 
 275:Drivers/CMSIS/Include/core_cmInstr.h ****     \param [in]  value  Value to be saturated
 276:Drivers/CMSIS/Include/core_cmInstr.h ****     \param [in]    sat  Bit position to saturate to (0..31)
 277:Drivers/CMSIS/Include/core_cmInstr.h ****     \return             Saturated value
 278:Drivers/CMSIS/Include/core_cmInstr.h ****  */
 279:Drivers/CMSIS/Include/core_cmInstr.h **** #define __USAT                            __usat
 280:Drivers/CMSIS/Include/core_cmInstr.h **** 
 281:Drivers/CMSIS/Include/core_cmInstr.h **** 
 282:Drivers/CMSIS/Include/core_cmInstr.h **** /** \brief  Count leading zeros
 283:Drivers/CMSIS/Include/core_cmInstr.h **** 
 284:Drivers/CMSIS/Include/core_cmInstr.h ****     This function counts the number of leading zeros of a data value.
 285:Drivers/CMSIS/Include/core_cmInstr.h **** 
 286:Drivers/CMSIS/Include/core_cmInstr.h ****     \param [in]  value  Value to count the leading zeros
 287:Drivers/CMSIS/Include/core_cmInstr.h ****     \return             number of leading zeros in value
 288:Drivers/CMSIS/Include/core_cmInstr.h ****  */
 289:Drivers/CMSIS/Include/core_cmInstr.h **** #define __CLZ                             __clz
 290:Drivers/CMSIS/Include/core_cmInstr.h **** 
 291:Drivers/CMSIS/Include/core_cmInstr.h **** #endif /* (__CORTEX_M >= 0x03) */
 292:Drivers/CMSIS/Include/core_cmInstr.h **** 
 293:Drivers/CMSIS/Include/core_cmInstr.h **** 
 294:Drivers/CMSIS/Include/core_cmInstr.h **** 
 295:Drivers/CMSIS/Include/core_cmInstr.h **** #elif defined ( __ICCARM__ ) /*------------------ ICC Compiler -------------------*/
 296:Drivers/CMSIS/Include/core_cmInstr.h **** /* IAR iccarm specific functions */
 297:Drivers/CMSIS/Include/core_cmInstr.h **** 
 298:Drivers/CMSIS/Include/core_cmInstr.h **** #include <cmsis_iar.h>
 299:Drivers/CMSIS/Include/core_cmInstr.h **** 
 300:Drivers/CMSIS/Include/core_cmInstr.h **** 
 301:Drivers/CMSIS/Include/core_cmInstr.h **** #elif defined ( __TMS470__ ) /*---------------- TI CCS Compiler ------------------*/
 302:Drivers/CMSIS/Include/core_cmInstr.h **** /* TI CCS specific functions */
 303:Drivers/CMSIS/Include/core_cmInstr.h **** 
 304:Drivers/CMSIS/Include/core_cmInstr.h **** #include <cmsis_ccs.h>
 305:Drivers/CMSIS/Include/core_cmInstr.h **** 
 306:Drivers/CMSIS/Include/core_cmInstr.h **** 
 307:Drivers/CMSIS/Include/core_cmInstr.h **** #elif defined ( __GNUC__ ) /*------------------ GNU Compiler ---------------------*/
 308:Drivers/CMSIS/Include/core_cmInstr.h **** /* GNU gcc specific functions */
 309:Drivers/CMSIS/Include/core_cmInstr.h **** 
 310:Drivers/CMSIS/Include/core_cmInstr.h **** /* Define macros for porting to both thumb1 and thumb2.
 311:Drivers/CMSIS/Include/core_cmInstr.h ****  * For thumb1, use low register (r0-r7), specified by constrant "l"
 312:Drivers/CMSIS/Include/core_cmInstr.h ****  * Otherwise, use general registers, specified by constrant "r" */
 313:Drivers/CMSIS/Include/core_cmInstr.h **** #if defined (__thumb__) && !defined (__thumb2__)
 314:Drivers/CMSIS/Include/core_cmInstr.h **** #define __CMSIS_GCC_OUT_REG(r) "=l" (r)
 315:Drivers/CMSIS/Include/core_cmInstr.h **** #define __CMSIS_GCC_USE_REG(r) "l" (r)
 316:Drivers/CMSIS/Include/core_cmInstr.h **** #else
 317:Drivers/CMSIS/Include/core_cmInstr.h **** #define __CMSIS_GCC_OUT_REG(r) "=r" (r)
 318:Drivers/CMSIS/Include/core_cmInstr.h **** #define __CMSIS_GCC_USE_REG(r) "r" (r)
 319:Drivers/CMSIS/Include/core_cmInstr.h **** #endif
 320:Drivers/CMSIS/Include/core_cmInstr.h **** 
 321:Drivers/CMSIS/Include/core_cmInstr.h **** /** \brief  No Operation
 322:Drivers/CMSIS/Include/core_cmInstr.h **** 
ARM GAS  /tmp/cc4ZCISd.s 			page 13


 323:Drivers/CMSIS/Include/core_cmInstr.h ****     No Operation does nothing. This instruction can be used for code alignment purposes.
 324:Drivers/CMSIS/Include/core_cmInstr.h ****  */
 325:Drivers/CMSIS/Include/core_cmInstr.h **** __attribute__( ( always_inline ) ) __STATIC_INLINE void __NOP(void)
 326:Drivers/CMSIS/Include/core_cmInstr.h **** {
 327:Drivers/CMSIS/Include/core_cmInstr.h ****   __ASM volatile ("nop");
 328:Drivers/CMSIS/Include/core_cmInstr.h **** }
 329:Drivers/CMSIS/Include/core_cmInstr.h **** 
 330:Drivers/CMSIS/Include/core_cmInstr.h **** 
 331:Drivers/CMSIS/Include/core_cmInstr.h **** /** \brief  Wait For Interrupt
 332:Drivers/CMSIS/Include/core_cmInstr.h **** 
 333:Drivers/CMSIS/Include/core_cmInstr.h ****     Wait For Interrupt is a hint instruction that suspends execution
 334:Drivers/CMSIS/Include/core_cmInstr.h ****     until one of a number of events occurs.
 335:Drivers/CMSIS/Include/core_cmInstr.h ****  */
 336:Drivers/CMSIS/Include/core_cmInstr.h **** __attribute__( ( always_inline ) ) __STATIC_INLINE void __WFI(void)
 337:Drivers/CMSIS/Include/core_cmInstr.h **** {
 338:Drivers/CMSIS/Include/core_cmInstr.h ****   __ASM volatile ("wfi");
 339:Drivers/CMSIS/Include/core_cmInstr.h **** }
 340:Drivers/CMSIS/Include/core_cmInstr.h **** 
 341:Drivers/CMSIS/Include/core_cmInstr.h **** 
 342:Drivers/CMSIS/Include/core_cmInstr.h **** /** \brief  Wait For Event
 343:Drivers/CMSIS/Include/core_cmInstr.h **** 
 344:Drivers/CMSIS/Include/core_cmInstr.h ****     Wait For Event is a hint instruction that permits the processor to enter
 345:Drivers/CMSIS/Include/core_cmInstr.h ****     a low-power state until one of a number of events occurs.
 346:Drivers/CMSIS/Include/core_cmInstr.h ****  */
 347:Drivers/CMSIS/Include/core_cmInstr.h **** __attribute__( ( always_inline ) ) __STATIC_INLINE void __WFE(void)
 348:Drivers/CMSIS/Include/core_cmInstr.h **** {
 349:Drivers/CMSIS/Include/core_cmInstr.h ****   __ASM volatile ("wfe");
 350:Drivers/CMSIS/Include/core_cmInstr.h **** }
 351:Drivers/CMSIS/Include/core_cmInstr.h **** 
 352:Drivers/CMSIS/Include/core_cmInstr.h **** 
 353:Drivers/CMSIS/Include/core_cmInstr.h **** /** \brief  Send Event
 354:Drivers/CMSIS/Include/core_cmInstr.h **** 
 355:Drivers/CMSIS/Include/core_cmInstr.h ****     Send Event is a hint instruction. It causes an event to be signaled to the CPU.
 356:Drivers/CMSIS/Include/core_cmInstr.h ****  */
 357:Drivers/CMSIS/Include/core_cmInstr.h **** __attribute__( ( always_inline ) ) __STATIC_INLINE void __SEV(void)
 358:Drivers/CMSIS/Include/core_cmInstr.h **** {
 359:Drivers/CMSIS/Include/core_cmInstr.h ****   __ASM volatile ("sev");
 360:Drivers/CMSIS/Include/core_cmInstr.h **** }
 361:Drivers/CMSIS/Include/core_cmInstr.h **** 
 362:Drivers/CMSIS/Include/core_cmInstr.h **** 
 363:Drivers/CMSIS/Include/core_cmInstr.h **** /** \brief  Instruction Synchronization Barrier
 364:Drivers/CMSIS/Include/core_cmInstr.h **** 
 365:Drivers/CMSIS/Include/core_cmInstr.h ****     Instruction Synchronization Barrier flushes the pipeline in the processor,
 366:Drivers/CMSIS/Include/core_cmInstr.h ****     so that all instructions following the ISB are fetched from cache or
 367:Drivers/CMSIS/Include/core_cmInstr.h ****     memory, after the instruction has been completed.
 368:Drivers/CMSIS/Include/core_cmInstr.h ****  */
 369:Drivers/CMSIS/Include/core_cmInstr.h **** __attribute__( ( always_inline ) ) __STATIC_INLINE void __ISB(void)
 370:Drivers/CMSIS/Include/core_cmInstr.h **** {
 371:Drivers/CMSIS/Include/core_cmInstr.h ****   __ASM volatile ("isb");
 372:Drivers/CMSIS/Include/core_cmInstr.h **** }
 373:Drivers/CMSIS/Include/core_cmInstr.h **** 
 374:Drivers/CMSIS/Include/core_cmInstr.h **** 
 375:Drivers/CMSIS/Include/core_cmInstr.h **** /** \brief  Data Synchronization Barrier
 376:Drivers/CMSIS/Include/core_cmInstr.h **** 
 377:Drivers/CMSIS/Include/core_cmInstr.h ****     This function acts as a special kind of Data Memory Barrier.
 378:Drivers/CMSIS/Include/core_cmInstr.h ****     It completes when all explicit memory accesses before this instruction complete.
 379:Drivers/CMSIS/Include/core_cmInstr.h ****  */
ARM GAS  /tmp/cc4ZCISd.s 			page 14


 380:Drivers/CMSIS/Include/core_cmInstr.h **** __attribute__( ( always_inline ) ) __STATIC_INLINE void __DSB(void)
 381:Drivers/CMSIS/Include/core_cmInstr.h **** {
 382:Drivers/CMSIS/Include/core_cmInstr.h ****   __ASM volatile ("dsb");
 383:Drivers/CMSIS/Include/core_cmInstr.h **** }
 384:Drivers/CMSIS/Include/core_cmInstr.h **** 
 385:Drivers/CMSIS/Include/core_cmInstr.h **** 
 386:Drivers/CMSIS/Include/core_cmInstr.h **** /** \brief  Data Memory Barrier
 387:Drivers/CMSIS/Include/core_cmInstr.h **** 
 388:Drivers/CMSIS/Include/core_cmInstr.h ****     This function ensures the apparent order of the explicit memory operations before
 389:Drivers/CMSIS/Include/core_cmInstr.h ****     and after the instruction, without ensuring their completion.
 390:Drivers/CMSIS/Include/core_cmInstr.h ****  */
 391:Drivers/CMSIS/Include/core_cmInstr.h **** __attribute__( ( always_inline ) ) __STATIC_INLINE void __DMB(void)
 392:Drivers/CMSIS/Include/core_cmInstr.h **** {
 393:Drivers/CMSIS/Include/core_cmInstr.h ****   __ASM volatile ("dmb");
 394:Drivers/CMSIS/Include/core_cmInstr.h **** }
 395:Drivers/CMSIS/Include/core_cmInstr.h **** 
 396:Drivers/CMSIS/Include/core_cmInstr.h **** 
 397:Drivers/CMSIS/Include/core_cmInstr.h **** /** \brief  Reverse byte order (32 bit)
 398:Drivers/CMSIS/Include/core_cmInstr.h **** 
 399:Drivers/CMSIS/Include/core_cmInstr.h ****     This function reverses the byte order in integer value.
 400:Drivers/CMSIS/Include/core_cmInstr.h **** 
 401:Drivers/CMSIS/Include/core_cmInstr.h ****     \param [in]    value  Value to reverse
 402:Drivers/CMSIS/Include/core_cmInstr.h ****     \return               Reversed value
 403:Drivers/CMSIS/Include/core_cmInstr.h ****  */
 404:Drivers/CMSIS/Include/core_cmInstr.h **** __attribute__( ( always_inline ) ) __STATIC_INLINE uint32_t __REV(uint32_t value)
 405:Drivers/CMSIS/Include/core_cmInstr.h **** {
 406:Drivers/CMSIS/Include/core_cmInstr.h **** #if (__GNUC__ > 4) || (__GNUC__ == 4 && __GNUC_MINOR__ >= 5)
 407:Drivers/CMSIS/Include/core_cmInstr.h ****   return __builtin_bswap32(value);
 408:Drivers/CMSIS/Include/core_cmInstr.h **** #else
 409:Drivers/CMSIS/Include/core_cmInstr.h ****   uint32_t result;
 410:Drivers/CMSIS/Include/core_cmInstr.h **** 
 411:Drivers/CMSIS/Include/core_cmInstr.h ****   __ASM volatile ("rev %0, %1" : __CMSIS_GCC_OUT_REG (result) : __CMSIS_GCC_USE_REG (value) );
 412:Drivers/CMSIS/Include/core_cmInstr.h ****   return(result);
 413:Drivers/CMSIS/Include/core_cmInstr.h **** #endif
 414:Drivers/CMSIS/Include/core_cmInstr.h **** }
 415:Drivers/CMSIS/Include/core_cmInstr.h **** 
 416:Drivers/CMSIS/Include/core_cmInstr.h **** 
 417:Drivers/CMSIS/Include/core_cmInstr.h **** /** \brief  Reverse byte order (16 bit)
 418:Drivers/CMSIS/Include/core_cmInstr.h **** 
 419:Drivers/CMSIS/Include/core_cmInstr.h ****     This function reverses the byte order in two unsigned short values.
 420:Drivers/CMSIS/Include/core_cmInstr.h **** 
 421:Drivers/CMSIS/Include/core_cmInstr.h ****     \param [in]    value  Value to reverse
 422:Drivers/CMSIS/Include/core_cmInstr.h ****     \return               Reversed value
 423:Drivers/CMSIS/Include/core_cmInstr.h ****  */
 424:Drivers/CMSIS/Include/core_cmInstr.h **** __attribute__( ( always_inline ) ) __STATIC_INLINE uint32_t __REV16(uint32_t value)
 425:Drivers/CMSIS/Include/core_cmInstr.h **** {
 426:Drivers/CMSIS/Include/core_cmInstr.h ****   uint32_t result;
 427:Drivers/CMSIS/Include/core_cmInstr.h **** 
 428:Drivers/CMSIS/Include/core_cmInstr.h ****   __ASM volatile ("rev16 %0, %1" : __CMSIS_GCC_OUT_REG (result) : __CMSIS_GCC_USE_REG (value) );
 429:Drivers/CMSIS/Include/core_cmInstr.h ****   return(result);
 430:Drivers/CMSIS/Include/core_cmInstr.h **** }
 431:Drivers/CMSIS/Include/core_cmInstr.h **** 
 432:Drivers/CMSIS/Include/core_cmInstr.h **** 
 433:Drivers/CMSIS/Include/core_cmInstr.h **** /** \brief  Reverse byte order in signed short value
 434:Drivers/CMSIS/Include/core_cmInstr.h **** 
 435:Drivers/CMSIS/Include/core_cmInstr.h ****     This function reverses the byte order in a signed short value with sign extension to integer.
 436:Drivers/CMSIS/Include/core_cmInstr.h **** 
ARM GAS  /tmp/cc4ZCISd.s 			page 15


 437:Drivers/CMSIS/Include/core_cmInstr.h ****     \param [in]    value  Value to reverse
 438:Drivers/CMSIS/Include/core_cmInstr.h ****     \return               Reversed value
 439:Drivers/CMSIS/Include/core_cmInstr.h ****  */
 440:Drivers/CMSIS/Include/core_cmInstr.h **** __attribute__( ( always_inline ) ) __STATIC_INLINE int32_t __REVSH(int32_t value)
 441:Drivers/CMSIS/Include/core_cmInstr.h **** {
 442:Drivers/CMSIS/Include/core_cmInstr.h **** #if (__GNUC__ > 4) || (__GNUC__ == 4 && __GNUC_MINOR__ >= 8)
 443:Drivers/CMSIS/Include/core_cmInstr.h ****   return (short)__builtin_bswap16(value);
 444:Drivers/CMSIS/Include/core_cmInstr.h **** #else
 445:Drivers/CMSIS/Include/core_cmInstr.h ****   uint32_t result;
 446:Drivers/CMSIS/Include/core_cmInstr.h **** 
 447:Drivers/CMSIS/Include/core_cmInstr.h ****   __ASM volatile ("revsh %0, %1" : __CMSIS_GCC_OUT_REG (result) : __CMSIS_GCC_USE_REG (value) );
 448:Drivers/CMSIS/Include/core_cmInstr.h ****   return(result);
 449:Drivers/CMSIS/Include/core_cmInstr.h **** #endif
 450:Drivers/CMSIS/Include/core_cmInstr.h **** }
 451:Drivers/CMSIS/Include/core_cmInstr.h **** 
 452:Drivers/CMSIS/Include/core_cmInstr.h **** 
 453:Drivers/CMSIS/Include/core_cmInstr.h **** /** \brief  Rotate Right in unsigned value (32 bit)
 454:Drivers/CMSIS/Include/core_cmInstr.h **** 
 455:Drivers/CMSIS/Include/core_cmInstr.h ****     This function Rotate Right (immediate) provides the value of the contents of a register rotated
 456:Drivers/CMSIS/Include/core_cmInstr.h **** 
 457:Drivers/CMSIS/Include/core_cmInstr.h ****     \param [in]    value  Value to rotate
 458:Drivers/CMSIS/Include/core_cmInstr.h ****     \param [in]    value  Number of Bits to rotate
 459:Drivers/CMSIS/Include/core_cmInstr.h ****     \return               Rotated value
 460:Drivers/CMSIS/Include/core_cmInstr.h ****  */
 461:Drivers/CMSIS/Include/core_cmInstr.h **** __attribute__( ( always_inline ) ) __STATIC_INLINE uint32_t __ROR(uint32_t op1, uint32_t op2)
 462:Drivers/CMSIS/Include/core_cmInstr.h **** {
 463:Drivers/CMSIS/Include/core_cmInstr.h ****   return (op1 >> op2) | (op1 << (32 - op2)); 
 464:Drivers/CMSIS/Include/core_cmInstr.h **** }
 465:Drivers/CMSIS/Include/core_cmInstr.h **** 
 466:Drivers/CMSIS/Include/core_cmInstr.h **** 
 467:Drivers/CMSIS/Include/core_cmInstr.h **** /** \brief  Breakpoint
 468:Drivers/CMSIS/Include/core_cmInstr.h **** 
 469:Drivers/CMSIS/Include/core_cmInstr.h ****     This function causes the processor to enter Debug state.
 470:Drivers/CMSIS/Include/core_cmInstr.h ****     Debug tools can use this to investigate system state when the instruction at a particular addre
 471:Drivers/CMSIS/Include/core_cmInstr.h **** 
 472:Drivers/CMSIS/Include/core_cmInstr.h ****     \param [in]    value  is ignored by the processor.
 473:Drivers/CMSIS/Include/core_cmInstr.h ****                    If required, a debugger can use it to store additional information about the bre
 474:Drivers/CMSIS/Include/core_cmInstr.h ****  */
 475:Drivers/CMSIS/Include/core_cmInstr.h **** #define __BKPT(value)                       __ASM volatile ("bkpt "#value)
 476:Drivers/CMSIS/Include/core_cmInstr.h **** 
 477:Drivers/CMSIS/Include/core_cmInstr.h **** 
 478:Drivers/CMSIS/Include/core_cmInstr.h **** #if       (__CORTEX_M >= 0x03)
 479:Drivers/CMSIS/Include/core_cmInstr.h **** 
 480:Drivers/CMSIS/Include/core_cmInstr.h **** /** \brief  Reverse bit order of value
 481:Drivers/CMSIS/Include/core_cmInstr.h **** 
 482:Drivers/CMSIS/Include/core_cmInstr.h ****     This function reverses the bit order of the given value.
 483:Drivers/CMSIS/Include/core_cmInstr.h **** 
 484:Drivers/CMSIS/Include/core_cmInstr.h ****     \param [in]    value  Value to reverse
 485:Drivers/CMSIS/Include/core_cmInstr.h ****     \return               Reversed value
 486:Drivers/CMSIS/Include/core_cmInstr.h ****  */
 487:Drivers/CMSIS/Include/core_cmInstr.h **** __attribute__( ( always_inline ) ) __STATIC_INLINE uint32_t __RBIT(uint32_t value)
 488:Drivers/CMSIS/Include/core_cmInstr.h **** {
 489:Drivers/CMSIS/Include/core_cmInstr.h ****   uint32_t result;
 490:Drivers/CMSIS/Include/core_cmInstr.h **** 
 491:Drivers/CMSIS/Include/core_cmInstr.h ****    __ASM volatile ("rbit %0, %1" : "=r" (result) : "r" (value) );
 191              		.loc 2 491 0
 192 00b6 3B6B     		ldr	r3, [r7, #48]
ARM GAS  /tmp/cc4ZCISd.s 			page 16


 193              		.syntax unified
 194              	@ 491 "Drivers/CMSIS/Include/core_cmInstr.h" 1
 195 00b8 93FAA3F3 		rbit r3, r3
 196              	@ 0 "" 2
 197              		.thumb
 198              		.syntax unified
 199 00bc BB61     		str	r3, [r7, #24]
 492:Drivers/CMSIS/Include/core_cmInstr.h ****    return(result);
 200              		.loc 2 492 0
 201 00be BB69     		ldr	r3, [r7, #24]
 202 00c0 3B62     		str	r3, [r7, #32]
 203              	.LBE215:
 204              	.LBE214:
 205              	.LBB216:
 206              	.LBB217:
 493:Drivers/CMSIS/Include/core_cmInstr.h **** }
 494:Drivers/CMSIS/Include/core_cmInstr.h **** 
 495:Drivers/CMSIS/Include/core_cmInstr.h **** 
 496:Drivers/CMSIS/Include/core_cmInstr.h **** /** \brief  LDR Exclusive (8 bit)
 497:Drivers/CMSIS/Include/core_cmInstr.h **** 
 498:Drivers/CMSIS/Include/core_cmInstr.h ****     This function performs a exclusive LDR command for 8 bit value.
 499:Drivers/CMSIS/Include/core_cmInstr.h **** 
 500:Drivers/CMSIS/Include/core_cmInstr.h ****     \param [in]    ptr  Pointer to data
 501:Drivers/CMSIS/Include/core_cmInstr.h ****     \return             value of type uint8_t at (*ptr)
 502:Drivers/CMSIS/Include/core_cmInstr.h ****  */
 503:Drivers/CMSIS/Include/core_cmInstr.h **** __attribute__( ( always_inline ) ) __STATIC_INLINE uint8_t __LDREXB(volatile uint8_t *addr)
 504:Drivers/CMSIS/Include/core_cmInstr.h **** {
 505:Drivers/CMSIS/Include/core_cmInstr.h ****     uint32_t result;
 506:Drivers/CMSIS/Include/core_cmInstr.h **** 
 507:Drivers/CMSIS/Include/core_cmInstr.h **** #if (__GNUC__ > 4) || (__GNUC__ == 4 && __GNUC_MINOR__ >= 8)
 508:Drivers/CMSIS/Include/core_cmInstr.h ****    __ASM volatile ("ldrexb %0, %1" : "=r" (result) : "Q" (*addr) );
 509:Drivers/CMSIS/Include/core_cmInstr.h **** #else
 510:Drivers/CMSIS/Include/core_cmInstr.h ****     /* Prior to GCC 4.8, "Q" will be expanded to [rx, #0] which is not
 511:Drivers/CMSIS/Include/core_cmInstr.h ****        accepted by assembler. So has to use following less efficient pattern.
 512:Drivers/CMSIS/Include/core_cmInstr.h ****     */
 513:Drivers/CMSIS/Include/core_cmInstr.h ****    __ASM volatile ("ldrexb %0, [%1]" : "=r" (result) : "r" (addr) : "memory" );
 514:Drivers/CMSIS/Include/core_cmInstr.h **** #endif
 515:Drivers/CMSIS/Include/core_cmInstr.h ****    return(result);
 516:Drivers/CMSIS/Include/core_cmInstr.h **** }
 517:Drivers/CMSIS/Include/core_cmInstr.h **** 
 518:Drivers/CMSIS/Include/core_cmInstr.h **** 
 519:Drivers/CMSIS/Include/core_cmInstr.h **** /** \brief  LDR Exclusive (16 bit)
 520:Drivers/CMSIS/Include/core_cmInstr.h **** 
 521:Drivers/CMSIS/Include/core_cmInstr.h ****     This function performs a exclusive LDR command for 16 bit values.
 522:Drivers/CMSIS/Include/core_cmInstr.h **** 
 523:Drivers/CMSIS/Include/core_cmInstr.h ****     \param [in]    ptr  Pointer to data
 524:Drivers/CMSIS/Include/core_cmInstr.h ****     \return        value of type uint16_t at (*ptr)
 525:Drivers/CMSIS/Include/core_cmInstr.h ****  */
 526:Drivers/CMSIS/Include/core_cmInstr.h **** __attribute__( ( always_inline ) ) __STATIC_INLINE uint16_t __LDREXH(volatile uint16_t *addr)
 527:Drivers/CMSIS/Include/core_cmInstr.h **** {
 528:Drivers/CMSIS/Include/core_cmInstr.h ****     uint32_t result;
 529:Drivers/CMSIS/Include/core_cmInstr.h **** 
 530:Drivers/CMSIS/Include/core_cmInstr.h **** #if (__GNUC__ > 4) || (__GNUC__ == 4 && __GNUC_MINOR__ >= 8)
 531:Drivers/CMSIS/Include/core_cmInstr.h ****    __ASM volatile ("ldrexh %0, %1" : "=r" (result) : "Q" (*addr) );
 532:Drivers/CMSIS/Include/core_cmInstr.h **** #else
 533:Drivers/CMSIS/Include/core_cmInstr.h ****     /* Prior to GCC 4.8, "Q" will be expanded to [rx, #0] which is not
 534:Drivers/CMSIS/Include/core_cmInstr.h ****        accepted by assembler. So has to use following less efficient pattern.
ARM GAS  /tmp/cc4ZCISd.s 			page 17


 535:Drivers/CMSIS/Include/core_cmInstr.h ****     */
 536:Drivers/CMSIS/Include/core_cmInstr.h ****    __ASM volatile ("ldrexh %0, [%1]" : "=r" (result) : "r" (addr) : "memory" );
 537:Drivers/CMSIS/Include/core_cmInstr.h **** #endif
 538:Drivers/CMSIS/Include/core_cmInstr.h ****    return(result);
 539:Drivers/CMSIS/Include/core_cmInstr.h **** }
 540:Drivers/CMSIS/Include/core_cmInstr.h **** 
 541:Drivers/CMSIS/Include/core_cmInstr.h **** 
 542:Drivers/CMSIS/Include/core_cmInstr.h **** /** \brief  LDR Exclusive (32 bit)
 543:Drivers/CMSIS/Include/core_cmInstr.h **** 
 544:Drivers/CMSIS/Include/core_cmInstr.h ****     This function performs a exclusive LDR command for 32 bit values.
 545:Drivers/CMSIS/Include/core_cmInstr.h **** 
 546:Drivers/CMSIS/Include/core_cmInstr.h ****     \param [in]    ptr  Pointer to data
 547:Drivers/CMSIS/Include/core_cmInstr.h ****     \return        value of type uint32_t at (*ptr)
 548:Drivers/CMSIS/Include/core_cmInstr.h ****  */
 549:Drivers/CMSIS/Include/core_cmInstr.h **** __attribute__( ( always_inline ) ) __STATIC_INLINE uint32_t __LDREXW(volatile uint32_t *addr)
 550:Drivers/CMSIS/Include/core_cmInstr.h **** {
 551:Drivers/CMSIS/Include/core_cmInstr.h ****     uint32_t result;
 552:Drivers/CMSIS/Include/core_cmInstr.h **** 
 553:Drivers/CMSIS/Include/core_cmInstr.h ****    __ASM volatile ("ldrex %0, %1" : "=r" (result) : "Q" (*addr) );
 554:Drivers/CMSIS/Include/core_cmInstr.h ****    return(result);
 555:Drivers/CMSIS/Include/core_cmInstr.h **** }
 556:Drivers/CMSIS/Include/core_cmInstr.h **** 
 557:Drivers/CMSIS/Include/core_cmInstr.h **** 
 558:Drivers/CMSIS/Include/core_cmInstr.h **** /** \brief  STR Exclusive (8 bit)
 559:Drivers/CMSIS/Include/core_cmInstr.h **** 
 560:Drivers/CMSIS/Include/core_cmInstr.h ****     This function performs a exclusive STR command for 8 bit values.
 561:Drivers/CMSIS/Include/core_cmInstr.h **** 
 562:Drivers/CMSIS/Include/core_cmInstr.h ****     \param [in]  value  Value to store
 563:Drivers/CMSIS/Include/core_cmInstr.h ****     \param [in]    ptr  Pointer to location
 564:Drivers/CMSIS/Include/core_cmInstr.h ****     \return          0  Function succeeded
 565:Drivers/CMSIS/Include/core_cmInstr.h ****     \return          1  Function failed
 566:Drivers/CMSIS/Include/core_cmInstr.h ****  */
 567:Drivers/CMSIS/Include/core_cmInstr.h **** __attribute__( ( always_inline ) ) __STATIC_INLINE uint32_t __STREXB(uint8_t value, volatile uint8_
 568:Drivers/CMSIS/Include/core_cmInstr.h **** {
 569:Drivers/CMSIS/Include/core_cmInstr.h ****    uint32_t result;
 570:Drivers/CMSIS/Include/core_cmInstr.h **** 
 571:Drivers/CMSIS/Include/core_cmInstr.h ****    __ASM volatile ("strexb %0, %2, %1" : "=&r" (result), "=Q" (*addr) : "r" (value) );
 572:Drivers/CMSIS/Include/core_cmInstr.h ****    return(result);
 573:Drivers/CMSIS/Include/core_cmInstr.h **** }
 574:Drivers/CMSIS/Include/core_cmInstr.h **** 
 575:Drivers/CMSIS/Include/core_cmInstr.h **** 
 576:Drivers/CMSIS/Include/core_cmInstr.h **** /** \brief  STR Exclusive (16 bit)
 577:Drivers/CMSIS/Include/core_cmInstr.h **** 
 578:Drivers/CMSIS/Include/core_cmInstr.h ****     This function performs a exclusive STR command for 16 bit values.
 579:Drivers/CMSIS/Include/core_cmInstr.h **** 
 580:Drivers/CMSIS/Include/core_cmInstr.h ****     \param [in]  value  Value to store
 581:Drivers/CMSIS/Include/core_cmInstr.h ****     \param [in]    ptr  Pointer to location
 582:Drivers/CMSIS/Include/core_cmInstr.h ****     \return          0  Function succeeded
 583:Drivers/CMSIS/Include/core_cmInstr.h ****     \return          1  Function failed
 584:Drivers/CMSIS/Include/core_cmInstr.h ****  */
 585:Drivers/CMSIS/Include/core_cmInstr.h **** __attribute__( ( always_inline ) ) __STATIC_INLINE uint32_t __STREXH(uint16_t value, volatile uint1
 586:Drivers/CMSIS/Include/core_cmInstr.h **** {
 587:Drivers/CMSIS/Include/core_cmInstr.h ****    uint32_t result;
 588:Drivers/CMSIS/Include/core_cmInstr.h **** 
 589:Drivers/CMSIS/Include/core_cmInstr.h ****    __ASM volatile ("strexh %0, %2, %1" : "=&r" (result), "=Q" (*addr) : "r" (value) );
 590:Drivers/CMSIS/Include/core_cmInstr.h ****    return(result);
 591:Drivers/CMSIS/Include/core_cmInstr.h **** }
ARM GAS  /tmp/cc4ZCISd.s 			page 18


 592:Drivers/CMSIS/Include/core_cmInstr.h **** 
 593:Drivers/CMSIS/Include/core_cmInstr.h **** 
 594:Drivers/CMSIS/Include/core_cmInstr.h **** /** \brief  STR Exclusive (32 bit)
 595:Drivers/CMSIS/Include/core_cmInstr.h **** 
 596:Drivers/CMSIS/Include/core_cmInstr.h ****     This function performs a exclusive STR command for 32 bit values.
 597:Drivers/CMSIS/Include/core_cmInstr.h **** 
 598:Drivers/CMSIS/Include/core_cmInstr.h ****     \param [in]  value  Value to store
 599:Drivers/CMSIS/Include/core_cmInstr.h ****     \param [in]    ptr  Pointer to location
 600:Drivers/CMSIS/Include/core_cmInstr.h ****     \return          0  Function succeeded
 601:Drivers/CMSIS/Include/core_cmInstr.h ****     \return          1  Function failed
 602:Drivers/CMSIS/Include/core_cmInstr.h ****  */
 603:Drivers/CMSIS/Include/core_cmInstr.h **** __attribute__( ( always_inline ) ) __STATIC_INLINE uint32_t __STREXW(uint32_t value, volatile uint3
 604:Drivers/CMSIS/Include/core_cmInstr.h **** {
 605:Drivers/CMSIS/Include/core_cmInstr.h ****    uint32_t result;
 606:Drivers/CMSIS/Include/core_cmInstr.h **** 
 607:Drivers/CMSIS/Include/core_cmInstr.h ****    __ASM volatile ("strex %0, %2, %1" : "=&r" (result), "=Q" (*addr) : "r" (value) );
 608:Drivers/CMSIS/Include/core_cmInstr.h ****    return(result);
 609:Drivers/CMSIS/Include/core_cmInstr.h **** }
 610:Drivers/CMSIS/Include/core_cmInstr.h **** 
 611:Drivers/CMSIS/Include/core_cmInstr.h **** 
 612:Drivers/CMSIS/Include/core_cmInstr.h **** /** \brief  Remove the exclusive lock
 613:Drivers/CMSIS/Include/core_cmInstr.h **** 
 614:Drivers/CMSIS/Include/core_cmInstr.h ****     This function removes the exclusive lock which is created by LDREX.
 615:Drivers/CMSIS/Include/core_cmInstr.h **** 
 616:Drivers/CMSIS/Include/core_cmInstr.h ****  */
 617:Drivers/CMSIS/Include/core_cmInstr.h **** __attribute__( ( always_inline ) ) __STATIC_INLINE void __CLREX(void)
 618:Drivers/CMSIS/Include/core_cmInstr.h **** {
 619:Drivers/CMSIS/Include/core_cmInstr.h ****   __ASM volatile ("clrex" ::: "memory");
 620:Drivers/CMSIS/Include/core_cmInstr.h **** }
 621:Drivers/CMSIS/Include/core_cmInstr.h **** 
 622:Drivers/CMSIS/Include/core_cmInstr.h **** 
 623:Drivers/CMSIS/Include/core_cmInstr.h **** /** \brief  Signed Saturate
 624:Drivers/CMSIS/Include/core_cmInstr.h **** 
 625:Drivers/CMSIS/Include/core_cmInstr.h ****     This function saturates a signed value.
 626:Drivers/CMSIS/Include/core_cmInstr.h **** 
 627:Drivers/CMSIS/Include/core_cmInstr.h ****     \param [in]  value  Value to be saturated
 628:Drivers/CMSIS/Include/core_cmInstr.h ****     \param [in]    sat  Bit position to saturate to (1..32)
 629:Drivers/CMSIS/Include/core_cmInstr.h ****     \return             Saturated value
 630:Drivers/CMSIS/Include/core_cmInstr.h ****  */
 631:Drivers/CMSIS/Include/core_cmInstr.h **** #define __SSAT(ARG1,ARG2) \
 632:Drivers/CMSIS/Include/core_cmInstr.h **** ({                          \
 633:Drivers/CMSIS/Include/core_cmInstr.h ****   uint32_t __RES, __ARG1 = (ARG1); \
 634:Drivers/CMSIS/Include/core_cmInstr.h ****   __ASM ("ssat %0, %1, %2" : "=r" (__RES) :  "I" (ARG2), "r" (__ARG1) ); \
 635:Drivers/CMSIS/Include/core_cmInstr.h ****   __RES; \
 636:Drivers/CMSIS/Include/core_cmInstr.h ****  })
 637:Drivers/CMSIS/Include/core_cmInstr.h **** 
 638:Drivers/CMSIS/Include/core_cmInstr.h **** 
 639:Drivers/CMSIS/Include/core_cmInstr.h **** /** \brief  Unsigned Saturate
 640:Drivers/CMSIS/Include/core_cmInstr.h **** 
 641:Drivers/CMSIS/Include/core_cmInstr.h ****     This function saturates an unsigned value.
 642:Drivers/CMSIS/Include/core_cmInstr.h **** 
 643:Drivers/CMSIS/Include/core_cmInstr.h ****     \param [in]  value  Value to be saturated
 644:Drivers/CMSIS/Include/core_cmInstr.h ****     \param [in]    sat  Bit position to saturate to (0..31)
 645:Drivers/CMSIS/Include/core_cmInstr.h ****     \return             Saturated value
 646:Drivers/CMSIS/Include/core_cmInstr.h ****  */
 647:Drivers/CMSIS/Include/core_cmInstr.h **** #define __USAT(ARG1,ARG2) \
 648:Drivers/CMSIS/Include/core_cmInstr.h **** ({                          \
ARM GAS  /tmp/cc4ZCISd.s 			page 19


 649:Drivers/CMSIS/Include/core_cmInstr.h ****   uint32_t __RES, __ARG1 = (ARG1); \
 650:Drivers/CMSIS/Include/core_cmInstr.h ****   __ASM ("usat %0, %1, %2" : "=r" (__RES) :  "I" (ARG2), "r" (__ARG1) ); \
 651:Drivers/CMSIS/Include/core_cmInstr.h ****   __RES; \
 652:Drivers/CMSIS/Include/core_cmInstr.h ****  })
 653:Drivers/CMSIS/Include/core_cmInstr.h **** 
 654:Drivers/CMSIS/Include/core_cmInstr.h **** 
 655:Drivers/CMSIS/Include/core_cmInstr.h **** /** \brief  Count leading zeros
 656:Drivers/CMSIS/Include/core_cmInstr.h **** 
 657:Drivers/CMSIS/Include/core_cmInstr.h ****     This function counts the number of leading zeros of a data value.
 658:Drivers/CMSIS/Include/core_cmInstr.h **** 
 659:Drivers/CMSIS/Include/core_cmInstr.h ****     \param [in]  value  Value to count the leading zeros
 660:Drivers/CMSIS/Include/core_cmInstr.h ****     \return             number of leading zeros in value
 661:Drivers/CMSIS/Include/core_cmInstr.h ****  */
 662:Drivers/CMSIS/Include/core_cmInstr.h **** __attribute__( ( always_inline ) ) __STATIC_INLINE uint8_t __CLZ(uint32_t value)
 663:Drivers/CMSIS/Include/core_cmInstr.h **** {
 664:Drivers/CMSIS/Include/core_cmInstr.h ****    uint32_t result;
 665:Drivers/CMSIS/Include/core_cmInstr.h **** 
 666:Drivers/CMSIS/Include/core_cmInstr.h ****   __ASM volatile ("clz %0, %1" : "=r" (result) : "r" (value) );
 207              		.loc 2 666 0
 208 00c2 3B6A     		ldr	r3, [r7, #32]
 209              		.syntax unified
 210              	@ 666 "Drivers/CMSIS/Include/core_cmInstr.h" 1
 211 00c4 B3FA83F3 		clz r3, r3
 212              	@ 0 "" 2
 213              		.thumb
 214              		.syntax unified
 215 00c8 FB61     		str	r3, [r7, #28]
 667:Drivers/CMSIS/Include/core_cmInstr.h ****   return(result);
 216              		.loc 2 667 0
 217 00ca FB69     		ldr	r3, [r7, #28]
 218 00cc DBB2     		uxtb	r3, r3
 219              	.LBE217:
 220              	.LBE216:
 172:Drivers/STM32F3xx_HAL_Driver/Src/stm32f3xx_hal_rcc_ex.c ****       {
 221              		.loc 1 172 0
 222 00ce 43F04003 		orr	r3, r3, #64
 223 00d2 DBB2     		uxtb	r3, r3
 224 00d4 5B09     		lsrs	r3, r3, #5
 225 00d6 DBB2     		uxtb	r3, r3
 226 00d8 012B     		cmp	r3, #1
 227 00da 02D1     		bne	.L11
 172:Drivers/STM32F3xx_HAL_Driver/Src/stm32f3xx_hal_rcc_ex.c ****       {
 228              		.loc 1 172 0 is_stmt 0 discriminator 1
 229 00dc 0D4B     		ldr	r3, .L33
 230 00de 1B68     		ldr	r3, [r3]
 231 00e0 20E0     		b	.L12
 232              	.L11:
 233 00e2 0223     		movs	r3, #2
 234 00e4 BB62     		str	r3, [r7, #40]
 235              	.LBB218:
 236              	.LBB219:
 491:Drivers/CMSIS/Include/core_cmInstr.h ****    return(result);
 237              		.loc 2 491 0 is_stmt 1 discriminator 2
 238 00e6 BB6A     		ldr	r3, [r7, #40]
 239              		.syntax unified
 240              	@ 491 "Drivers/CMSIS/Include/core_cmInstr.h" 1
 241 00e8 93FAA3F3 		rbit r3, r3
ARM GAS  /tmp/cc4ZCISd.s 			page 20


 242              	@ 0 "" 2
 243              		.thumb
 244              		.syntax unified
 245 00ec 3B61     		str	r3, [r7, #16]
 492:Drivers/CMSIS/Include/core_cmInstr.h **** }
 246              		.loc 2 492 0 discriminator 2
 247 00ee 3B69     		ldr	r3, [r7, #16]
 248 00f0 7B63     		str	r3, [r7, #52]
 249              	.LBE219:
 250              	.LBE218:
 251              	.LBB220:
 252              	.LBB221:
 666:Drivers/CMSIS/Include/core_cmInstr.h ****   return(result);
 253              		.loc 2 666 0 discriminator 2
 254 00f2 7B6B     		ldr	r3, [r7, #52]
 255              		.syntax unified
 256              	@ 666 "Drivers/CMSIS/Include/core_cmInstr.h" 1
 257 00f4 B3FA83F3 		clz r3, r3
 258              	@ 0 "" 2
 259              		.thumb
 260              		.syntax unified
 261 00f8 7B61     		str	r3, [r7, #20]
 262              		.loc 2 667 0 discriminator 2
 263 00fa 7B69     		ldr	r3, [r7, #20]
 264 00fc DBB2     		uxtb	r3, r3
 265              	.LBE221:
 266              	.LBE220:
 172:Drivers/STM32F3xx_HAL_Driver/Src/stm32f3xx_hal_rcc_ex.c ****       {
 267              		.loc 1 172 0 discriminator 2
 268 00fe 43F04003 		orr	r3, r3, #64
 269 0102 DBB2     		uxtb	r3, r3
 270 0104 5B09     		lsrs	r3, r3, #5
 271 0106 DBB2     		uxtb	r3, r3
 272 0108 022B     		cmp	r3, #2
 273 010a 09D1     		bne	.L15
 172:Drivers/STM32F3xx_HAL_Driver/Src/stm32f3xx_hal_rcc_ex.c ****       {
 274              		.loc 1 172 0 is_stmt 0 discriminator 4
 275 010c 014B     		ldr	r3, .L33
 276 010e 1B6A     		ldr	r3, [r3, #32]
 277 0110 08E0     		b	.L12
 278              	.L34:
 279 0112 00BF     		.align	2
 280              	.L33:
 281 0114 00100240 		.word	1073876992
 282 0118 00700040 		.word	1073770496
 283 011c 40044242 		.word	1111622720
 284              	.L15:
 172:Drivers/STM32F3xx_HAL_Driver/Src/stm32f3xx_hal_rcc_ex.c ****       {
 285              		.loc 1 172 0 discriminator 5
 286 0120 754B     		ldr	r3, .L35
 287 0122 5B6A     		ldr	r3, [r3, #36]
 288              	.L12:
 289 0124 0222     		movs	r2, #2
 290 0126 7A62     		str	r2, [r7, #36]
 291              	.LBB222:
 292              	.LBB223:
 491:Drivers/CMSIS/Include/core_cmInstr.h ****    return(result);
ARM GAS  /tmp/cc4ZCISd.s 			page 21


 293              		.loc 2 491 0 is_stmt 1 discriminator 8
 294 0128 7A6A     		ldr	r2, [r7, #36]
 295              		.syntax unified
 296              	@ 491 "Drivers/CMSIS/Include/core_cmInstr.h" 1
 297 012a 92FAA2F2 		rbit r2, r2
 298              	@ 0 "" 2
 299              		.thumb
 300              		.syntax unified
 301 012e BA60     		str	r2, [r7, #8]
 492:Drivers/CMSIS/Include/core_cmInstr.h **** }
 302              		.loc 2 492 0 discriminator 8
 303 0130 BA68     		ldr	r2, [r7, #8]
 304 0132 FA62     		str	r2, [r7, #44]
 305              	.LBE223:
 306              	.LBE222:
 307              	.LBB224:
 308              	.LBB225:
 666:Drivers/CMSIS/Include/core_cmInstr.h ****   return(result);
 309              		.loc 2 666 0 discriminator 8
 310 0134 FA6A     		ldr	r2, [r7, #44]
 311              		.syntax unified
 312              	@ 666 "Drivers/CMSIS/Include/core_cmInstr.h" 1
 313 0136 B2FA82F2 		clz r2, r2
 314              	@ 0 "" 2
 315              		.thumb
 316              		.syntax unified
 317 013a FA60     		str	r2, [r7, #12]
 318              		.loc 2 667 0 discriminator 8
 319 013c FA68     		ldr	r2, [r7, #12]
 320 013e D2B2     		uxtb	r2, r2
 321              	.LBE225:
 322              	.LBE224:
 172:Drivers/STM32F3xx_HAL_Driver/Src/stm32f3xx_hal_rcc_ex.c ****       {
 323              		.loc 1 172 0 discriminator 8
 324 0140 42F04002 		orr	r2, r2, #64
 325 0144 D2B2     		uxtb	r2, r2
 326 0146 02F01F02 		and	r2, r2, #31
 327 014a 0121     		movs	r1, #1
 328 014c 01FA02F2 		lsl	r2, r1, r2
 329 0150 1340     		ands	r3, r3, r2
 330 0152 002B     		cmp	r3, #0
 331 0154 A2D0     		beq	.L19
 332              	.L7:
 177:Drivers/STM32F3xx_HAL_Driver/Src/stm32f3xx_hal_rcc_ex.c ****         }      
 178:Drivers/STM32F3xx_HAL_Driver/Src/stm32f3xx_hal_rcc_ex.c ****       }  
 179:Drivers/STM32F3xx_HAL_Driver/Src/stm32f3xx_hal_rcc_ex.c ****     }
 180:Drivers/STM32F3xx_HAL_Driver/Src/stm32f3xx_hal_rcc_ex.c ****     __HAL_RCC_RTC_CONFIG(PeriphClkInit->RTCClockSelection); 
 333              		.loc 1 180 0
 334 0156 6849     		ldr	r1, .L35
 335 0158 674B     		ldr	r3, .L35
 336 015a 1B6A     		ldr	r3, [r3, #32]
 337 015c 23F44072 		bic	r2, r3, #768
 338 0160 7B68     		ldr	r3, [r7, #4]
 339 0162 5B68     		ldr	r3, [r3, #4]
 340 0164 1343     		orrs	r3, r3, r2
 341 0166 0B62     		str	r3, [r1, #32]
 342              	.L2:
ARM GAS  /tmp/cc4ZCISd.s 			page 22


 181:Drivers/STM32F3xx_HAL_Driver/Src/stm32f3xx_hal_rcc_ex.c ****   }
 182:Drivers/STM32F3xx_HAL_Driver/Src/stm32f3xx_hal_rcc_ex.c ****   
 183:Drivers/STM32F3xx_HAL_Driver/Src/stm32f3xx_hal_rcc_ex.c ****   /*------------------------------- USART1 Configuration ------------------------*/
 184:Drivers/STM32F3xx_HAL_Driver/Src/stm32f3xx_hal_rcc_ex.c ****   if(((PeriphClkInit->PeriphClockSelection) & RCC_PERIPHCLK_USART1) == RCC_PERIPHCLK_USART1)
 343              		.loc 1 184 0
 344 0168 7B68     		ldr	r3, [r7, #4]
 345 016a 1B68     		ldr	r3, [r3]
 346 016c 03F00103 		and	r3, r3, #1
 347 0170 002B     		cmp	r3, #0
 348 0172 08D0     		beq	.L20
 185:Drivers/STM32F3xx_HAL_Driver/Src/stm32f3xx_hal_rcc_ex.c ****   {
 186:Drivers/STM32F3xx_HAL_Driver/Src/stm32f3xx_hal_rcc_ex.c ****     /* Check the parameters */
 187:Drivers/STM32F3xx_HAL_Driver/Src/stm32f3xx_hal_rcc_ex.c ****     assert_param(IS_RCC_USART1CLKSOURCE(PeriphClkInit->Usart1ClockSelection));
 188:Drivers/STM32F3xx_HAL_Driver/Src/stm32f3xx_hal_rcc_ex.c ****     
 189:Drivers/STM32F3xx_HAL_Driver/Src/stm32f3xx_hal_rcc_ex.c ****     /* Configure the USART1 clock source */
 190:Drivers/STM32F3xx_HAL_Driver/Src/stm32f3xx_hal_rcc_ex.c ****     __HAL_RCC_USART1_CONFIG(PeriphClkInit->Usart1ClockSelection);
 349              		.loc 1 190 0
 350 0174 6049     		ldr	r1, .L35
 351 0176 604B     		ldr	r3, .L35
 352 0178 1B6B     		ldr	r3, [r3, #48]
 353 017a 23F00302 		bic	r2, r3, #3
 354 017e 7B68     		ldr	r3, [r7, #4]
 355 0180 9B68     		ldr	r3, [r3, #8]
 356 0182 1343     		orrs	r3, r3, r2
 357 0184 0B63     		str	r3, [r1, #48]
 358              	.L20:
 191:Drivers/STM32F3xx_HAL_Driver/Src/stm32f3xx_hal_rcc_ex.c ****   }
 192:Drivers/STM32F3xx_HAL_Driver/Src/stm32f3xx_hal_rcc_ex.c ****   
 193:Drivers/STM32F3xx_HAL_Driver/Src/stm32f3xx_hal_rcc_ex.c ****   /*----------------------------- USART2 Configuration --------------------------*/ 
 194:Drivers/STM32F3xx_HAL_Driver/Src/stm32f3xx_hal_rcc_ex.c ****   if(((PeriphClkInit->PeriphClockSelection) & RCC_PERIPHCLK_USART2) == RCC_PERIPHCLK_USART2)
 359              		.loc 1 194 0
 360 0186 7B68     		ldr	r3, [r7, #4]
 361 0188 1B68     		ldr	r3, [r3]
 362 018a 03F00203 		and	r3, r3, #2
 363 018e 002B     		cmp	r3, #0
 364 0190 08D0     		beq	.L21
 195:Drivers/STM32F3xx_HAL_Driver/Src/stm32f3xx_hal_rcc_ex.c ****   {
 196:Drivers/STM32F3xx_HAL_Driver/Src/stm32f3xx_hal_rcc_ex.c ****     /* Check the parameters */
 197:Drivers/STM32F3xx_HAL_Driver/Src/stm32f3xx_hal_rcc_ex.c ****     assert_param(IS_RCC_USART2CLKSOURCE(PeriphClkInit->Usart2ClockSelection));
 198:Drivers/STM32F3xx_HAL_Driver/Src/stm32f3xx_hal_rcc_ex.c ****     
 199:Drivers/STM32F3xx_HAL_Driver/Src/stm32f3xx_hal_rcc_ex.c ****     /* Configure the USART2 clock source */
 200:Drivers/STM32F3xx_HAL_Driver/Src/stm32f3xx_hal_rcc_ex.c ****     __HAL_RCC_USART2_CONFIG(PeriphClkInit->Usart2ClockSelection);
 365              		.loc 1 200 0
 366 0192 5949     		ldr	r1, .L35
 367 0194 584B     		ldr	r3, .L35
 368 0196 1B6B     		ldr	r3, [r3, #48]
 369 0198 23F44032 		bic	r2, r3, #196608
 370 019c 7B68     		ldr	r3, [r7, #4]
 371 019e DB68     		ldr	r3, [r3, #12]
 372 01a0 1343     		orrs	r3, r3, r2
 373 01a2 0B63     		str	r3, [r1, #48]
 374              	.L21:
 201:Drivers/STM32F3xx_HAL_Driver/Src/stm32f3xx_hal_rcc_ex.c ****   }
 202:Drivers/STM32F3xx_HAL_Driver/Src/stm32f3xx_hal_rcc_ex.c ****   
 203:Drivers/STM32F3xx_HAL_Driver/Src/stm32f3xx_hal_rcc_ex.c ****   /*------------------------------ USART3 Configuration ------------------------*/ 
 204:Drivers/STM32F3xx_HAL_Driver/Src/stm32f3xx_hal_rcc_ex.c ****   if(((PeriphClkInit->PeriphClockSelection) & RCC_PERIPHCLK_USART3) == RCC_PERIPHCLK_USART3)
 375              		.loc 1 204 0
ARM GAS  /tmp/cc4ZCISd.s 			page 23


 376 01a4 7B68     		ldr	r3, [r7, #4]
 377 01a6 1B68     		ldr	r3, [r3]
 378 01a8 03F00403 		and	r3, r3, #4
 379 01ac 002B     		cmp	r3, #0
 380 01ae 08D0     		beq	.L22
 205:Drivers/STM32F3xx_HAL_Driver/Src/stm32f3xx_hal_rcc_ex.c ****   {
 206:Drivers/STM32F3xx_HAL_Driver/Src/stm32f3xx_hal_rcc_ex.c ****     /* Check the parameters */
 207:Drivers/STM32F3xx_HAL_Driver/Src/stm32f3xx_hal_rcc_ex.c ****     assert_param(IS_RCC_USART3CLKSOURCE(PeriphClkInit->Usart3ClockSelection));
 208:Drivers/STM32F3xx_HAL_Driver/Src/stm32f3xx_hal_rcc_ex.c ****     
 209:Drivers/STM32F3xx_HAL_Driver/Src/stm32f3xx_hal_rcc_ex.c ****     /* Configure the USART3 clock source */
 210:Drivers/STM32F3xx_HAL_Driver/Src/stm32f3xx_hal_rcc_ex.c ****     __HAL_RCC_USART3_CONFIG(PeriphClkInit->Usart3ClockSelection);
 381              		.loc 1 210 0
 382 01b0 5149     		ldr	r1, .L35
 383 01b2 514B     		ldr	r3, .L35
 384 01b4 1B6B     		ldr	r3, [r3, #48]
 385 01b6 23F44022 		bic	r2, r3, #786432
 386 01ba 7B68     		ldr	r3, [r7, #4]
 387 01bc 1B69     		ldr	r3, [r3, #16]
 388 01be 1343     		orrs	r3, r3, r2
 389 01c0 0B63     		str	r3, [r1, #48]
 390              	.L22:
 211:Drivers/STM32F3xx_HAL_Driver/Src/stm32f3xx_hal_rcc_ex.c ****   }
 212:Drivers/STM32F3xx_HAL_Driver/Src/stm32f3xx_hal_rcc_ex.c **** 
 213:Drivers/STM32F3xx_HAL_Driver/Src/stm32f3xx_hal_rcc_ex.c ****   /*------------------------------ I2C1 Configuration ------------------------*/ 
 214:Drivers/STM32F3xx_HAL_Driver/Src/stm32f3xx_hal_rcc_ex.c ****   if(((PeriphClkInit->PeriphClockSelection) & RCC_PERIPHCLK_I2C1) == RCC_PERIPHCLK_I2C1)
 391              		.loc 1 214 0
 392 01c2 7B68     		ldr	r3, [r7, #4]
 393 01c4 1B68     		ldr	r3, [r3]
 394 01c6 03F02003 		and	r3, r3, #32
 395 01ca 002B     		cmp	r3, #0
 396 01cc 08D0     		beq	.L23
 215:Drivers/STM32F3xx_HAL_Driver/Src/stm32f3xx_hal_rcc_ex.c ****   {
 216:Drivers/STM32F3xx_HAL_Driver/Src/stm32f3xx_hal_rcc_ex.c ****     /* Check the parameters */
 217:Drivers/STM32F3xx_HAL_Driver/Src/stm32f3xx_hal_rcc_ex.c ****     assert_param(IS_RCC_I2C1CLKSOURCE(PeriphClkInit->I2c1ClockSelection));
 218:Drivers/STM32F3xx_HAL_Driver/Src/stm32f3xx_hal_rcc_ex.c ****     
 219:Drivers/STM32F3xx_HAL_Driver/Src/stm32f3xx_hal_rcc_ex.c ****     /* Configure the I2C1 clock source */
 220:Drivers/STM32F3xx_HAL_Driver/Src/stm32f3xx_hal_rcc_ex.c ****     __HAL_RCC_I2C1_CONFIG(PeriphClkInit->I2c1ClockSelection);
 397              		.loc 1 220 0
 398 01ce 4A49     		ldr	r1, .L35
 399 01d0 494B     		ldr	r3, .L35
 400 01d2 1B6B     		ldr	r3, [r3, #48]
 401 01d4 23F01002 		bic	r2, r3, #16
 402 01d8 7B68     		ldr	r3, [r7, #4]
 403 01da DB69     		ldr	r3, [r3, #28]
 404 01dc 1343     		orrs	r3, r3, r2
 405 01de 0B63     		str	r3, [r1, #48]
 406              	.L23:
 221:Drivers/STM32F3xx_HAL_Driver/Src/stm32f3xx_hal_rcc_ex.c ****   }
 222:Drivers/STM32F3xx_HAL_Driver/Src/stm32f3xx_hal_rcc_ex.c **** 
 223:Drivers/STM32F3xx_HAL_Driver/Src/stm32f3xx_hal_rcc_ex.c **** #if defined(STM32F302xE) || defined(STM32F303xE) || \
 224:Drivers/STM32F3xx_HAL_Driver/Src/stm32f3xx_hal_rcc_ex.c ****     defined(STM32F302xC) || defined(STM32F303xC) || \
 225:Drivers/STM32F3xx_HAL_Driver/Src/stm32f3xx_hal_rcc_ex.c ****     defined(STM32F302x8)                         || \
 226:Drivers/STM32F3xx_HAL_Driver/Src/stm32f3xx_hal_rcc_ex.c ****     defined(STM32F373xC)
 227:Drivers/STM32F3xx_HAL_Driver/Src/stm32f3xx_hal_rcc_ex.c ****   /*------------------------------ USB Configuration ------------------------*/ 
 228:Drivers/STM32F3xx_HAL_Driver/Src/stm32f3xx_hal_rcc_ex.c ****   if(((PeriphClkInit->PeriphClockSelection) & RCC_PERIPHCLK_USB) == RCC_PERIPHCLK_USB)
 407              		.loc 1 228 0
 408 01e0 7B68     		ldr	r3, [r7, #4]
ARM GAS  /tmp/cc4ZCISd.s 			page 24


 409 01e2 1B68     		ldr	r3, [r3]
 410 01e4 03F40033 		and	r3, r3, #131072
 411 01e8 002B     		cmp	r3, #0
 412 01ea 08D0     		beq	.L24
 229:Drivers/STM32F3xx_HAL_Driver/Src/stm32f3xx_hal_rcc_ex.c ****   {
 230:Drivers/STM32F3xx_HAL_Driver/Src/stm32f3xx_hal_rcc_ex.c ****     /* Check the parameters */
 231:Drivers/STM32F3xx_HAL_Driver/Src/stm32f3xx_hal_rcc_ex.c ****     assert_param(IS_RCC_USBCLKSOURCE(PeriphClkInit->USBClockSelection));
 232:Drivers/STM32F3xx_HAL_Driver/Src/stm32f3xx_hal_rcc_ex.c ****     
 233:Drivers/STM32F3xx_HAL_Driver/Src/stm32f3xx_hal_rcc_ex.c ****     /* Configure the USB clock source */
 234:Drivers/STM32F3xx_HAL_Driver/Src/stm32f3xx_hal_rcc_ex.c ****     __HAL_RCC_USB_CONFIG(PeriphClkInit->USBClockSelection);
 413              		.loc 1 234 0
 414 01ec 4249     		ldr	r1, .L35
 415 01ee 424B     		ldr	r3, .L35
 416 01f0 5B68     		ldr	r3, [r3, #4]
 417 01f2 23F48002 		bic	r2, r3, #4194304
 418 01f6 7B68     		ldr	r3, [r7, #4]
 419 01f8 9B6B     		ldr	r3, [r3, #56]
 420 01fa 1343     		orrs	r3, r3, r2
 421 01fc 4B60     		str	r3, [r1, #4]
 422              	.L24:
 235:Drivers/STM32F3xx_HAL_Driver/Src/stm32f3xx_hal_rcc_ex.c ****   }
 236:Drivers/STM32F3xx_HAL_Driver/Src/stm32f3xx_hal_rcc_ex.c **** 
 237:Drivers/STM32F3xx_HAL_Driver/Src/stm32f3xx_hal_rcc_ex.c **** #endif /* STM32F302xE || STM32F303xE || */
 238:Drivers/STM32F3xx_HAL_Driver/Src/stm32f3xx_hal_rcc_ex.c ****        /* STM32F302xC || STM32F303xC || */
 239:Drivers/STM32F3xx_HAL_Driver/Src/stm32f3xx_hal_rcc_ex.c ****        /* STM32F302x8                || */
 240:Drivers/STM32F3xx_HAL_Driver/Src/stm32f3xx_hal_rcc_ex.c ****        /* STM32F373xC                   */
 241:Drivers/STM32F3xx_HAL_Driver/Src/stm32f3xx_hal_rcc_ex.c **** 
 242:Drivers/STM32F3xx_HAL_Driver/Src/stm32f3xx_hal_rcc_ex.c **** #if defined(STM32F302xE) || defined(STM32F303xE) || defined(STM32F398xx) || \
 243:Drivers/STM32F3xx_HAL_Driver/Src/stm32f3xx_hal_rcc_ex.c ****     defined(STM32F302xC) || defined(STM32F303xC) || defined(STM32F358xx) || \
 244:Drivers/STM32F3xx_HAL_Driver/Src/stm32f3xx_hal_rcc_ex.c ****     defined(STM32F301x8) || defined(STM32F302x8) || defined(STM32F318xx) || \
 245:Drivers/STM32F3xx_HAL_Driver/Src/stm32f3xx_hal_rcc_ex.c ****     defined(STM32F373xC) || defined(STM32F378xx)
 246:Drivers/STM32F3xx_HAL_Driver/Src/stm32f3xx_hal_rcc_ex.c **** 
 247:Drivers/STM32F3xx_HAL_Driver/Src/stm32f3xx_hal_rcc_ex.c ****   /*------------------------------ I2C2 Configuration ------------------------*/ 
 248:Drivers/STM32F3xx_HAL_Driver/Src/stm32f3xx_hal_rcc_ex.c ****   if(((PeriphClkInit->PeriphClockSelection) & RCC_PERIPHCLK_I2C2) == RCC_PERIPHCLK_I2C2)
 423              		.loc 1 248 0
 424 01fe 7B68     		ldr	r3, [r7, #4]
 425 0200 1B68     		ldr	r3, [r3]
 426 0202 03F04003 		and	r3, r3, #64
 427 0206 002B     		cmp	r3, #0
 428 0208 08D0     		beq	.L25
 249:Drivers/STM32F3xx_HAL_Driver/Src/stm32f3xx_hal_rcc_ex.c ****   {
 250:Drivers/STM32F3xx_HAL_Driver/Src/stm32f3xx_hal_rcc_ex.c ****     /* Check the parameters */
 251:Drivers/STM32F3xx_HAL_Driver/Src/stm32f3xx_hal_rcc_ex.c ****     assert_param(IS_RCC_I2C2CLKSOURCE(PeriphClkInit->I2c2ClockSelection));
 252:Drivers/STM32F3xx_HAL_Driver/Src/stm32f3xx_hal_rcc_ex.c ****     
 253:Drivers/STM32F3xx_HAL_Driver/Src/stm32f3xx_hal_rcc_ex.c ****     /* Configure the I2C2 clock source */
 254:Drivers/STM32F3xx_HAL_Driver/Src/stm32f3xx_hal_rcc_ex.c ****     __HAL_RCC_I2C2_CONFIG(PeriphClkInit->I2c2ClockSelection);
 429              		.loc 1 254 0
 430 020a 3B49     		ldr	r1, .L35
 431 020c 3A4B     		ldr	r3, .L35
 432 020e 1B6B     		ldr	r3, [r3, #48]
 433 0210 23F02002 		bic	r2, r3, #32
 434 0214 7B68     		ldr	r3, [r7, #4]
 435 0216 1B6A     		ldr	r3, [r3, #32]
 436 0218 1343     		orrs	r3, r3, r2
 437 021a 0B63     		str	r3, [r1, #48]
 438              	.L25:
 255:Drivers/STM32F3xx_HAL_Driver/Src/stm32f3xx_hal_rcc_ex.c ****   }
ARM GAS  /tmp/cc4ZCISd.s 			page 25


 256:Drivers/STM32F3xx_HAL_Driver/Src/stm32f3xx_hal_rcc_ex.c **** 
 257:Drivers/STM32F3xx_HAL_Driver/Src/stm32f3xx_hal_rcc_ex.c **** #endif /* STM32F302xE || STM32F303xE || STM32F398xx || */
 258:Drivers/STM32F3xx_HAL_Driver/Src/stm32f3xx_hal_rcc_ex.c ****        /* STM32F302xC || STM32F303xC || STM32F358xx || */
 259:Drivers/STM32F3xx_HAL_Driver/Src/stm32f3xx_hal_rcc_ex.c ****        /* STM32F301x8 || STM32F302x8 || STM32F318xx || */
 260:Drivers/STM32F3xx_HAL_Driver/Src/stm32f3xx_hal_rcc_ex.c ****        /* STM32F373xC || STM32F378xx                   */
 261:Drivers/STM32F3xx_HAL_Driver/Src/stm32f3xx_hal_rcc_ex.c ****   
 262:Drivers/STM32F3xx_HAL_Driver/Src/stm32f3xx_hal_rcc_ex.c **** #if defined(STM32F302xE) || defined(STM32F303xE) || defined(STM32F398xx) || \
 263:Drivers/STM32F3xx_HAL_Driver/Src/stm32f3xx_hal_rcc_ex.c ****     defined(STM32F301x8) || defined(STM32F302x8) || defined(STM32F318xx)
 264:Drivers/STM32F3xx_HAL_Driver/Src/stm32f3xx_hal_rcc_ex.c **** 
 265:Drivers/STM32F3xx_HAL_Driver/Src/stm32f3xx_hal_rcc_ex.c ****   /*------------------------------ I2C3 Configuration ------------------------*/ 
 266:Drivers/STM32F3xx_HAL_Driver/Src/stm32f3xx_hal_rcc_ex.c ****   if(((PeriphClkInit->PeriphClockSelection) & RCC_PERIPHCLK_I2C3) == RCC_PERIPHCLK_I2C3)
 267:Drivers/STM32F3xx_HAL_Driver/Src/stm32f3xx_hal_rcc_ex.c ****   {
 268:Drivers/STM32F3xx_HAL_Driver/Src/stm32f3xx_hal_rcc_ex.c ****     /* Check the parameters */
 269:Drivers/STM32F3xx_HAL_Driver/Src/stm32f3xx_hal_rcc_ex.c ****     assert_param(IS_RCC_I2C3CLKSOURCE(PeriphClkInit->I2c3ClockSelection));
 270:Drivers/STM32F3xx_HAL_Driver/Src/stm32f3xx_hal_rcc_ex.c ****     
 271:Drivers/STM32F3xx_HAL_Driver/Src/stm32f3xx_hal_rcc_ex.c ****     /* Configure the I2C3 clock source */
 272:Drivers/STM32F3xx_HAL_Driver/Src/stm32f3xx_hal_rcc_ex.c ****     __HAL_RCC_I2C3_CONFIG(PeriphClkInit->I2c3ClockSelection);
 273:Drivers/STM32F3xx_HAL_Driver/Src/stm32f3xx_hal_rcc_ex.c ****   }
 274:Drivers/STM32F3xx_HAL_Driver/Src/stm32f3xx_hal_rcc_ex.c **** #endif /* STM32F302xE || STM32F303xE || STM32F398xx || */
 275:Drivers/STM32F3xx_HAL_Driver/Src/stm32f3xx_hal_rcc_ex.c ****        /* STM32F301x8 || STM32F302x8 || STM32F318xx    */
 276:Drivers/STM32F3xx_HAL_Driver/Src/stm32f3xx_hal_rcc_ex.c ****   
 277:Drivers/STM32F3xx_HAL_Driver/Src/stm32f3xx_hal_rcc_ex.c **** #if defined(STM32F302xE) || defined(STM32F303xE) || defined(STM32F398xx) || \
 278:Drivers/STM32F3xx_HAL_Driver/Src/stm32f3xx_hal_rcc_ex.c ****     defined(STM32F302xC) || defined(STM32F303xC) || defined(STM32F358xx)
 279:Drivers/STM32F3xx_HAL_Driver/Src/stm32f3xx_hal_rcc_ex.c **** 
 280:Drivers/STM32F3xx_HAL_Driver/Src/stm32f3xx_hal_rcc_ex.c ****   /*------------------------------ UART4 Configuration ------------------------*/ 
 281:Drivers/STM32F3xx_HAL_Driver/Src/stm32f3xx_hal_rcc_ex.c ****   if(((PeriphClkInit->PeriphClockSelection) & RCC_PERIPHCLK_UART4) == RCC_PERIPHCLK_UART4)
 439              		.loc 1 281 0
 440 021c 7B68     		ldr	r3, [r7, #4]
 441 021e 1B68     		ldr	r3, [r3]
 442 0220 03F00803 		and	r3, r3, #8
 443 0224 002B     		cmp	r3, #0
 444 0226 08D0     		beq	.L26
 282:Drivers/STM32F3xx_HAL_Driver/Src/stm32f3xx_hal_rcc_ex.c ****   {
 283:Drivers/STM32F3xx_HAL_Driver/Src/stm32f3xx_hal_rcc_ex.c ****     /* Check the parameters */
 284:Drivers/STM32F3xx_HAL_Driver/Src/stm32f3xx_hal_rcc_ex.c ****     assert_param(IS_RCC_UART4CLKSOURCE(PeriphClkInit->Uart4ClockSelection));
 285:Drivers/STM32F3xx_HAL_Driver/Src/stm32f3xx_hal_rcc_ex.c ****     
 286:Drivers/STM32F3xx_HAL_Driver/Src/stm32f3xx_hal_rcc_ex.c ****     /* Configure the UART4 clock source */
 287:Drivers/STM32F3xx_HAL_Driver/Src/stm32f3xx_hal_rcc_ex.c ****     __HAL_RCC_UART4_CONFIG(PeriphClkInit->Uart4ClockSelection);
 445              		.loc 1 287 0
 446 0228 3349     		ldr	r1, .L35
 447 022a 334B     		ldr	r3, .L35
 448 022c 1B6B     		ldr	r3, [r3, #48]
 449 022e 23F44012 		bic	r2, r3, #3145728
 450 0232 7B68     		ldr	r3, [r7, #4]
 451 0234 5B69     		ldr	r3, [r3, #20]
 452 0236 1343     		orrs	r3, r3, r2
 453 0238 0B63     		str	r3, [r1, #48]
 454              	.L26:
 288:Drivers/STM32F3xx_HAL_Driver/Src/stm32f3xx_hal_rcc_ex.c ****   }
 289:Drivers/STM32F3xx_HAL_Driver/Src/stm32f3xx_hal_rcc_ex.c **** 
 290:Drivers/STM32F3xx_HAL_Driver/Src/stm32f3xx_hal_rcc_ex.c ****   /*------------------------------ UART5 Configuration ------------------------*/ 
 291:Drivers/STM32F3xx_HAL_Driver/Src/stm32f3xx_hal_rcc_ex.c ****   if(((PeriphClkInit->PeriphClockSelection) & RCC_PERIPHCLK_UART5) == RCC_PERIPHCLK_UART5)
 455              		.loc 1 291 0
 456 023a 7B68     		ldr	r3, [r7, #4]
 457 023c 1B68     		ldr	r3, [r3]
 458 023e 03F01003 		and	r3, r3, #16
 459 0242 002B     		cmp	r3, #0
ARM GAS  /tmp/cc4ZCISd.s 			page 26


 460 0244 08D0     		beq	.L27
 292:Drivers/STM32F3xx_HAL_Driver/Src/stm32f3xx_hal_rcc_ex.c ****   {
 293:Drivers/STM32F3xx_HAL_Driver/Src/stm32f3xx_hal_rcc_ex.c ****     /* Check the parameters */
 294:Drivers/STM32F3xx_HAL_Driver/Src/stm32f3xx_hal_rcc_ex.c ****     assert_param(IS_RCC_UART5CLKSOURCE(PeriphClkInit->Uart5ClockSelection));
 295:Drivers/STM32F3xx_HAL_Driver/Src/stm32f3xx_hal_rcc_ex.c ****     
 296:Drivers/STM32F3xx_HAL_Driver/Src/stm32f3xx_hal_rcc_ex.c ****     /* Configure the UART5 clock source */
 297:Drivers/STM32F3xx_HAL_Driver/Src/stm32f3xx_hal_rcc_ex.c ****     __HAL_RCC_UART5_CONFIG(PeriphClkInit->Uart5ClockSelection);
 461              		.loc 1 297 0
 462 0246 2C49     		ldr	r1, .L35
 463 0248 2B4B     		ldr	r3, .L35
 464 024a 1B6B     		ldr	r3, [r3, #48]
 465 024c 23F44002 		bic	r2, r3, #12582912
 466 0250 7B68     		ldr	r3, [r7, #4]
 467 0252 9B69     		ldr	r3, [r3, #24]
 468 0254 1343     		orrs	r3, r3, r2
 469 0256 0B63     		str	r3, [r1, #48]
 470              	.L27:
 298:Drivers/STM32F3xx_HAL_Driver/Src/stm32f3xx_hal_rcc_ex.c ****   }
 299:Drivers/STM32F3xx_HAL_Driver/Src/stm32f3xx_hal_rcc_ex.c **** 
 300:Drivers/STM32F3xx_HAL_Driver/Src/stm32f3xx_hal_rcc_ex.c **** #endif /* STM32F302xE || STM32F303xE || STM32F398xx || */
 301:Drivers/STM32F3xx_HAL_Driver/Src/stm32f3xx_hal_rcc_ex.c ****        /* STM32F302xC || STM32F303xC || STM32F358xx    */
 302:Drivers/STM32F3xx_HAL_Driver/Src/stm32f3xx_hal_rcc_ex.c **** 
 303:Drivers/STM32F3xx_HAL_Driver/Src/stm32f3xx_hal_rcc_ex.c **** #if defined(STM32F302xE) || defined(STM32F303xE) || defined(STM32F398xx) || \
 304:Drivers/STM32F3xx_HAL_Driver/Src/stm32f3xx_hal_rcc_ex.c ****     defined(STM32F302xC) || defined(STM32F303xC) || defined(STM32F358xx) || \
 305:Drivers/STM32F3xx_HAL_Driver/Src/stm32f3xx_hal_rcc_ex.c ****     defined(STM32F301x8) || defined(STM32F302x8) || defined(STM32F318xx)
 306:Drivers/STM32F3xx_HAL_Driver/Src/stm32f3xx_hal_rcc_ex.c ****   /*------------------------------ I2S Configuration ------------------------*/ 
 307:Drivers/STM32F3xx_HAL_Driver/Src/stm32f3xx_hal_rcc_ex.c ****   if(((PeriphClkInit->PeriphClockSelection) & RCC_PERIPHCLK_I2S) == RCC_PERIPHCLK_I2S)
 471              		.loc 1 307 0
 472 0258 7B68     		ldr	r3, [r7, #4]
 473 025a 1B68     		ldr	r3, [r3]
 474 025c 03F40073 		and	r3, r3, #512
 475 0260 002B     		cmp	r3, #0
 476 0262 08D0     		beq	.L28
 308:Drivers/STM32F3xx_HAL_Driver/Src/stm32f3xx_hal_rcc_ex.c ****   {
 309:Drivers/STM32F3xx_HAL_Driver/Src/stm32f3xx_hal_rcc_ex.c ****     /* Check the parameters */
 310:Drivers/STM32F3xx_HAL_Driver/Src/stm32f3xx_hal_rcc_ex.c ****     assert_param(IS_RCC_I2SCLKSOURCE(PeriphClkInit->I2sClockSelection));
 311:Drivers/STM32F3xx_HAL_Driver/Src/stm32f3xx_hal_rcc_ex.c ****     
 312:Drivers/STM32F3xx_HAL_Driver/Src/stm32f3xx_hal_rcc_ex.c ****     /* Configure the I2S clock source */
 313:Drivers/STM32F3xx_HAL_Driver/Src/stm32f3xx_hal_rcc_ex.c ****     __HAL_RCC_I2S_CONFIG(PeriphClkInit->I2sClockSelection);
 477              		.loc 1 313 0
 478 0264 2449     		ldr	r1, .L35
 479 0266 244B     		ldr	r3, .L35
 480 0268 5B68     		ldr	r3, [r3, #4]
 481 026a 23F40002 		bic	r2, r3, #8388608
 482 026e 7B68     		ldr	r3, [r7, #4]
 483 0270 DB6A     		ldr	r3, [r3, #44]
 484 0272 1343     		orrs	r3, r3, r2
 485 0274 4B60     		str	r3, [r1, #4]
 486              	.L28:
 314:Drivers/STM32F3xx_HAL_Driver/Src/stm32f3xx_hal_rcc_ex.c ****   }
 315:Drivers/STM32F3xx_HAL_Driver/Src/stm32f3xx_hal_rcc_ex.c **** 
 316:Drivers/STM32F3xx_HAL_Driver/Src/stm32f3xx_hal_rcc_ex.c **** #endif /* STM32F302xE || STM32F303xE || STM32F398xx || */
 317:Drivers/STM32F3xx_HAL_Driver/Src/stm32f3xx_hal_rcc_ex.c ****        /* STM32F302xC || STM32F303xC || STM32F358xx || */
 318:Drivers/STM32F3xx_HAL_Driver/Src/stm32f3xx_hal_rcc_ex.c ****        /* STM32F301x8 || STM32F302x8 || STM32F318xx    */
 319:Drivers/STM32F3xx_HAL_Driver/Src/stm32f3xx_hal_rcc_ex.c ****   
 320:Drivers/STM32F3xx_HAL_Driver/Src/stm32f3xx_hal_rcc_ex.c **** #if defined(STM32F301x8) || defined(STM32F302x8) || defined(STM32F318xx)
 321:Drivers/STM32F3xx_HAL_Driver/Src/stm32f3xx_hal_rcc_ex.c ****       
ARM GAS  /tmp/cc4ZCISd.s 			page 27


 322:Drivers/STM32F3xx_HAL_Driver/Src/stm32f3xx_hal_rcc_ex.c ****   /*------------------------------ ADC1 clock Configuration ------------------*/ 
 323:Drivers/STM32F3xx_HAL_Driver/Src/stm32f3xx_hal_rcc_ex.c ****   if(((PeriphClkInit->PeriphClockSelection) & RCC_PERIPHCLK_ADC1) == RCC_PERIPHCLK_ADC1)
 324:Drivers/STM32F3xx_HAL_Driver/Src/stm32f3xx_hal_rcc_ex.c ****   {
 325:Drivers/STM32F3xx_HAL_Driver/Src/stm32f3xx_hal_rcc_ex.c ****     /* Check the parameters */
 326:Drivers/STM32F3xx_HAL_Driver/Src/stm32f3xx_hal_rcc_ex.c ****     assert_param(IS_RCC_ADC1PLLCLK_DIV(PeriphClkInit->Adc1ClockSelection));
 327:Drivers/STM32F3xx_HAL_Driver/Src/stm32f3xx_hal_rcc_ex.c ****     
 328:Drivers/STM32F3xx_HAL_Driver/Src/stm32f3xx_hal_rcc_ex.c ****     /* Configure the ADC1 clock source */
 329:Drivers/STM32F3xx_HAL_Driver/Src/stm32f3xx_hal_rcc_ex.c ****     __HAL_RCC_ADC1_CONFIG(PeriphClkInit->Adc1ClockSelection);
 330:Drivers/STM32F3xx_HAL_Driver/Src/stm32f3xx_hal_rcc_ex.c ****   }
 331:Drivers/STM32F3xx_HAL_Driver/Src/stm32f3xx_hal_rcc_ex.c **** 
 332:Drivers/STM32F3xx_HAL_Driver/Src/stm32f3xx_hal_rcc_ex.c **** #endif /* STM32F301x8 || STM32F302x8 || STM32F318xx */
 333:Drivers/STM32F3xx_HAL_Driver/Src/stm32f3xx_hal_rcc_ex.c ****   
 334:Drivers/STM32F3xx_HAL_Driver/Src/stm32f3xx_hal_rcc_ex.c **** #if defined(STM32F302xE) || defined(STM32F303xE) || defined(STM32F398xx) || \
 335:Drivers/STM32F3xx_HAL_Driver/Src/stm32f3xx_hal_rcc_ex.c ****     defined(STM32F302xC) || defined(STM32F303xC) || defined(STM32F358xx) || \
 336:Drivers/STM32F3xx_HAL_Driver/Src/stm32f3xx_hal_rcc_ex.c ****     defined(STM32F303x8) || defined(STM32F334x8) || defined(STM32F328xx)
 337:Drivers/STM32F3xx_HAL_Driver/Src/stm32f3xx_hal_rcc_ex.c ****       
 338:Drivers/STM32F3xx_HAL_Driver/Src/stm32f3xx_hal_rcc_ex.c ****   /*------------------------------ ADC1 & ADC2 clock Configuration -------------*/ 
 339:Drivers/STM32F3xx_HAL_Driver/Src/stm32f3xx_hal_rcc_ex.c ****   if(((PeriphClkInit->PeriphClockSelection) & RCC_PERIPHCLK_ADC12) == RCC_PERIPHCLK_ADC12)
 487              		.loc 1 339 0
 488 0276 7B68     		ldr	r3, [r7, #4]
 489 0278 1B68     		ldr	r3, [r3]
 490 027a 03F08003 		and	r3, r3, #128
 491 027e 002B     		cmp	r3, #0
 492 0280 08D0     		beq	.L29
 340:Drivers/STM32F3xx_HAL_Driver/Src/stm32f3xx_hal_rcc_ex.c ****   {
 341:Drivers/STM32F3xx_HAL_Driver/Src/stm32f3xx_hal_rcc_ex.c ****     /* Check the parameters */
 342:Drivers/STM32F3xx_HAL_Driver/Src/stm32f3xx_hal_rcc_ex.c ****     assert_param(IS_RCC_ADC12PLLCLK_DIV(PeriphClkInit->Adc12ClockSelection));
 343:Drivers/STM32F3xx_HAL_Driver/Src/stm32f3xx_hal_rcc_ex.c ****     
 344:Drivers/STM32F3xx_HAL_Driver/Src/stm32f3xx_hal_rcc_ex.c ****     /* Configure the ADC12 clock source */
 345:Drivers/STM32F3xx_HAL_Driver/Src/stm32f3xx_hal_rcc_ex.c ****     __HAL_RCC_ADC12_CONFIG(PeriphClkInit->Adc12ClockSelection);
 493              		.loc 1 345 0
 494 0282 1D49     		ldr	r1, .L35
 495 0284 1C4B     		ldr	r3, .L35
 496 0286 DB6A     		ldr	r3, [r3, #44]
 497 0288 23F4F872 		bic	r2, r3, #496
 498 028c 7B68     		ldr	r3, [r7, #4]
 499 028e 5B6A     		ldr	r3, [r3, #36]
 500 0290 1343     		orrs	r3, r3, r2
 501 0292 CB62     		str	r3, [r1, #44]
 502              	.L29:
 346:Drivers/STM32F3xx_HAL_Driver/Src/stm32f3xx_hal_rcc_ex.c ****   }
 347:Drivers/STM32F3xx_HAL_Driver/Src/stm32f3xx_hal_rcc_ex.c **** 
 348:Drivers/STM32F3xx_HAL_Driver/Src/stm32f3xx_hal_rcc_ex.c **** #endif /* STM32F302xE || STM32F303xE || STM32F398xx || */
 349:Drivers/STM32F3xx_HAL_Driver/Src/stm32f3xx_hal_rcc_ex.c ****        /* STM32F302xC || STM32F303xC || STM32F358xx || */
 350:Drivers/STM32F3xx_HAL_Driver/Src/stm32f3xx_hal_rcc_ex.c ****        /* STM32F303x8 || STM32F334x8 || STM32F328xx    */    
 351:Drivers/STM32F3xx_HAL_Driver/Src/stm32f3xx_hal_rcc_ex.c ****   
 352:Drivers/STM32F3xx_HAL_Driver/Src/stm32f3xx_hal_rcc_ex.c **** #if defined(STM32F303xE) || defined(STM32F398xx) || \
 353:Drivers/STM32F3xx_HAL_Driver/Src/stm32f3xx_hal_rcc_ex.c ****     defined(STM32F303xC) || defined(STM32F358xx)
 354:Drivers/STM32F3xx_HAL_Driver/Src/stm32f3xx_hal_rcc_ex.c **** 
 355:Drivers/STM32F3xx_HAL_Driver/Src/stm32f3xx_hal_rcc_ex.c ****   /*------------------------------ ADC3 & ADC4 clock Configuration -------------*/ 
 356:Drivers/STM32F3xx_HAL_Driver/Src/stm32f3xx_hal_rcc_ex.c ****   if(((PeriphClkInit->PeriphClockSelection) & RCC_PERIPHCLK_ADC34) == RCC_PERIPHCLK_ADC34)
 503              		.loc 1 356 0
 504 0294 7B68     		ldr	r3, [r7, #4]
 505 0296 1B68     		ldr	r3, [r3]
 506 0298 03F48073 		and	r3, r3, #256
 507 029c 002B     		cmp	r3, #0
 508 029e 08D0     		beq	.L30
ARM GAS  /tmp/cc4ZCISd.s 			page 28


 357:Drivers/STM32F3xx_HAL_Driver/Src/stm32f3xx_hal_rcc_ex.c ****   {
 358:Drivers/STM32F3xx_HAL_Driver/Src/stm32f3xx_hal_rcc_ex.c ****     /* Check the parameters */
 359:Drivers/STM32F3xx_HAL_Driver/Src/stm32f3xx_hal_rcc_ex.c ****     assert_param(IS_RCC_ADC34PLLCLK_DIV(PeriphClkInit->Adc34ClockSelection));
 360:Drivers/STM32F3xx_HAL_Driver/Src/stm32f3xx_hal_rcc_ex.c ****     
 361:Drivers/STM32F3xx_HAL_Driver/Src/stm32f3xx_hal_rcc_ex.c ****     /* Configure the ADC34 clock source */
 362:Drivers/STM32F3xx_HAL_Driver/Src/stm32f3xx_hal_rcc_ex.c ****     __HAL_RCC_ADC34_CONFIG(PeriphClkInit->Adc34ClockSelection);
 509              		.loc 1 362 0
 510 02a0 1549     		ldr	r1, .L35
 511 02a2 154B     		ldr	r3, .L35
 512 02a4 DB6A     		ldr	r3, [r3, #44]
 513 02a6 23F47852 		bic	r2, r3, #15872
 514 02aa 7B68     		ldr	r3, [r7, #4]
 515 02ac 9B6A     		ldr	r3, [r3, #40]
 516 02ae 1343     		orrs	r3, r3, r2
 517 02b0 CB62     		str	r3, [r1, #44]
 518              	.L30:
 363:Drivers/STM32F3xx_HAL_Driver/Src/stm32f3xx_hal_rcc_ex.c ****   }
 364:Drivers/STM32F3xx_HAL_Driver/Src/stm32f3xx_hal_rcc_ex.c **** 
 365:Drivers/STM32F3xx_HAL_Driver/Src/stm32f3xx_hal_rcc_ex.c **** #endif /* STM32F303xE || STM32F398xx || */
 366:Drivers/STM32F3xx_HAL_Driver/Src/stm32f3xx_hal_rcc_ex.c ****        /* STM32F303xC || STM32F358xx    */
 367:Drivers/STM32F3xx_HAL_Driver/Src/stm32f3xx_hal_rcc_ex.c **** 
 368:Drivers/STM32F3xx_HAL_Driver/Src/stm32f3xx_hal_rcc_ex.c **** #if defined(STM32F373xC) || defined(STM32F378xx)
 369:Drivers/STM32F3xx_HAL_Driver/Src/stm32f3xx_hal_rcc_ex.c ****       
 370:Drivers/STM32F3xx_HAL_Driver/Src/stm32f3xx_hal_rcc_ex.c ****   /*------------------------------ ADC1 clock Configuration ------------------*/ 
 371:Drivers/STM32F3xx_HAL_Driver/Src/stm32f3xx_hal_rcc_ex.c ****   if(((PeriphClkInit->PeriphClockSelection) & RCC_PERIPHCLK_ADC1) == RCC_PERIPHCLK_ADC1)
 372:Drivers/STM32F3xx_HAL_Driver/Src/stm32f3xx_hal_rcc_ex.c ****   {
 373:Drivers/STM32F3xx_HAL_Driver/Src/stm32f3xx_hal_rcc_ex.c ****     /* Check the parameters */
 374:Drivers/STM32F3xx_HAL_Driver/Src/stm32f3xx_hal_rcc_ex.c ****     assert_param(IS_RCC_ADC1PCLK2_DIV(PeriphClkInit->Adc1ClockSelection));
 375:Drivers/STM32F3xx_HAL_Driver/Src/stm32f3xx_hal_rcc_ex.c ****     
 376:Drivers/STM32F3xx_HAL_Driver/Src/stm32f3xx_hal_rcc_ex.c ****     /* Configure the ADC1 clock source */
 377:Drivers/STM32F3xx_HAL_Driver/Src/stm32f3xx_hal_rcc_ex.c ****     __HAL_RCC_ADC1_CONFIG(PeriphClkInit->Adc1ClockSelection);
 378:Drivers/STM32F3xx_HAL_Driver/Src/stm32f3xx_hal_rcc_ex.c ****   }
 379:Drivers/STM32F3xx_HAL_Driver/Src/stm32f3xx_hal_rcc_ex.c **** 
 380:Drivers/STM32F3xx_HAL_Driver/Src/stm32f3xx_hal_rcc_ex.c **** #endif /* STM32F373xC || STM32F378xx */
 381:Drivers/STM32F3xx_HAL_Driver/Src/stm32f3xx_hal_rcc_ex.c **** 
 382:Drivers/STM32F3xx_HAL_Driver/Src/stm32f3xx_hal_rcc_ex.c **** #if defined(STM32F302xE) || defined(STM32F303xE) || defined(STM32F398xx) || \
 383:Drivers/STM32F3xx_HAL_Driver/Src/stm32f3xx_hal_rcc_ex.c ****     defined(STM32F302xC) || defined(STM32F303xC) || defined(STM32F358xx) || \
 384:Drivers/STM32F3xx_HAL_Driver/Src/stm32f3xx_hal_rcc_ex.c ****     defined(STM32F303x8) || defined(STM32F334x8) || defined(STM32F328xx) || \
 385:Drivers/STM32F3xx_HAL_Driver/Src/stm32f3xx_hal_rcc_ex.c ****     defined(STM32F301x8) || defined(STM32F302x8) || defined(STM32F318xx)
 386:Drivers/STM32F3xx_HAL_Driver/Src/stm32f3xx_hal_rcc_ex.c **** 
 387:Drivers/STM32F3xx_HAL_Driver/Src/stm32f3xx_hal_rcc_ex.c ****   /*------------------------------ TIM1 clock Configuration ----------------*/ 
 388:Drivers/STM32F3xx_HAL_Driver/Src/stm32f3xx_hal_rcc_ex.c ****   if(((PeriphClkInit->PeriphClockSelection) & RCC_PERIPHCLK_TIM1) == RCC_PERIPHCLK_TIM1)
 519              		.loc 1 388 0
 520 02b2 7B68     		ldr	r3, [r7, #4]
 521 02b4 1B68     		ldr	r3, [r3]
 522 02b6 03F48053 		and	r3, r3, #4096
 523 02ba 002B     		cmp	r3, #0
 524 02bc 08D0     		beq	.L31
 389:Drivers/STM32F3xx_HAL_Driver/Src/stm32f3xx_hal_rcc_ex.c ****   {
 390:Drivers/STM32F3xx_HAL_Driver/Src/stm32f3xx_hal_rcc_ex.c ****     /* Check the parameters */
 391:Drivers/STM32F3xx_HAL_Driver/Src/stm32f3xx_hal_rcc_ex.c ****     assert_param(IS_RCC_TIM1CLKSOURCE(PeriphClkInit->Tim1ClockSelection));
 392:Drivers/STM32F3xx_HAL_Driver/Src/stm32f3xx_hal_rcc_ex.c ****     
 393:Drivers/STM32F3xx_HAL_Driver/Src/stm32f3xx_hal_rcc_ex.c ****     /* Configure the TIM1 clock source */
 394:Drivers/STM32F3xx_HAL_Driver/Src/stm32f3xx_hal_rcc_ex.c ****     __HAL_RCC_TIM1_CONFIG(PeriphClkInit->Tim1ClockSelection);
 525              		.loc 1 394 0
 526 02be 0E49     		ldr	r1, .L35
 527 02c0 0D4B     		ldr	r3, .L35
ARM GAS  /tmp/cc4ZCISd.s 			page 29


 528 02c2 1B6B     		ldr	r3, [r3, #48]
 529 02c4 23F48072 		bic	r2, r3, #256
 530 02c8 7B68     		ldr	r3, [r7, #4]
 531 02ca 1B6B     		ldr	r3, [r3, #48]
 532 02cc 1343     		orrs	r3, r3, r2
 533 02ce 0B63     		str	r3, [r1, #48]
 534              	.L31:
 395:Drivers/STM32F3xx_HAL_Driver/Src/stm32f3xx_hal_rcc_ex.c ****   }
 396:Drivers/STM32F3xx_HAL_Driver/Src/stm32f3xx_hal_rcc_ex.c **** 
 397:Drivers/STM32F3xx_HAL_Driver/Src/stm32f3xx_hal_rcc_ex.c **** #endif /* STM32F302xE || STM32F303xE || STM32F398xx || */
 398:Drivers/STM32F3xx_HAL_Driver/Src/stm32f3xx_hal_rcc_ex.c ****        /* STM32F302xC || STM32F303xC || STM32F358xx || */
 399:Drivers/STM32F3xx_HAL_Driver/Src/stm32f3xx_hal_rcc_ex.c ****        /* STM32F303x8 || STM32F334x8 || STM32F328xx || */
 400:Drivers/STM32F3xx_HAL_Driver/Src/stm32f3xx_hal_rcc_ex.c ****        /* STM32F301x8 || STM32F302x8 || STM32F318xx    */
 401:Drivers/STM32F3xx_HAL_Driver/Src/stm32f3xx_hal_rcc_ex.c ****   
 402:Drivers/STM32F3xx_HAL_Driver/Src/stm32f3xx_hal_rcc_ex.c **** #if defined(STM32F303xE) || defined(STM32F398xx) || \
 403:Drivers/STM32F3xx_HAL_Driver/Src/stm32f3xx_hal_rcc_ex.c ****     defined(STM32F303xC) || defined(STM32F358xx)
 404:Drivers/STM32F3xx_HAL_Driver/Src/stm32f3xx_hal_rcc_ex.c **** 
 405:Drivers/STM32F3xx_HAL_Driver/Src/stm32f3xx_hal_rcc_ex.c ****   /*------------------------------ TIM8 clock Configuration ----------------*/ 
 406:Drivers/STM32F3xx_HAL_Driver/Src/stm32f3xx_hal_rcc_ex.c ****   if(((PeriphClkInit->PeriphClockSelection) & RCC_PERIPHCLK_TIM8) == RCC_PERIPHCLK_TIM8)
 535              		.loc 1 406 0
 536 02d0 7B68     		ldr	r3, [r7, #4]
 537 02d2 1B68     		ldr	r3, [r3]
 538 02d4 03F40053 		and	r3, r3, #8192
 539 02d8 002B     		cmp	r3, #0
 540 02da 08D0     		beq	.L32
 407:Drivers/STM32F3xx_HAL_Driver/Src/stm32f3xx_hal_rcc_ex.c ****   {
 408:Drivers/STM32F3xx_HAL_Driver/Src/stm32f3xx_hal_rcc_ex.c ****     /* Check the parameters */
 409:Drivers/STM32F3xx_HAL_Driver/Src/stm32f3xx_hal_rcc_ex.c ****     assert_param(IS_RCC_TIM8CLKSOURCE(PeriphClkInit->Tim8ClockSelection));
 410:Drivers/STM32F3xx_HAL_Driver/Src/stm32f3xx_hal_rcc_ex.c ****     
 411:Drivers/STM32F3xx_HAL_Driver/Src/stm32f3xx_hal_rcc_ex.c ****     /* Configure the TIM8 clock source */
 412:Drivers/STM32F3xx_HAL_Driver/Src/stm32f3xx_hal_rcc_ex.c ****     __HAL_RCC_TIM8_CONFIG(PeriphClkInit->Tim8ClockSelection);
 541              		.loc 1 412 0
 542 02dc 0649     		ldr	r1, .L35
 543 02de 064B     		ldr	r3, .L35
 544 02e0 1B6B     		ldr	r3, [r3, #48]
 545 02e2 23F40072 		bic	r2, r3, #512
 546 02e6 7B68     		ldr	r3, [r7, #4]
 547 02e8 5B6B     		ldr	r3, [r3, #52]
 548 02ea 1343     		orrs	r3, r3, r2
 549 02ec 0B63     		str	r3, [r1, #48]
 550              	.L32:
 413:Drivers/STM32F3xx_HAL_Driver/Src/stm32f3xx_hal_rcc_ex.c ****   }
 414:Drivers/STM32F3xx_HAL_Driver/Src/stm32f3xx_hal_rcc_ex.c **** 
 415:Drivers/STM32F3xx_HAL_Driver/Src/stm32f3xx_hal_rcc_ex.c **** #endif /* STM32F303xE || STM32F398xx || */
 416:Drivers/STM32F3xx_HAL_Driver/Src/stm32f3xx_hal_rcc_ex.c ****        /* STM32F303xC || STM32F358xx    */
 417:Drivers/STM32F3xx_HAL_Driver/Src/stm32f3xx_hal_rcc_ex.c **** 
 418:Drivers/STM32F3xx_HAL_Driver/Src/stm32f3xx_hal_rcc_ex.c **** #if defined(STM32F301x8) || defined(STM32F302x8) || defined(STM32F318xx)
 419:Drivers/STM32F3xx_HAL_Driver/Src/stm32f3xx_hal_rcc_ex.c **** 
 420:Drivers/STM32F3xx_HAL_Driver/Src/stm32f3xx_hal_rcc_ex.c ****   /*------------------------------ TIM15 clock Configuration ----------------*/ 
 421:Drivers/STM32F3xx_HAL_Driver/Src/stm32f3xx_hal_rcc_ex.c ****   if(((PeriphClkInit->PeriphClockSelection) & RCC_PERIPHCLK_TIM15) == RCC_PERIPHCLK_TIM15)
 422:Drivers/STM32F3xx_HAL_Driver/Src/stm32f3xx_hal_rcc_ex.c ****   {
 423:Drivers/STM32F3xx_HAL_Driver/Src/stm32f3xx_hal_rcc_ex.c ****     /* Check the parameters */
 424:Drivers/STM32F3xx_HAL_Driver/Src/stm32f3xx_hal_rcc_ex.c ****     assert_param(IS_RCC_TIM15CLKSOURCE(PeriphClkInit->Tim15ClockSelection));
 425:Drivers/STM32F3xx_HAL_Driver/Src/stm32f3xx_hal_rcc_ex.c ****     
 426:Drivers/STM32F3xx_HAL_Driver/Src/stm32f3xx_hal_rcc_ex.c ****     /* Configure the TIM15 clock source */
 427:Drivers/STM32F3xx_HAL_Driver/Src/stm32f3xx_hal_rcc_ex.c ****     __HAL_RCC_TIM15_CONFIG(PeriphClkInit->Tim15ClockSelection);
 428:Drivers/STM32F3xx_HAL_Driver/Src/stm32f3xx_hal_rcc_ex.c ****   }
ARM GAS  /tmp/cc4ZCISd.s 			page 30


 429:Drivers/STM32F3xx_HAL_Driver/Src/stm32f3xx_hal_rcc_ex.c **** 
 430:Drivers/STM32F3xx_HAL_Driver/Src/stm32f3xx_hal_rcc_ex.c ****   /*------------------------------ TIM16 clock Configuration ----------------*/ 
 431:Drivers/STM32F3xx_HAL_Driver/Src/stm32f3xx_hal_rcc_ex.c ****   if(((PeriphClkInit->PeriphClockSelection) & RCC_PERIPHCLK_TIM16) == RCC_PERIPHCLK_TIM16)
 432:Drivers/STM32F3xx_HAL_Driver/Src/stm32f3xx_hal_rcc_ex.c ****   {
 433:Drivers/STM32F3xx_HAL_Driver/Src/stm32f3xx_hal_rcc_ex.c ****     /* Check the parameters */
 434:Drivers/STM32F3xx_HAL_Driver/Src/stm32f3xx_hal_rcc_ex.c ****     assert_param(IS_RCC_TIM16CLKSOURCE(PeriphClkInit->Tim16ClockSelection));
 435:Drivers/STM32F3xx_HAL_Driver/Src/stm32f3xx_hal_rcc_ex.c ****     
 436:Drivers/STM32F3xx_HAL_Driver/Src/stm32f3xx_hal_rcc_ex.c ****     /* Configure the TIM16 clock source */
 437:Drivers/STM32F3xx_HAL_Driver/Src/stm32f3xx_hal_rcc_ex.c ****     __HAL_RCC_TIM16_CONFIG(PeriphClkInit->Tim16ClockSelection);
 438:Drivers/STM32F3xx_HAL_Driver/Src/stm32f3xx_hal_rcc_ex.c ****   }
 439:Drivers/STM32F3xx_HAL_Driver/Src/stm32f3xx_hal_rcc_ex.c **** 
 440:Drivers/STM32F3xx_HAL_Driver/Src/stm32f3xx_hal_rcc_ex.c ****   /*------------------------------ TIM17 clock Configuration ----------------*/ 
 441:Drivers/STM32F3xx_HAL_Driver/Src/stm32f3xx_hal_rcc_ex.c ****   if(((PeriphClkInit->PeriphClockSelection) & RCC_PERIPHCLK_TIM17) == RCC_PERIPHCLK_TIM17)
 442:Drivers/STM32F3xx_HAL_Driver/Src/stm32f3xx_hal_rcc_ex.c ****   {
 443:Drivers/STM32F3xx_HAL_Driver/Src/stm32f3xx_hal_rcc_ex.c ****     /* Check the parameters */
 444:Drivers/STM32F3xx_HAL_Driver/Src/stm32f3xx_hal_rcc_ex.c ****     assert_param(IS_RCC_TIM17CLKSOURCE(PeriphClkInit->Tim17ClockSelection));
 445:Drivers/STM32F3xx_HAL_Driver/Src/stm32f3xx_hal_rcc_ex.c ****     
 446:Drivers/STM32F3xx_HAL_Driver/Src/stm32f3xx_hal_rcc_ex.c ****     /* Configure the TIM17 clock source */
 447:Drivers/STM32F3xx_HAL_Driver/Src/stm32f3xx_hal_rcc_ex.c ****     __HAL_RCC_TIM17_CONFIG(PeriphClkInit->Tim17ClockSelection);
 448:Drivers/STM32F3xx_HAL_Driver/Src/stm32f3xx_hal_rcc_ex.c ****   }
 449:Drivers/STM32F3xx_HAL_Driver/Src/stm32f3xx_hal_rcc_ex.c **** 
 450:Drivers/STM32F3xx_HAL_Driver/Src/stm32f3xx_hal_rcc_ex.c **** #endif /* STM32F301x8 || STM32F302x8 || STM32F318xx */
 451:Drivers/STM32F3xx_HAL_Driver/Src/stm32f3xx_hal_rcc_ex.c **** 
 452:Drivers/STM32F3xx_HAL_Driver/Src/stm32f3xx_hal_rcc_ex.c **** #if defined(STM32F334x8)
 453:Drivers/STM32F3xx_HAL_Driver/Src/stm32f3xx_hal_rcc_ex.c **** 
 454:Drivers/STM32F3xx_HAL_Driver/Src/stm32f3xx_hal_rcc_ex.c ****   /*------------------------------ HRTIM1 clock Configuration ----------------*/ 
 455:Drivers/STM32F3xx_HAL_Driver/Src/stm32f3xx_hal_rcc_ex.c ****   if(((PeriphClkInit->PeriphClockSelection) & RCC_PERIPHCLK_HRTIM1) == RCC_PERIPHCLK_HRTIM1)
 456:Drivers/STM32F3xx_HAL_Driver/Src/stm32f3xx_hal_rcc_ex.c ****   {
 457:Drivers/STM32F3xx_HAL_Driver/Src/stm32f3xx_hal_rcc_ex.c ****     /* Check the parameters */
 458:Drivers/STM32F3xx_HAL_Driver/Src/stm32f3xx_hal_rcc_ex.c ****     assert_param(IS_RCC_HRTIM1CLKSOURCE(PeriphClkInit->Hrtim1ClockSelection));
 459:Drivers/STM32F3xx_HAL_Driver/Src/stm32f3xx_hal_rcc_ex.c ****     
 460:Drivers/STM32F3xx_HAL_Driver/Src/stm32f3xx_hal_rcc_ex.c ****     /* Configure the HRTIM1 clock source */
 461:Drivers/STM32F3xx_HAL_Driver/Src/stm32f3xx_hal_rcc_ex.c ****     __HAL_RCC_HRTIM1_CONFIG(PeriphClkInit->Hrtim1ClockSelection);
 462:Drivers/STM32F3xx_HAL_Driver/Src/stm32f3xx_hal_rcc_ex.c ****   }
 463:Drivers/STM32F3xx_HAL_Driver/Src/stm32f3xx_hal_rcc_ex.c **** 
 464:Drivers/STM32F3xx_HAL_Driver/Src/stm32f3xx_hal_rcc_ex.c **** #endif /* STM32F334x8 */
 465:Drivers/STM32F3xx_HAL_Driver/Src/stm32f3xx_hal_rcc_ex.c **** 
 466:Drivers/STM32F3xx_HAL_Driver/Src/stm32f3xx_hal_rcc_ex.c **** #if defined(STM32F373xC) || defined(STM32F378xx)
 467:Drivers/STM32F3xx_HAL_Driver/Src/stm32f3xx_hal_rcc_ex.c ****   
 468:Drivers/STM32F3xx_HAL_Driver/Src/stm32f3xx_hal_rcc_ex.c ****   /*------------------------------ SDADC clock Configuration -------------------*/ 
 469:Drivers/STM32F3xx_HAL_Driver/Src/stm32f3xx_hal_rcc_ex.c ****   if(((PeriphClkInit->PeriphClockSelection) & RCC_PERIPHCLK_SDADC) == RCC_PERIPHCLK_SDADC)
 470:Drivers/STM32F3xx_HAL_Driver/Src/stm32f3xx_hal_rcc_ex.c ****   {
 471:Drivers/STM32F3xx_HAL_Driver/Src/stm32f3xx_hal_rcc_ex.c ****     /* Check the parameters */
 472:Drivers/STM32F3xx_HAL_Driver/Src/stm32f3xx_hal_rcc_ex.c ****     assert_param(IS_RCC_SDADCSYSCLK_DIV(PeriphClkInit->SdadcClockSelection));
 473:Drivers/STM32F3xx_HAL_Driver/Src/stm32f3xx_hal_rcc_ex.c ****     
 474:Drivers/STM32F3xx_HAL_Driver/Src/stm32f3xx_hal_rcc_ex.c ****     /* Configure the SDADC clock prescaler */
 475:Drivers/STM32F3xx_HAL_Driver/Src/stm32f3xx_hal_rcc_ex.c ****     __HAL_RCC_SDADC_CONFIG(PeriphClkInit->SdadcClockSelection);
 476:Drivers/STM32F3xx_HAL_Driver/Src/stm32f3xx_hal_rcc_ex.c ****   }
 477:Drivers/STM32F3xx_HAL_Driver/Src/stm32f3xx_hal_rcc_ex.c **** 
 478:Drivers/STM32F3xx_HAL_Driver/Src/stm32f3xx_hal_rcc_ex.c ****   /*------------------------------ CEC clock Configuration -------------------*/ 
 479:Drivers/STM32F3xx_HAL_Driver/Src/stm32f3xx_hal_rcc_ex.c ****   if(((PeriphClkInit->PeriphClockSelection) & RCC_PERIPHCLK_CEC) == RCC_PERIPHCLK_CEC)
 480:Drivers/STM32F3xx_HAL_Driver/Src/stm32f3xx_hal_rcc_ex.c ****   {
 481:Drivers/STM32F3xx_HAL_Driver/Src/stm32f3xx_hal_rcc_ex.c ****     /* Check the parameters */
 482:Drivers/STM32F3xx_HAL_Driver/Src/stm32f3xx_hal_rcc_ex.c ****     assert_param(IS_RCC_CECCLKSOURCE(PeriphClkInit->CecClockSelection));
 483:Drivers/STM32F3xx_HAL_Driver/Src/stm32f3xx_hal_rcc_ex.c ****     
 484:Drivers/STM32F3xx_HAL_Driver/Src/stm32f3xx_hal_rcc_ex.c ****     /* Configure the CEC clock source */
 485:Drivers/STM32F3xx_HAL_Driver/Src/stm32f3xx_hal_rcc_ex.c ****     __HAL_RCC_CEC_CONFIG(PeriphClkInit->CecClockSelection);
ARM GAS  /tmp/cc4ZCISd.s 			page 31


 486:Drivers/STM32F3xx_HAL_Driver/Src/stm32f3xx_hal_rcc_ex.c ****   }
 487:Drivers/STM32F3xx_HAL_Driver/Src/stm32f3xx_hal_rcc_ex.c **** 
 488:Drivers/STM32F3xx_HAL_Driver/Src/stm32f3xx_hal_rcc_ex.c **** #endif /* STM32F373xC || STM32F378xx */
 489:Drivers/STM32F3xx_HAL_Driver/Src/stm32f3xx_hal_rcc_ex.c ****   
 490:Drivers/STM32F3xx_HAL_Driver/Src/stm32f3xx_hal_rcc_ex.c **** #if defined(STM32F302xE) || defined(STM32F303xE) || defined(STM32F398xx)
 491:Drivers/STM32F3xx_HAL_Driver/Src/stm32f3xx_hal_rcc_ex.c ****   
 492:Drivers/STM32F3xx_HAL_Driver/Src/stm32f3xx_hal_rcc_ex.c ****   /*------------------------------ TIM2 clock Configuration -------------------*/ 
 493:Drivers/STM32F3xx_HAL_Driver/Src/stm32f3xx_hal_rcc_ex.c ****   if(((PeriphClkInit->PeriphClockSelection) & RCC_PERIPHCLK_TIM2) == RCC_PERIPHCLK_TIM2)
 494:Drivers/STM32F3xx_HAL_Driver/Src/stm32f3xx_hal_rcc_ex.c ****   {
 495:Drivers/STM32F3xx_HAL_Driver/Src/stm32f3xx_hal_rcc_ex.c ****     /* Check the parameters */
 496:Drivers/STM32F3xx_HAL_Driver/Src/stm32f3xx_hal_rcc_ex.c ****     assert_param(IS_RCC_TIM2CLKSOURCE(PeriphClkInit->Tim2ClockSelection));
 497:Drivers/STM32F3xx_HAL_Driver/Src/stm32f3xx_hal_rcc_ex.c ****     
 498:Drivers/STM32F3xx_HAL_Driver/Src/stm32f3xx_hal_rcc_ex.c ****     /* Configure the CEC clock source */
 499:Drivers/STM32F3xx_HAL_Driver/Src/stm32f3xx_hal_rcc_ex.c ****     __HAL_RCC_TIM2_CONFIG(PeriphClkInit->Tim2ClockSelection);
 500:Drivers/STM32F3xx_HAL_Driver/Src/stm32f3xx_hal_rcc_ex.c ****   }
 501:Drivers/STM32F3xx_HAL_Driver/Src/stm32f3xx_hal_rcc_ex.c **** 
 502:Drivers/STM32F3xx_HAL_Driver/Src/stm32f3xx_hal_rcc_ex.c ****   /*------------------------------ TIM3 clock Configuration -------------------*/ 
 503:Drivers/STM32F3xx_HAL_Driver/Src/stm32f3xx_hal_rcc_ex.c ****   if(((PeriphClkInit->PeriphClockSelection) & RCC_PERIPHCLK_TIM34) == RCC_PERIPHCLK_TIM34)
 504:Drivers/STM32F3xx_HAL_Driver/Src/stm32f3xx_hal_rcc_ex.c ****   {
 505:Drivers/STM32F3xx_HAL_Driver/Src/stm32f3xx_hal_rcc_ex.c ****     /* Check the parameters */
 506:Drivers/STM32F3xx_HAL_Driver/Src/stm32f3xx_hal_rcc_ex.c ****     assert_param(IS_RCC_TIM3CLKSOURCE(PeriphClkInit->Tim34ClockSelection));
 507:Drivers/STM32F3xx_HAL_Driver/Src/stm32f3xx_hal_rcc_ex.c ****     
 508:Drivers/STM32F3xx_HAL_Driver/Src/stm32f3xx_hal_rcc_ex.c ****     /* Configure the CEC clock source */
 509:Drivers/STM32F3xx_HAL_Driver/Src/stm32f3xx_hal_rcc_ex.c ****     __HAL_RCC_TIM34_CONFIG(PeriphClkInit->Tim34ClockSelection);
 510:Drivers/STM32F3xx_HAL_Driver/Src/stm32f3xx_hal_rcc_ex.c ****   }
 511:Drivers/STM32F3xx_HAL_Driver/Src/stm32f3xx_hal_rcc_ex.c **** 
 512:Drivers/STM32F3xx_HAL_Driver/Src/stm32f3xx_hal_rcc_ex.c ****   /*------------------------------ TIM15 clock Configuration ------------------*/ 
 513:Drivers/STM32F3xx_HAL_Driver/Src/stm32f3xx_hal_rcc_ex.c ****   if(((PeriphClkInit->PeriphClockSelection) & RCC_PERIPHCLK_TIM15) == RCC_PERIPHCLK_TIM15)
 514:Drivers/STM32F3xx_HAL_Driver/Src/stm32f3xx_hal_rcc_ex.c ****   {
 515:Drivers/STM32F3xx_HAL_Driver/Src/stm32f3xx_hal_rcc_ex.c ****     /* Check the parameters */
 516:Drivers/STM32F3xx_HAL_Driver/Src/stm32f3xx_hal_rcc_ex.c ****     assert_param(IS_RCC_TIM15CLKSOURCE(PeriphClkInit->Tim15ClockSelection));
 517:Drivers/STM32F3xx_HAL_Driver/Src/stm32f3xx_hal_rcc_ex.c ****     
 518:Drivers/STM32F3xx_HAL_Driver/Src/stm32f3xx_hal_rcc_ex.c ****     /* Configure the CEC clock source */
 519:Drivers/STM32F3xx_HAL_Driver/Src/stm32f3xx_hal_rcc_ex.c ****     __HAL_RCC_TIM15_CONFIG(PeriphClkInit->Tim15ClockSelection);
 520:Drivers/STM32F3xx_HAL_Driver/Src/stm32f3xx_hal_rcc_ex.c ****   }
 521:Drivers/STM32F3xx_HAL_Driver/Src/stm32f3xx_hal_rcc_ex.c **** 
 522:Drivers/STM32F3xx_HAL_Driver/Src/stm32f3xx_hal_rcc_ex.c ****   /*------------------------------ TIM16 clock Configuration ------------------*/ 
 523:Drivers/STM32F3xx_HAL_Driver/Src/stm32f3xx_hal_rcc_ex.c ****   if(((PeriphClkInit->PeriphClockSelection) & RCC_PERIPHCLK_TIM16) == RCC_PERIPHCLK_TIM16)
 524:Drivers/STM32F3xx_HAL_Driver/Src/stm32f3xx_hal_rcc_ex.c ****   {
 525:Drivers/STM32F3xx_HAL_Driver/Src/stm32f3xx_hal_rcc_ex.c ****     /* Check the parameters */
 526:Drivers/STM32F3xx_HAL_Driver/Src/stm32f3xx_hal_rcc_ex.c ****     assert_param(IS_RCC_TIM16CLKSOURCE(PeriphClkInit->Tim16ClockSelection));
 527:Drivers/STM32F3xx_HAL_Driver/Src/stm32f3xx_hal_rcc_ex.c ****     
 528:Drivers/STM32F3xx_HAL_Driver/Src/stm32f3xx_hal_rcc_ex.c ****     /* Configure the CEC clock source */
 529:Drivers/STM32F3xx_HAL_Driver/Src/stm32f3xx_hal_rcc_ex.c ****     __HAL_RCC_TIM16_CONFIG(PeriphClkInit->Tim16ClockSelection);
 530:Drivers/STM32F3xx_HAL_Driver/Src/stm32f3xx_hal_rcc_ex.c ****   }
 531:Drivers/STM32F3xx_HAL_Driver/Src/stm32f3xx_hal_rcc_ex.c **** 
 532:Drivers/STM32F3xx_HAL_Driver/Src/stm32f3xx_hal_rcc_ex.c ****   /*------------------------------ TIM17 clock Configuration ------------------*/ 
 533:Drivers/STM32F3xx_HAL_Driver/Src/stm32f3xx_hal_rcc_ex.c ****   if(((PeriphClkInit->PeriphClockSelection) & RCC_PERIPHCLK_TIM17) == RCC_PERIPHCLK_TIM17)
 534:Drivers/STM32F3xx_HAL_Driver/Src/stm32f3xx_hal_rcc_ex.c ****   {
 535:Drivers/STM32F3xx_HAL_Driver/Src/stm32f3xx_hal_rcc_ex.c ****     /* Check the parameters */
 536:Drivers/STM32F3xx_HAL_Driver/Src/stm32f3xx_hal_rcc_ex.c ****     assert_param(IS_RCC_TIM17CLKSOURCE(PeriphClkInit->Tim17ClockSelection));
 537:Drivers/STM32F3xx_HAL_Driver/Src/stm32f3xx_hal_rcc_ex.c ****     
 538:Drivers/STM32F3xx_HAL_Driver/Src/stm32f3xx_hal_rcc_ex.c ****     /* Configure the CEC clock source */
 539:Drivers/STM32F3xx_HAL_Driver/Src/stm32f3xx_hal_rcc_ex.c ****     __HAL_RCC_TIM17_CONFIG(PeriphClkInit->Tim17ClockSelection);
 540:Drivers/STM32F3xx_HAL_Driver/Src/stm32f3xx_hal_rcc_ex.c ****   }
 541:Drivers/STM32F3xx_HAL_Driver/Src/stm32f3xx_hal_rcc_ex.c **** 
 542:Drivers/STM32F3xx_HAL_Driver/Src/stm32f3xx_hal_rcc_ex.c **** #endif /* STM32F302xE || STM32F303xE || STM32F398xx */  
ARM GAS  /tmp/cc4ZCISd.s 			page 32


 543:Drivers/STM32F3xx_HAL_Driver/Src/stm32f3xx_hal_rcc_ex.c **** 
 544:Drivers/STM32F3xx_HAL_Driver/Src/stm32f3xx_hal_rcc_ex.c **** #if defined(STM32F303xE) || defined(STM32F398xx)
 545:Drivers/STM32F3xx_HAL_Driver/Src/stm32f3xx_hal_rcc_ex.c ****   /*------------------------------ TIM20 clock Configuration ------------------*/ 
 546:Drivers/STM32F3xx_HAL_Driver/Src/stm32f3xx_hal_rcc_ex.c ****   if(((PeriphClkInit->PeriphClockSelection) & RCC_PERIPHCLK_TIM20) == RCC_PERIPHCLK_TIM20)
 547:Drivers/STM32F3xx_HAL_Driver/Src/stm32f3xx_hal_rcc_ex.c ****   {
 548:Drivers/STM32F3xx_HAL_Driver/Src/stm32f3xx_hal_rcc_ex.c ****     /* Check the parameters */
 549:Drivers/STM32F3xx_HAL_Driver/Src/stm32f3xx_hal_rcc_ex.c ****     assert_param(IS_RCC_TIM20CLKSOURCE(PeriphClkInit->Tim20ClockSelection));
 550:Drivers/STM32F3xx_HAL_Driver/Src/stm32f3xx_hal_rcc_ex.c ****     
 551:Drivers/STM32F3xx_HAL_Driver/Src/stm32f3xx_hal_rcc_ex.c ****     /* Configure the CEC clock source */
 552:Drivers/STM32F3xx_HAL_Driver/Src/stm32f3xx_hal_rcc_ex.c ****     __HAL_RCC_TIM20_CONFIG(PeriphClkInit->Tim20ClockSelection);
 553:Drivers/STM32F3xx_HAL_Driver/Src/stm32f3xx_hal_rcc_ex.c ****   }
 554:Drivers/STM32F3xx_HAL_Driver/Src/stm32f3xx_hal_rcc_ex.c **** #endif /* STM32F303xE || STM32F398xx */  
 555:Drivers/STM32F3xx_HAL_Driver/Src/stm32f3xx_hal_rcc_ex.c **** 
 556:Drivers/STM32F3xx_HAL_Driver/Src/stm32f3xx_hal_rcc_ex.c ****   
 557:Drivers/STM32F3xx_HAL_Driver/Src/stm32f3xx_hal_rcc_ex.c ****   return HAL_OK;
 551              		.loc 1 557 0
 552 02ee 0023     		movs	r3, #0
 553              	.L4:
 558:Drivers/STM32F3xx_HAL_Driver/Src/stm32f3xx_hal_rcc_ex.c **** }
 554              		.loc 1 558 0
 555 02f0 1846     		mov	r0, r3
 556 02f2 4037     		adds	r7, r7, #64
 557              	.LCFI3:
 558              		.cfi_def_cfa_offset 8
 559 02f4 BD46     		mov	sp, r7
 560              	.LCFI4:
 561              		.cfi_def_cfa_register 13
 562              		@ sp needed
 563 02f6 80BD     		pop	{r7, pc}
 564              	.L36:
 565              		.align	2
 566              	.L35:
 567 02f8 00100240 		.word	1073876992
 568              		.cfi_endproc
 569              	.LFE112:
 571              		.section	.text.HAL_RCCEx_GetPeriphCLKConfig,"ax",%progbits
 572              		.align	2
 573              		.global	HAL_RCCEx_GetPeriphCLKConfig
 574              		.thumb
 575              		.thumb_func
 577              	HAL_RCCEx_GetPeriphCLKConfig:
 578              	.LFB113:
 559:Drivers/STM32F3xx_HAL_Driver/Src/stm32f3xx_hal_rcc_ex.c **** 
 560:Drivers/STM32F3xx_HAL_Driver/Src/stm32f3xx_hal_rcc_ex.c **** /**
 561:Drivers/STM32F3xx_HAL_Driver/Src/stm32f3xx_hal_rcc_ex.c ****   * @brief  Get the RCC_ClkInitStruct according to the internal
 562:Drivers/STM32F3xx_HAL_Driver/Src/stm32f3xx_hal_rcc_ex.c ****   * RCC configuration registers.
 563:Drivers/STM32F3xx_HAL_Driver/Src/stm32f3xx_hal_rcc_ex.c ****   * @param  PeriphClkInit: pointer to an RCC_PeriphCLKInitTypeDef structure that
 564:Drivers/STM32F3xx_HAL_Driver/Src/stm32f3xx_hal_rcc_ex.c ****   *         returns the configuration information for the Extended Peripherals clocks
 565:Drivers/STM32F3xx_HAL_Driver/Src/stm32f3xx_hal_rcc_ex.c ****   *         (ADC, CEC, I2C, I2S, SDADC, HRTIM, TIM, USART, RTC and USB clocks).
 566:Drivers/STM32F3xx_HAL_Driver/Src/stm32f3xx_hal_rcc_ex.c ****   * @retval None
 567:Drivers/STM32F3xx_HAL_Driver/Src/stm32f3xx_hal_rcc_ex.c ****   */
 568:Drivers/STM32F3xx_HAL_Driver/Src/stm32f3xx_hal_rcc_ex.c **** void HAL_RCCEx_GetPeriphCLKConfig(RCC_PeriphCLKInitTypeDef  *PeriphClkInit)
 569:Drivers/STM32F3xx_HAL_Driver/Src/stm32f3xx_hal_rcc_ex.c **** {
 579              		.loc 1 569 0
 580              		.cfi_startproc
 581              		@ args = 0, pretend = 0, frame = 8
 582              		@ frame_needed = 1, uses_anonymous_args = 0
ARM GAS  /tmp/cc4ZCISd.s 			page 33


 583              		@ link register save eliminated.
 584 0000 80B4     		push	{r7}
 585              	.LCFI5:
 586              		.cfi_def_cfa_offset 4
 587              		.cfi_offset 7, -4
 588 0002 83B0     		sub	sp, sp, #12
 589              	.LCFI6:
 590              		.cfi_def_cfa_offset 16
 591 0004 00AF     		add	r7, sp, #0
 592              	.LCFI7:
 593              		.cfi_def_cfa_register 7
 594 0006 7860     		str	r0, [r7, #4]
 570:Drivers/STM32F3xx_HAL_Driver/Src/stm32f3xx_hal_rcc_ex.c ****   /* Set all possible values for the extended clock type parameter------------*/
 571:Drivers/STM32F3xx_HAL_Driver/Src/stm32f3xx_hal_rcc_ex.c ****   /* Common part first */
 572:Drivers/STM32F3xx_HAL_Driver/Src/stm32f3xx_hal_rcc_ex.c ****   PeriphClkInit->PeriphClockSelection = RCC_PERIPHCLK_USART1 | RCC_PERIPHCLK_USART2 | RCC_PERIPHCLK
 595              		.loc 1 572 0
 596 0008 7B68     		ldr	r3, [r7, #4]
 597 000a 464A     		ldr	r2, .L38
 598 000c 1A60     		str	r2, [r3]
 573:Drivers/STM32F3xx_HAL_Driver/Src/stm32f3xx_hal_rcc_ex.c ****                                         RCC_PERIPHCLK_I2C1   | RCC_PERIPHCLK_RTC;
 574:Drivers/STM32F3xx_HAL_Driver/Src/stm32f3xx_hal_rcc_ex.c ****   
 575:Drivers/STM32F3xx_HAL_Driver/Src/stm32f3xx_hal_rcc_ex.c ****   /* Get the RTC configuration --------------------------------------------*/
 576:Drivers/STM32F3xx_HAL_Driver/Src/stm32f3xx_hal_rcc_ex.c ****   PeriphClkInit->RTCClockSelection = __HAL_RCC_GET_RTC_SOURCE();
 599              		.loc 1 576 0
 600 000e 464B     		ldr	r3, .L38+4
 601 0010 1B6A     		ldr	r3, [r3, #32]
 602 0012 03F44072 		and	r2, r3, #768
 603 0016 7B68     		ldr	r3, [r7, #4]
 604 0018 5A60     		str	r2, [r3, #4]
 577:Drivers/STM32F3xx_HAL_Driver/Src/stm32f3xx_hal_rcc_ex.c ****   /* Get the USART1 clock configuration --------------------------------------------*/
 578:Drivers/STM32F3xx_HAL_Driver/Src/stm32f3xx_hal_rcc_ex.c ****   PeriphClkInit->Usart1ClockSelection = __HAL_RCC_GET_USART1_SOURCE();
 605              		.loc 1 578 0
 606 001a 434B     		ldr	r3, .L38+4
 607 001c 1B6B     		ldr	r3, [r3, #48]
 608 001e 03F00302 		and	r2, r3, #3
 609 0022 7B68     		ldr	r3, [r7, #4]
 610 0024 9A60     		str	r2, [r3, #8]
 579:Drivers/STM32F3xx_HAL_Driver/Src/stm32f3xx_hal_rcc_ex.c ****   /* Get the USART2 clock configuration -----------------------------------------*/
 580:Drivers/STM32F3xx_HAL_Driver/Src/stm32f3xx_hal_rcc_ex.c ****   PeriphClkInit->Usart2ClockSelection = __HAL_RCC_GET_USART2_SOURCE();
 611              		.loc 1 580 0
 612 0026 404B     		ldr	r3, .L38+4
 613 0028 1B6B     		ldr	r3, [r3, #48]
 614 002a 03F44032 		and	r2, r3, #196608
 615 002e 7B68     		ldr	r3, [r7, #4]
 616 0030 DA60     		str	r2, [r3, #12]
 581:Drivers/STM32F3xx_HAL_Driver/Src/stm32f3xx_hal_rcc_ex.c ****    /* Get the USART3 clock configuration -----------------------------------------*/
 582:Drivers/STM32F3xx_HAL_Driver/Src/stm32f3xx_hal_rcc_ex.c ****   PeriphClkInit->Usart3ClockSelection = __HAL_RCC_GET_USART3_SOURCE();
 617              		.loc 1 582 0
 618 0032 3D4B     		ldr	r3, .L38+4
 619 0034 1B6B     		ldr	r3, [r3, #48]
 620 0036 03F44022 		and	r2, r3, #786432
 621 003a 7B68     		ldr	r3, [r7, #4]
 622 003c 1A61     		str	r2, [r3, #16]
 583:Drivers/STM32F3xx_HAL_Driver/Src/stm32f3xx_hal_rcc_ex.c ****   /* Get the I2C1 clock configuration -----------------------------------------*/
 584:Drivers/STM32F3xx_HAL_Driver/Src/stm32f3xx_hal_rcc_ex.c ****   PeriphClkInit->I2c1ClockSelection = __HAL_RCC_GET_I2C1_SOURCE();
 623              		.loc 1 584 0
 624 003e 3A4B     		ldr	r3, .L38+4
ARM GAS  /tmp/cc4ZCISd.s 			page 34


 625 0040 1B6B     		ldr	r3, [r3, #48]
 626 0042 03F01002 		and	r2, r3, #16
 627 0046 7B68     		ldr	r3, [r7, #4]
 628 0048 DA61     		str	r2, [r3, #28]
 585:Drivers/STM32F3xx_HAL_Driver/Src/stm32f3xx_hal_rcc_ex.c **** 
 586:Drivers/STM32F3xx_HAL_Driver/Src/stm32f3xx_hal_rcc_ex.c **** #if defined(STM32F302xE) || defined(STM32F303xE) || \
 587:Drivers/STM32F3xx_HAL_Driver/Src/stm32f3xx_hal_rcc_ex.c ****     defined(STM32F302xC) || defined(STM32F303xC) || \
 588:Drivers/STM32F3xx_HAL_Driver/Src/stm32f3xx_hal_rcc_ex.c ****     defined(STM32F302x8)                         || \
 589:Drivers/STM32F3xx_HAL_Driver/Src/stm32f3xx_hal_rcc_ex.c ****     defined(STM32F373xC)
 590:Drivers/STM32F3xx_HAL_Driver/Src/stm32f3xx_hal_rcc_ex.c **** 
 591:Drivers/STM32F3xx_HAL_Driver/Src/stm32f3xx_hal_rcc_ex.c ****   PeriphClkInit->PeriphClockSelection |= RCC_PERIPHCLK_USB;
 629              		.loc 1 591 0
 630 004a 7B68     		ldr	r3, [r7, #4]
 631 004c 1B68     		ldr	r3, [r3]
 632 004e 43F40032 		orr	r2, r3, #131072
 633 0052 7B68     		ldr	r3, [r7, #4]
 634 0054 1A60     		str	r2, [r3]
 592:Drivers/STM32F3xx_HAL_Driver/Src/stm32f3xx_hal_rcc_ex.c ****   /* Get the USB clock configuration -----------------------------------------*/
 593:Drivers/STM32F3xx_HAL_Driver/Src/stm32f3xx_hal_rcc_ex.c ****   PeriphClkInit->USBClockSelection = __HAL_RCC_GET_USB_SOURCE();
 635              		.loc 1 593 0
 636 0056 344B     		ldr	r3, .L38+4
 637 0058 5B68     		ldr	r3, [r3, #4]
 638 005a 03F48002 		and	r2, r3, #4194304
 639 005e 7B68     		ldr	r3, [r7, #4]
 640 0060 9A63     		str	r2, [r3, #56]
 594:Drivers/STM32F3xx_HAL_Driver/Src/stm32f3xx_hal_rcc_ex.c **** 
 595:Drivers/STM32F3xx_HAL_Driver/Src/stm32f3xx_hal_rcc_ex.c **** #endif /* STM32F302xE || STM32F303xE || */
 596:Drivers/STM32F3xx_HAL_Driver/Src/stm32f3xx_hal_rcc_ex.c ****        /* STM32F302xC || STM32F303xC || */
 597:Drivers/STM32F3xx_HAL_Driver/Src/stm32f3xx_hal_rcc_ex.c ****        /* STM32F302x8                || */
 598:Drivers/STM32F3xx_HAL_Driver/Src/stm32f3xx_hal_rcc_ex.c ****        /* STM32F373xC                   */
 599:Drivers/STM32F3xx_HAL_Driver/Src/stm32f3xx_hal_rcc_ex.c **** 
 600:Drivers/STM32F3xx_HAL_Driver/Src/stm32f3xx_hal_rcc_ex.c **** #if defined(STM32F302xE) || defined(STM32F303xE) || defined(STM32F398xx) || \
 601:Drivers/STM32F3xx_HAL_Driver/Src/stm32f3xx_hal_rcc_ex.c ****     defined(STM32F302xC) || defined(STM32F303xC) || defined(STM32F358xx) || \
 602:Drivers/STM32F3xx_HAL_Driver/Src/stm32f3xx_hal_rcc_ex.c ****     defined(STM32F301x8) || defined(STM32F302x8) || defined(STM32F318xx) || \
 603:Drivers/STM32F3xx_HAL_Driver/Src/stm32f3xx_hal_rcc_ex.c ****     defined(STM32F373xC) || defined(STM32F378xx)
 604:Drivers/STM32F3xx_HAL_Driver/Src/stm32f3xx_hal_rcc_ex.c **** 
 605:Drivers/STM32F3xx_HAL_Driver/Src/stm32f3xx_hal_rcc_ex.c ****   PeriphClkInit->PeriphClockSelection |= RCC_PERIPHCLK_I2C2;
 641              		.loc 1 605 0
 642 0062 7B68     		ldr	r3, [r7, #4]
 643 0064 1B68     		ldr	r3, [r3]
 644 0066 43F04002 		orr	r2, r3, #64
 645 006a 7B68     		ldr	r3, [r7, #4]
 646 006c 1A60     		str	r2, [r3]
 606:Drivers/STM32F3xx_HAL_Driver/Src/stm32f3xx_hal_rcc_ex.c ****   /* Get the I2C2 clock configuration -----------------------------------------*/
 607:Drivers/STM32F3xx_HAL_Driver/Src/stm32f3xx_hal_rcc_ex.c ****   PeriphClkInit->I2c2ClockSelection = __HAL_RCC_GET_I2C2_SOURCE();
 647              		.loc 1 607 0
 648 006e 2E4B     		ldr	r3, .L38+4
 649 0070 1B6B     		ldr	r3, [r3, #48]
 650 0072 03F02002 		and	r2, r3, #32
 651 0076 7B68     		ldr	r3, [r7, #4]
 652 0078 1A62     		str	r2, [r3, #32]
 608:Drivers/STM32F3xx_HAL_Driver/Src/stm32f3xx_hal_rcc_ex.c **** 
 609:Drivers/STM32F3xx_HAL_Driver/Src/stm32f3xx_hal_rcc_ex.c **** #endif /* STM32F302xE || STM32F303xE || STM32F398xx || */
 610:Drivers/STM32F3xx_HAL_Driver/Src/stm32f3xx_hal_rcc_ex.c ****        /* STM32F302xC || STM32F303xC || STM32F358xx || */
 611:Drivers/STM32F3xx_HAL_Driver/Src/stm32f3xx_hal_rcc_ex.c ****        /* STM32F301x8 || STM32F302x8 || STM32F318xx || */
 612:Drivers/STM32F3xx_HAL_Driver/Src/stm32f3xx_hal_rcc_ex.c ****        /* STM32F373xC || STM32F378xx                   */
 613:Drivers/STM32F3xx_HAL_Driver/Src/stm32f3xx_hal_rcc_ex.c ****   
ARM GAS  /tmp/cc4ZCISd.s 			page 35


 614:Drivers/STM32F3xx_HAL_Driver/Src/stm32f3xx_hal_rcc_ex.c **** #if defined(STM32F302xE) || defined(STM32F303xE) || defined(STM32F398xx) || \
 615:Drivers/STM32F3xx_HAL_Driver/Src/stm32f3xx_hal_rcc_ex.c ****     defined(STM32F301x8) || defined(STM32F302x8) || defined(STM32F318xx)
 616:Drivers/STM32F3xx_HAL_Driver/Src/stm32f3xx_hal_rcc_ex.c **** 
 617:Drivers/STM32F3xx_HAL_Driver/Src/stm32f3xx_hal_rcc_ex.c ****   PeriphClkInit->PeriphClockSelection |= RCC_PERIPHCLK_I2C3;
 618:Drivers/STM32F3xx_HAL_Driver/Src/stm32f3xx_hal_rcc_ex.c ****   /* Get the I2C3 clock configuration -----------------------------------------*/
 619:Drivers/STM32F3xx_HAL_Driver/Src/stm32f3xx_hal_rcc_ex.c ****   PeriphClkInit->I2c3ClockSelection = __HAL_RCC_GET_I2C3_SOURCE();
 620:Drivers/STM32F3xx_HAL_Driver/Src/stm32f3xx_hal_rcc_ex.c **** 
 621:Drivers/STM32F3xx_HAL_Driver/Src/stm32f3xx_hal_rcc_ex.c **** #endif /* STM32F302xE || STM32F303xE || STM32F398xx || */
 622:Drivers/STM32F3xx_HAL_Driver/Src/stm32f3xx_hal_rcc_ex.c ****        /* STM32F301x8 || STM32F302x8 || STM32F318xx    */
 623:Drivers/STM32F3xx_HAL_Driver/Src/stm32f3xx_hal_rcc_ex.c ****   
 624:Drivers/STM32F3xx_HAL_Driver/Src/stm32f3xx_hal_rcc_ex.c **** #if defined(STM32F302xE) || defined(STM32F303xE) || defined(STM32F398xx) || \
 625:Drivers/STM32F3xx_HAL_Driver/Src/stm32f3xx_hal_rcc_ex.c ****     defined(STM32F302xC) || defined(STM32F303xC) ||defined(STM32F358xx)
 626:Drivers/STM32F3xx_HAL_Driver/Src/stm32f3xx_hal_rcc_ex.c **** 
 627:Drivers/STM32F3xx_HAL_Driver/Src/stm32f3xx_hal_rcc_ex.c ****   PeriphClkInit->PeriphClockSelection |= (RCC_PERIPHCLK_UART4  | RCC_PERIPHCLK_UART5);
 653              		.loc 1 627 0
 654 007a 7B68     		ldr	r3, [r7, #4]
 655 007c 1B68     		ldr	r3, [r3]
 656 007e 43F01802 		orr	r2, r3, #24
 657 0082 7B68     		ldr	r3, [r7, #4]
 658 0084 1A60     		str	r2, [r3]
 628:Drivers/STM32F3xx_HAL_Driver/Src/stm32f3xx_hal_rcc_ex.c ****   /* Get the UART4 clock configuration -----------------------------------------*/
 629:Drivers/STM32F3xx_HAL_Driver/Src/stm32f3xx_hal_rcc_ex.c ****   PeriphClkInit->Uart4ClockSelection = __HAL_RCC_GET_UART4_SOURCE();
 659              		.loc 1 629 0
 660 0086 284B     		ldr	r3, .L38+4
 661 0088 1B6B     		ldr	r3, [r3, #48]
 662 008a 03F44012 		and	r2, r3, #3145728
 663 008e 7B68     		ldr	r3, [r7, #4]
 664 0090 5A61     		str	r2, [r3, #20]
 630:Drivers/STM32F3xx_HAL_Driver/Src/stm32f3xx_hal_rcc_ex.c ****   /* Get the UART5 clock configuration -----------------------------------------*/
 631:Drivers/STM32F3xx_HAL_Driver/Src/stm32f3xx_hal_rcc_ex.c ****   PeriphClkInit->Uart5ClockSelection = __HAL_RCC_GET_UART5_SOURCE();
 665              		.loc 1 631 0
 666 0092 254B     		ldr	r3, .L38+4
 667 0094 1B6B     		ldr	r3, [r3, #48]
 668 0096 03F44002 		and	r2, r3, #12582912
 669 009a 7B68     		ldr	r3, [r7, #4]
 670 009c 9A61     		str	r2, [r3, #24]
 632:Drivers/STM32F3xx_HAL_Driver/Src/stm32f3xx_hal_rcc_ex.c **** 
 633:Drivers/STM32F3xx_HAL_Driver/Src/stm32f3xx_hal_rcc_ex.c **** #endif /* STM32F302xE || STM32F303xE || STM32F398xx || */
 634:Drivers/STM32F3xx_HAL_Driver/Src/stm32f3xx_hal_rcc_ex.c ****        /* STM32F302xC || STM32F303xC || STM32F358xx */
 635:Drivers/STM32F3xx_HAL_Driver/Src/stm32f3xx_hal_rcc_ex.c **** 
 636:Drivers/STM32F3xx_HAL_Driver/Src/stm32f3xx_hal_rcc_ex.c **** #if defined(STM32F302xE) || defined(STM32F303xE) || defined(STM32F398xx) || \
 637:Drivers/STM32F3xx_HAL_Driver/Src/stm32f3xx_hal_rcc_ex.c ****     defined(STM32F302xC) || defined(STM32F303xC) || defined(STM32F358xx) || \
 638:Drivers/STM32F3xx_HAL_Driver/Src/stm32f3xx_hal_rcc_ex.c ****     defined(STM32F301x8) || defined(STM32F302x8) || defined(STM32F318xx)
 639:Drivers/STM32F3xx_HAL_Driver/Src/stm32f3xx_hal_rcc_ex.c **** 
 640:Drivers/STM32F3xx_HAL_Driver/Src/stm32f3xx_hal_rcc_ex.c ****   PeriphClkInit->PeriphClockSelection |= RCC_PERIPHCLK_I2S;
 671              		.loc 1 640 0
 672 009e 7B68     		ldr	r3, [r7, #4]
 673 00a0 1B68     		ldr	r3, [r3]
 674 00a2 43F40072 		orr	r2, r3, #512
 675 00a6 7B68     		ldr	r3, [r7, #4]
 676 00a8 1A60     		str	r2, [r3]
 641:Drivers/STM32F3xx_HAL_Driver/Src/stm32f3xx_hal_rcc_ex.c ****   /* Get the I2S clock configuration -----------------------------------------*/
 642:Drivers/STM32F3xx_HAL_Driver/Src/stm32f3xx_hal_rcc_ex.c ****   PeriphClkInit->I2sClockSelection = __HAL_RCC_GET_I2S_SOURCE();
 677              		.loc 1 642 0
 678 00aa 1F4B     		ldr	r3, .L38+4
 679 00ac 5B68     		ldr	r3, [r3, #4]
 680 00ae 03F40002 		and	r2, r3, #8388608
ARM GAS  /tmp/cc4ZCISd.s 			page 36


 681 00b2 7B68     		ldr	r3, [r7, #4]
 682 00b4 DA62     		str	r2, [r3, #44]
 643:Drivers/STM32F3xx_HAL_Driver/Src/stm32f3xx_hal_rcc_ex.c **** 
 644:Drivers/STM32F3xx_HAL_Driver/Src/stm32f3xx_hal_rcc_ex.c **** #endif /* STM32F302xE || STM32F303xE || STM32F398xx || */
 645:Drivers/STM32F3xx_HAL_Driver/Src/stm32f3xx_hal_rcc_ex.c ****        /* STM32F302xC || STM32F303xC || STM32F358xx || */
 646:Drivers/STM32F3xx_HAL_Driver/Src/stm32f3xx_hal_rcc_ex.c ****        /* STM32F301x8 || STM32F302x8 || STM32F318xx || */
 647:Drivers/STM32F3xx_HAL_Driver/Src/stm32f3xx_hal_rcc_ex.c ****   
 648:Drivers/STM32F3xx_HAL_Driver/Src/stm32f3xx_hal_rcc_ex.c **** #if defined(STM32F301x8) || defined(STM32F302x8) || defined(STM32F318xx) || \
 649:Drivers/STM32F3xx_HAL_Driver/Src/stm32f3xx_hal_rcc_ex.c ****     defined(STM32F373xC) || defined(STM32F378xx)
 650:Drivers/STM32F3xx_HAL_Driver/Src/stm32f3xx_hal_rcc_ex.c ****       
 651:Drivers/STM32F3xx_HAL_Driver/Src/stm32f3xx_hal_rcc_ex.c ****   PeriphClkInit->PeriphClockSelection |= RCC_PERIPHCLK_ADC1;
 652:Drivers/STM32F3xx_HAL_Driver/Src/stm32f3xx_hal_rcc_ex.c ****   /* Get the ADC1 clock configuration -----------------------------------------*/
 653:Drivers/STM32F3xx_HAL_Driver/Src/stm32f3xx_hal_rcc_ex.c ****   PeriphClkInit->Adc1ClockSelection = __HAL_RCC_GET_ADC1_SOURCE();
 654:Drivers/STM32F3xx_HAL_Driver/Src/stm32f3xx_hal_rcc_ex.c **** 
 655:Drivers/STM32F3xx_HAL_Driver/Src/stm32f3xx_hal_rcc_ex.c **** #endif /* STM32F301x8 || STM32F302x8 || STM32F318xx || */
 656:Drivers/STM32F3xx_HAL_Driver/Src/stm32f3xx_hal_rcc_ex.c ****        /* STM32F373xC || STM32F378xx                   */
 657:Drivers/STM32F3xx_HAL_Driver/Src/stm32f3xx_hal_rcc_ex.c **** 
 658:Drivers/STM32F3xx_HAL_Driver/Src/stm32f3xx_hal_rcc_ex.c **** #if defined(STM32F302xE) || defined(STM32F303xE) || defined(STM32F398xx) || \
 659:Drivers/STM32F3xx_HAL_Driver/Src/stm32f3xx_hal_rcc_ex.c ****     defined(STM32F302xC) || defined(STM32F303xC) || defined(STM32F358xx) || \
 660:Drivers/STM32F3xx_HAL_Driver/Src/stm32f3xx_hal_rcc_ex.c ****     defined(STM32F303x8) || defined(STM32F334x8) || defined(STM32F328xx)
 661:Drivers/STM32F3xx_HAL_Driver/Src/stm32f3xx_hal_rcc_ex.c **** 
 662:Drivers/STM32F3xx_HAL_Driver/Src/stm32f3xx_hal_rcc_ex.c ****   PeriphClkInit->PeriphClockSelection |= RCC_PERIPHCLK_ADC12;
 683              		.loc 1 662 0
 684 00b6 7B68     		ldr	r3, [r7, #4]
 685 00b8 1B68     		ldr	r3, [r3]
 686 00ba 43F08002 		orr	r2, r3, #128
 687 00be 7B68     		ldr	r3, [r7, #4]
 688 00c0 1A60     		str	r2, [r3]
 663:Drivers/STM32F3xx_HAL_Driver/Src/stm32f3xx_hal_rcc_ex.c ****   /* Get the ADC1 & ADC2 clock configuration -----------------------------------------*/
 664:Drivers/STM32F3xx_HAL_Driver/Src/stm32f3xx_hal_rcc_ex.c ****   PeriphClkInit->Adc12ClockSelection = __HAL_RCC_GET_ADC12_SOURCE();
 689              		.loc 1 664 0
 690 00c2 194B     		ldr	r3, .L38+4
 691 00c4 DB6A     		ldr	r3, [r3, #44]
 692 00c6 03F4F872 		and	r2, r3, #496
 693 00ca 7B68     		ldr	r3, [r7, #4]
 694 00cc 5A62     		str	r2, [r3, #36]
 665:Drivers/STM32F3xx_HAL_Driver/Src/stm32f3xx_hal_rcc_ex.c **** 
 666:Drivers/STM32F3xx_HAL_Driver/Src/stm32f3xx_hal_rcc_ex.c **** #endif /* STM32F302xE || STM32F303xE || STM32F398xx || */
 667:Drivers/STM32F3xx_HAL_Driver/Src/stm32f3xx_hal_rcc_ex.c ****        /* STM32F302xC || STM32F303xC || STM32F358xx || */
 668:Drivers/STM32F3xx_HAL_Driver/Src/stm32f3xx_hal_rcc_ex.c ****        /* STM32F303x8 || STM32F334x8 || STM32F328xx    */
 669:Drivers/STM32F3xx_HAL_Driver/Src/stm32f3xx_hal_rcc_ex.c **** 
 670:Drivers/STM32F3xx_HAL_Driver/Src/stm32f3xx_hal_rcc_ex.c **** #if defined(STM32F303xE) || defined(STM32F398xx) || \
 671:Drivers/STM32F3xx_HAL_Driver/Src/stm32f3xx_hal_rcc_ex.c ****     defined(STM32F303xC) || defined(STM32F358xx)
 672:Drivers/STM32F3xx_HAL_Driver/Src/stm32f3xx_hal_rcc_ex.c **** 
 673:Drivers/STM32F3xx_HAL_Driver/Src/stm32f3xx_hal_rcc_ex.c ****   PeriphClkInit->PeriphClockSelection |= RCC_PERIPHCLK_ADC34;
 695              		.loc 1 673 0
 696 00ce 7B68     		ldr	r3, [r7, #4]
 697 00d0 1B68     		ldr	r3, [r3]
 698 00d2 43F48072 		orr	r2, r3, #256
 699 00d6 7B68     		ldr	r3, [r7, #4]
 700 00d8 1A60     		str	r2, [r3]
 674:Drivers/STM32F3xx_HAL_Driver/Src/stm32f3xx_hal_rcc_ex.c ****    /* Get the ADC3 & ADC4 clock configuration -----------------------------------------*/
 675:Drivers/STM32F3xx_HAL_Driver/Src/stm32f3xx_hal_rcc_ex.c ****   PeriphClkInit->Adc34ClockSelection = __HAL_RCC_GET_ADC34_SOURCE();
 701              		.loc 1 675 0
 702 00da 134B     		ldr	r3, .L38+4
 703 00dc DB6A     		ldr	r3, [r3, #44]
 704 00de 03F47852 		and	r2, r3, #15872
ARM GAS  /tmp/cc4ZCISd.s 			page 37


 705 00e2 7B68     		ldr	r3, [r7, #4]
 706 00e4 9A62     		str	r2, [r3, #40]
 676:Drivers/STM32F3xx_HAL_Driver/Src/stm32f3xx_hal_rcc_ex.c **** 
 677:Drivers/STM32F3xx_HAL_Driver/Src/stm32f3xx_hal_rcc_ex.c **** #endif /* STM32F303xE || STM32F398xx || */
 678:Drivers/STM32F3xx_HAL_Driver/Src/stm32f3xx_hal_rcc_ex.c ****        /* STM32F303xC || STM32F358xx    */
 679:Drivers/STM32F3xx_HAL_Driver/Src/stm32f3xx_hal_rcc_ex.c **** 
 680:Drivers/STM32F3xx_HAL_Driver/Src/stm32f3xx_hal_rcc_ex.c **** #if defined(STM32F302xE) || defined(STM32F303xE) || defined(STM32F398xx) || \
 681:Drivers/STM32F3xx_HAL_Driver/Src/stm32f3xx_hal_rcc_ex.c ****     defined(STM32F302xC) || defined(STM32F303xC) || defined(STM32F358xx) || \
 682:Drivers/STM32F3xx_HAL_Driver/Src/stm32f3xx_hal_rcc_ex.c ****     defined(STM32F303x8) || defined(STM32F334x8) || defined(STM32F328xx) || \
 683:Drivers/STM32F3xx_HAL_Driver/Src/stm32f3xx_hal_rcc_ex.c ****     defined(STM32F301x8) || defined(STM32F302x8) || defined(STM32F318xx)
 684:Drivers/STM32F3xx_HAL_Driver/Src/stm32f3xx_hal_rcc_ex.c **** 
 685:Drivers/STM32F3xx_HAL_Driver/Src/stm32f3xx_hal_rcc_ex.c ****   PeriphClkInit->PeriphClockSelection |= RCC_PERIPHCLK_TIM1;
 707              		.loc 1 685 0
 708 00e6 7B68     		ldr	r3, [r7, #4]
 709 00e8 1B68     		ldr	r3, [r3]
 710 00ea 43F48052 		orr	r2, r3, #4096
 711 00ee 7B68     		ldr	r3, [r7, #4]
 712 00f0 1A60     		str	r2, [r3]
 686:Drivers/STM32F3xx_HAL_Driver/Src/stm32f3xx_hal_rcc_ex.c ****   /* Get the TIM1 clock configuration -----------------------------------------*/
 687:Drivers/STM32F3xx_HAL_Driver/Src/stm32f3xx_hal_rcc_ex.c ****   PeriphClkInit->Tim1ClockSelection = __HAL_RCC_GET_TIM1_SOURCE();
 713              		.loc 1 687 0
 714 00f2 0D4B     		ldr	r3, .L38+4
 715 00f4 1B6B     		ldr	r3, [r3, #48]
 716 00f6 03F48072 		and	r2, r3, #256
 717 00fa 7B68     		ldr	r3, [r7, #4]
 718 00fc 1A63     		str	r2, [r3, #48]
 688:Drivers/STM32F3xx_HAL_Driver/Src/stm32f3xx_hal_rcc_ex.c **** 
 689:Drivers/STM32F3xx_HAL_Driver/Src/stm32f3xx_hal_rcc_ex.c **** #endif /* STM32F302xE || STM32F303xE || STM32F398xx || */
 690:Drivers/STM32F3xx_HAL_Driver/Src/stm32f3xx_hal_rcc_ex.c ****        /* STM32F302xC || STM32F303xC || STM32F358xx || */
 691:Drivers/STM32F3xx_HAL_Driver/Src/stm32f3xx_hal_rcc_ex.c ****        /* STM32F303x8 || STM32F334x8 || STM32F328xx || */
 692:Drivers/STM32F3xx_HAL_Driver/Src/stm32f3xx_hal_rcc_ex.c ****        /* STM32F301x8 || STM32F302x8 || STM32F318xx    */
 693:Drivers/STM32F3xx_HAL_Driver/Src/stm32f3xx_hal_rcc_ex.c ****   
 694:Drivers/STM32F3xx_HAL_Driver/Src/stm32f3xx_hal_rcc_ex.c **** #if defined(STM32F303xE) || defined(STM32F398xx) || \
 695:Drivers/STM32F3xx_HAL_Driver/Src/stm32f3xx_hal_rcc_ex.c ****     defined(STM32F303xC) || defined(STM32F358xx)
 696:Drivers/STM32F3xx_HAL_Driver/Src/stm32f3xx_hal_rcc_ex.c **** 
 697:Drivers/STM32F3xx_HAL_Driver/Src/stm32f3xx_hal_rcc_ex.c ****   PeriphClkInit->PeriphClockSelection |= RCC_PERIPHCLK_TIM8;
 719              		.loc 1 697 0
 720 00fe 7B68     		ldr	r3, [r7, #4]
 721 0100 1B68     		ldr	r3, [r3]
 722 0102 43F40052 		orr	r2, r3, #8192
 723 0106 7B68     		ldr	r3, [r7, #4]
 724 0108 1A60     		str	r2, [r3]
 698:Drivers/STM32F3xx_HAL_Driver/Src/stm32f3xx_hal_rcc_ex.c ****   /* Get the TIM8 clock configuration -----------------------------------------*/
 699:Drivers/STM32F3xx_HAL_Driver/Src/stm32f3xx_hal_rcc_ex.c ****   PeriphClkInit->Tim8ClockSelection = __HAL_RCC_GET_TIM8_SOURCE();
 725              		.loc 1 699 0
 726 010a 074B     		ldr	r3, .L38+4
 727 010c 1B6B     		ldr	r3, [r3, #48]
 728 010e 03F40072 		and	r2, r3, #512
 729 0112 7B68     		ldr	r3, [r7, #4]
 730 0114 5A63     		str	r2, [r3, #52]
 700:Drivers/STM32F3xx_HAL_Driver/Src/stm32f3xx_hal_rcc_ex.c **** 
 701:Drivers/STM32F3xx_HAL_Driver/Src/stm32f3xx_hal_rcc_ex.c **** #endif /* STM32F303xE || STM32F398xx || */
 702:Drivers/STM32F3xx_HAL_Driver/Src/stm32f3xx_hal_rcc_ex.c ****        /* STM32F303xC || STM32F358xx    */
 703:Drivers/STM32F3xx_HAL_Driver/Src/stm32f3xx_hal_rcc_ex.c **** 
 704:Drivers/STM32F3xx_HAL_Driver/Src/stm32f3xx_hal_rcc_ex.c **** #if defined(STM32F301x8) || defined(STM32F302x8) || defined(STM32F318xx)
 705:Drivers/STM32F3xx_HAL_Driver/Src/stm32f3xx_hal_rcc_ex.c **** 
 706:Drivers/STM32F3xx_HAL_Driver/Src/stm32f3xx_hal_rcc_ex.c ****   PeriphClkInit->PeriphClockSelection |= (RCC_PERIPHCLK_TIM15 | RCC_PERIPHCLK_TIM16 | RCC_PERIPHCLK
ARM GAS  /tmp/cc4ZCISd.s 			page 38


 707:Drivers/STM32F3xx_HAL_Driver/Src/stm32f3xx_hal_rcc_ex.c ****   /* Get the TIM15 clock configuration -----------------------------------------*/
 708:Drivers/STM32F3xx_HAL_Driver/Src/stm32f3xx_hal_rcc_ex.c ****   PeriphClkInit->Tim15ClockSelection = __HAL_RCC_GET_TIM15_SOURCE();
 709:Drivers/STM32F3xx_HAL_Driver/Src/stm32f3xx_hal_rcc_ex.c ****   /* Get the TIM16 clock configuration -----------------------------------------*/
 710:Drivers/STM32F3xx_HAL_Driver/Src/stm32f3xx_hal_rcc_ex.c ****   PeriphClkInit->Tim16ClockSelection = __HAL_RCC_GET_TIM16_SOURCE();
 711:Drivers/STM32F3xx_HAL_Driver/Src/stm32f3xx_hal_rcc_ex.c ****   /* Get the TIM17 clock configuration -----------------------------------------*/
 712:Drivers/STM32F3xx_HAL_Driver/Src/stm32f3xx_hal_rcc_ex.c ****   PeriphClkInit->Tim17ClockSelection = __HAL_RCC_GET_TIM17_SOURCE();
 713:Drivers/STM32F3xx_HAL_Driver/Src/stm32f3xx_hal_rcc_ex.c **** 
 714:Drivers/STM32F3xx_HAL_Driver/Src/stm32f3xx_hal_rcc_ex.c **** #endif /* STM32F301x8 || STM32F302x8 || STM32F318xx */
 715:Drivers/STM32F3xx_HAL_Driver/Src/stm32f3xx_hal_rcc_ex.c **** 
 716:Drivers/STM32F3xx_HAL_Driver/Src/stm32f3xx_hal_rcc_ex.c **** #if defined(STM32F334x8)
 717:Drivers/STM32F3xx_HAL_Driver/Src/stm32f3xx_hal_rcc_ex.c **** 
 718:Drivers/STM32F3xx_HAL_Driver/Src/stm32f3xx_hal_rcc_ex.c ****   PeriphClkInit->PeriphClockSelection |= RCC_PERIPHCLK_HRTIM1;
 719:Drivers/STM32F3xx_HAL_Driver/Src/stm32f3xx_hal_rcc_ex.c ****   /* Get the HRTIM1 clock configuration -----------------------------------------*/
 720:Drivers/STM32F3xx_HAL_Driver/Src/stm32f3xx_hal_rcc_ex.c ****   PeriphClkInit->Hrtim1ClockSelection = __HAL_RCC_GET_HRTIM1_SOURCE();
 721:Drivers/STM32F3xx_HAL_Driver/Src/stm32f3xx_hal_rcc_ex.c **** 
 722:Drivers/STM32F3xx_HAL_Driver/Src/stm32f3xx_hal_rcc_ex.c **** #endif /* STM32F334x8 */
 723:Drivers/STM32F3xx_HAL_Driver/Src/stm32f3xx_hal_rcc_ex.c **** 
 724:Drivers/STM32F3xx_HAL_Driver/Src/stm32f3xx_hal_rcc_ex.c **** #if defined(STM32F373xC) || defined(STM32F378xx)
 725:Drivers/STM32F3xx_HAL_Driver/Src/stm32f3xx_hal_rcc_ex.c **** 
 726:Drivers/STM32F3xx_HAL_Driver/Src/stm32f3xx_hal_rcc_ex.c ****   PeriphClkInit->PeriphClockSelection |= RCC_PERIPHCLK_SDADC;
 727:Drivers/STM32F3xx_HAL_Driver/Src/stm32f3xx_hal_rcc_ex.c ****   /* Get the SDADC clock configuration -----------------------------------------*/
 728:Drivers/STM32F3xx_HAL_Driver/Src/stm32f3xx_hal_rcc_ex.c ****   PeriphClkInit->SdadcClockSelection = __HAL_RCC_GET_SDADC_SOURCE();
 729:Drivers/STM32F3xx_HAL_Driver/Src/stm32f3xx_hal_rcc_ex.c **** 
 730:Drivers/STM32F3xx_HAL_Driver/Src/stm32f3xx_hal_rcc_ex.c ****   PeriphClkInit->PeriphClockSelection |= RCC_PERIPHCLK_CEC;
 731:Drivers/STM32F3xx_HAL_Driver/Src/stm32f3xx_hal_rcc_ex.c ****   /* Get the CEC clock configuration -----------------------------------------*/
 732:Drivers/STM32F3xx_HAL_Driver/Src/stm32f3xx_hal_rcc_ex.c ****   PeriphClkInit->CecClockSelection = __HAL_RCC_GET_CEC_SOURCE();
 733:Drivers/STM32F3xx_HAL_Driver/Src/stm32f3xx_hal_rcc_ex.c **** 
 734:Drivers/STM32F3xx_HAL_Driver/Src/stm32f3xx_hal_rcc_ex.c **** #endif /* STM32F373xC || STM32F378xx */
 735:Drivers/STM32F3xx_HAL_Driver/Src/stm32f3xx_hal_rcc_ex.c **** 
 736:Drivers/STM32F3xx_HAL_Driver/Src/stm32f3xx_hal_rcc_ex.c **** #if defined(STM32F302xE) || defined(STM32F303xE) || defined(STM32F398xx)
 737:Drivers/STM32F3xx_HAL_Driver/Src/stm32f3xx_hal_rcc_ex.c **** 
 738:Drivers/STM32F3xx_HAL_Driver/Src/stm32f3xx_hal_rcc_ex.c ****   PeriphClkInit->PeriphClockSelection |= RCC_PERIPHCLK_TIM2;
 739:Drivers/STM32F3xx_HAL_Driver/Src/stm32f3xx_hal_rcc_ex.c ****   /* Get the TIM2 clock configuration -----------------------------------------*/
 740:Drivers/STM32F3xx_HAL_Driver/Src/stm32f3xx_hal_rcc_ex.c ****   PeriphClkInit->Tim2ClockSelection = __HAL_RCC_GET_TIM2_SOURCE();
 741:Drivers/STM32F3xx_HAL_Driver/Src/stm32f3xx_hal_rcc_ex.c **** 
 742:Drivers/STM32F3xx_HAL_Driver/Src/stm32f3xx_hal_rcc_ex.c ****   PeriphClkInit->PeriphClockSelection |= RCC_PERIPHCLK_TIM34;
 743:Drivers/STM32F3xx_HAL_Driver/Src/stm32f3xx_hal_rcc_ex.c ****   /* Get the TIM3 clock configuration -----------------------------------------*/
 744:Drivers/STM32F3xx_HAL_Driver/Src/stm32f3xx_hal_rcc_ex.c ****   PeriphClkInit->Tim34ClockSelection = __HAL_RCC_GET_TIM34_SOURCE();
 745:Drivers/STM32F3xx_HAL_Driver/Src/stm32f3xx_hal_rcc_ex.c **** 
 746:Drivers/STM32F3xx_HAL_Driver/Src/stm32f3xx_hal_rcc_ex.c ****   PeriphClkInit->PeriphClockSelection |= RCC_PERIPHCLK_TIM15;
 747:Drivers/STM32F3xx_HAL_Driver/Src/stm32f3xx_hal_rcc_ex.c ****   /* Get the TIM15 clock configuration -----------------------------------------*/
 748:Drivers/STM32F3xx_HAL_Driver/Src/stm32f3xx_hal_rcc_ex.c ****   PeriphClkInit->Tim15ClockSelection = __HAL_RCC_GET_TIM15_SOURCE();
 749:Drivers/STM32F3xx_HAL_Driver/Src/stm32f3xx_hal_rcc_ex.c **** 
 750:Drivers/STM32F3xx_HAL_Driver/Src/stm32f3xx_hal_rcc_ex.c ****   PeriphClkInit->PeriphClockSelection |= RCC_PERIPHCLK_TIM16;
 751:Drivers/STM32F3xx_HAL_Driver/Src/stm32f3xx_hal_rcc_ex.c ****   /* Get the TIM16 clock configuration -----------------------------------------*/
 752:Drivers/STM32F3xx_HAL_Driver/Src/stm32f3xx_hal_rcc_ex.c ****   PeriphClkInit->Tim16ClockSelection = __HAL_RCC_GET_TIM16_SOURCE();
 753:Drivers/STM32F3xx_HAL_Driver/Src/stm32f3xx_hal_rcc_ex.c **** 
 754:Drivers/STM32F3xx_HAL_Driver/Src/stm32f3xx_hal_rcc_ex.c ****   PeriphClkInit->PeriphClockSelection |= RCC_PERIPHCLK_TIM17;
 755:Drivers/STM32F3xx_HAL_Driver/Src/stm32f3xx_hal_rcc_ex.c ****   /* Get the TIM17 clock configuration -----------------------------------------*/
 756:Drivers/STM32F3xx_HAL_Driver/Src/stm32f3xx_hal_rcc_ex.c ****   PeriphClkInit->Tim17ClockSelection = __HAL_RCC_GET_TIM17_SOURCE();
 757:Drivers/STM32F3xx_HAL_Driver/Src/stm32f3xx_hal_rcc_ex.c **** 
 758:Drivers/STM32F3xx_HAL_Driver/Src/stm32f3xx_hal_rcc_ex.c **** #endif /* STM32F302xE || STM32F303xE || STM32F398xx */
 759:Drivers/STM32F3xx_HAL_Driver/Src/stm32f3xx_hal_rcc_ex.c ****   
 760:Drivers/STM32F3xx_HAL_Driver/Src/stm32f3xx_hal_rcc_ex.c **** #if defined (STM32F303xE) || defined(STM32F398xx)
 761:Drivers/STM32F3xx_HAL_Driver/Src/stm32f3xx_hal_rcc_ex.c ****   PeriphClkInit->PeriphClockSelection |= RCC_PERIPHCLK_TIM20;
 762:Drivers/STM32F3xx_HAL_Driver/Src/stm32f3xx_hal_rcc_ex.c ****   /* Get the TIM20 clock configuration -----------------------------------------*/
 763:Drivers/STM32F3xx_HAL_Driver/Src/stm32f3xx_hal_rcc_ex.c ****   PeriphClkInit->Tim20ClockSelection = __HAL_RCC_GET_TIM20_SOURCE();
ARM GAS  /tmp/cc4ZCISd.s 			page 39


 764:Drivers/STM32F3xx_HAL_Driver/Src/stm32f3xx_hal_rcc_ex.c **** #endif /* STM32F303xE || STM32F398xx */
 765:Drivers/STM32F3xx_HAL_Driver/Src/stm32f3xx_hal_rcc_ex.c **** }
 731              		.loc 1 765 0
 732 0116 00BF     		nop
 733 0118 0C37     		adds	r7, r7, #12
 734              	.LCFI8:
 735              		.cfi_def_cfa_offset 4
 736 011a BD46     		mov	sp, r7
 737              	.LCFI9:
 738              		.cfi_def_cfa_register 13
 739              		@ sp needed
 740 011c 5DF8047B 		ldr	r7, [sp], #4
 741              	.LCFI10:
 742              		.cfi_restore 7
 743              		.cfi_def_cfa_offset 0
 744 0120 7047     		bx	lr
 745              	.L39:
 746 0122 00BF     		.align	2
 747              	.L38:
 748 0124 27000100 		.word	65575
 749 0128 00100240 		.word	1073876992
 750              		.cfi_endproc
 751              	.LFE113:
 753              		.section	.text.HAL_RCC_OscConfig,"ax",%progbits
 754              		.align	2
 755              		.global	HAL_RCC_OscConfig
 756              		.thumb
 757              		.thumb_func
 759              	HAL_RCC_OscConfig:
 760              	.LFB114:
 766:Drivers/STM32F3xx_HAL_Driver/Src/stm32f3xx_hal_rcc_ex.c **** 
 767:Drivers/STM32F3xx_HAL_Driver/Src/stm32f3xx_hal_rcc_ex.c **** /**
 768:Drivers/STM32F3xx_HAL_Driver/Src/stm32f3xx_hal_rcc_ex.c ****   * @brief  Initializes the RCC Oscillators according to the specified parameters in the
 769:Drivers/STM32F3xx_HAL_Driver/Src/stm32f3xx_hal_rcc_ex.c ****   *         RCC_OscInitTypeDef.
 770:Drivers/STM32F3xx_HAL_Driver/Src/stm32f3xx_hal_rcc_ex.c ****   * @param  RCC_OscInitStruct: pointer to an RCC_OscInitTypeDef structure that
 771:Drivers/STM32F3xx_HAL_Driver/Src/stm32f3xx_hal_rcc_ex.c ****   *         contains the configuration information for the RCC Oscillators.
 772:Drivers/STM32F3xx_HAL_Driver/Src/stm32f3xx_hal_rcc_ex.c ****   * @note   The PLL is not disabled when used as system clock.
 773:Drivers/STM32F3xx_HAL_Driver/Src/stm32f3xx_hal_rcc_ex.c ****   * @retval HAL status
 774:Drivers/STM32F3xx_HAL_Driver/Src/stm32f3xx_hal_rcc_ex.c ****   */
 775:Drivers/STM32F3xx_HAL_Driver/Src/stm32f3xx_hal_rcc_ex.c **** HAL_StatusTypeDef HAL_RCC_OscConfig(RCC_OscInitTypeDef  *RCC_OscInitStruct)
 776:Drivers/STM32F3xx_HAL_Driver/Src/stm32f3xx_hal_rcc_ex.c **** {
 761              		.loc 1 776 0
 762              		.cfi_startproc
 763              		@ args = 0, pretend = 0, frame = 768
 764              		@ frame_needed = 1, uses_anonymous_args = 0
 765 0000 90B5     		push	{r4, r7, lr}
 766              	.LCFI11:
 767              		.cfi_def_cfa_offset 12
 768              		.cfi_offset 4, -12
 769              		.cfi_offset 7, -8
 770              		.cfi_offset 14, -4
 771 0002 ADF5417D 		sub	sp, sp, #772
 772              	.LCFI12:
 773              		.cfi_def_cfa_offset 784
 774 0006 00AF     		add	r7, sp, #0
 775              	.LCFI13:
 776              		.cfi_def_cfa_register 7
ARM GAS  /tmp/cc4ZCISd.s 			page 40


 777 0008 3B1D     		adds	r3, r7, #4
 778 000a 1860     		str	r0, [r3]
 777:Drivers/STM32F3xx_HAL_Driver/Src/stm32f3xx_hal_rcc_ex.c ****   uint32_t tickstart = 0;
 779              		.loc 1 777 0
 780 000c 0023     		movs	r3, #0
 781 000e C7F8FC32 		str	r3, [r7, #764]
 778:Drivers/STM32F3xx_HAL_Driver/Src/stm32f3xx_hal_rcc_ex.c **** 
 779:Drivers/STM32F3xx_HAL_Driver/Src/stm32f3xx_hal_rcc_ex.c ****   /* Check the parameters */
 780:Drivers/STM32F3xx_HAL_Driver/Src/stm32f3xx_hal_rcc_ex.c ****   assert_param(RCC_OscInitStruct != NULL);
 781:Drivers/STM32F3xx_HAL_Driver/Src/stm32f3xx_hal_rcc_ex.c ****   assert_param(IS_RCC_OSCILLATORTYPE(RCC_OscInitStruct->OscillatorType));
 782:Drivers/STM32F3xx_HAL_Driver/Src/stm32f3xx_hal_rcc_ex.c ****   /*------------------------------- HSE Configuration ------------------------*/
 783:Drivers/STM32F3xx_HAL_Driver/Src/stm32f3xx_hal_rcc_ex.c ****   if(((RCC_OscInitStruct->OscillatorType) & RCC_OSCILLATORTYPE_HSE) == RCC_OSCILLATORTYPE_HSE)
 782              		.loc 1 783 0
 783 0012 3B1D     		adds	r3, r7, #4
 784 0014 1B68     		ldr	r3, [r3]
 785 0016 1B68     		ldr	r3, [r3]
 786 0018 03F00103 		and	r3, r3, #1
 787 001c 002B     		cmp	r3, #0
 788 001e 00F03F82 		beq	.L41
 784:Drivers/STM32F3xx_HAL_Driver/Src/stm32f3xx_hal_rcc_ex.c ****   {
 785:Drivers/STM32F3xx_HAL_Driver/Src/stm32f3xx_hal_rcc_ex.c ****     /* Check the parameters */
 786:Drivers/STM32F3xx_HAL_Driver/Src/stm32f3xx_hal_rcc_ex.c ****     assert_param(IS_RCC_HSE(RCC_OscInitStruct->HSEState));
 787:Drivers/STM32F3xx_HAL_Driver/Src/stm32f3xx_hal_rcc_ex.c ****     /* When the HSE is used as system clock or clock source for PLL in these cases HSE will not dis
 788:Drivers/STM32F3xx_HAL_Driver/Src/stm32f3xx_hal_rcc_ex.c ****     if((__HAL_RCC_GET_SYSCLK_SOURCE() == RCC_SYSCLKSOURCE_STATUS_HSE) ||
 789              		.loc 1 788 0
 790 0022 C54B     		ldr	r3, .L242
 791 0024 5B68     		ldr	r3, [r3, #4]
 792 0026 03F00C03 		and	r3, r3, #12
 793 002a 042B     		cmp	r3, #4
 794 002c 0CD0     		beq	.L42
 789:Drivers/STM32F3xx_HAL_Driver/Src/stm32f3xx_hal_rcc_ex.c ****        ((__HAL_RCC_GET_SYSCLK_SOURCE() == RCC_SYSCLKSOURCE_STATUS_PLLCLK) && (__HAL_RCC_GET_PLL_OSC
 795              		.loc 1 789 0 discriminator 1
 796 002e C24B     		ldr	r3, .L242
 797 0030 5B68     		ldr	r3, [r3, #4]
 798 0032 03F00C03 		and	r3, r3, #12
 788:Drivers/STM32F3xx_HAL_Driver/Src/stm32f3xx_hal_rcc_ex.c ****        ((__HAL_RCC_GET_SYSCLK_SOURCE() == RCC_SYSCLKSOURCE_STATUS_PLLCLK) && (__HAL_RCC_GET_PLL_OSC
 799              		.loc 1 788 0 discriminator 1
 800 0036 082B     		cmp	r3, #8
 801 0038 40F08480 		bne	.L43
 802              		.loc 1 789 0
 803 003c BE4B     		ldr	r3, .L242
 804 003e 5B68     		ldr	r3, [r3, #4]
 805 0040 03F48033 		and	r3, r3, #65536
 806 0044 002B     		cmp	r3, #0
 807 0046 7DD0     		beq	.L43
 808              	.L42:
 809 0048 4FF40033 		mov	r3, #131072
 810 004c C7F8AC32 		str	r3, [r7, #684]
 811              	.LBB226:
 812              	.LBB227:
 491:Drivers/CMSIS/Include/core_cmInstr.h ****    return(result);
 813              		.loc 2 491 0
 814 0050 D7F8AC32 		ldr	r3, [r7, #684]
 815              		.syntax unified
 816              	@ 491 "Drivers/CMSIS/Include/core_cmInstr.h" 1
 817 0054 93FAA3F2 		rbit r2, r3
 818              	@ 0 "" 2
ARM GAS  /tmp/cc4ZCISd.s 			page 41


 819              		.thumb
 820              		.syntax unified
 821 0058 07F5BE73 		add	r3, r7, #380
 822 005c 1A60     		str	r2, [r3]
 492:Drivers/CMSIS/Include/core_cmInstr.h **** }
 823              		.loc 2 492 0
 824 005e 07F5BE73 		add	r3, r7, #380
 825 0062 1A68     		ldr	r2, [r3]
 826 0064 07F5C273 		add	r3, r7, #388
 827 0068 1A60     		str	r2, [r3]
 828              	.LBE227:
 829              	.LBE226:
 830              	.LBB228:
 831              	.LBB229:
 666:Drivers/CMSIS/Include/core_cmInstr.h ****   return(result);
 832              		.loc 2 666 0
 833 006a 07F5C273 		add	r3, r7, #388
 834 006e 1B68     		ldr	r3, [r3]
 835              		.syntax unified
 836              	@ 666 "Drivers/CMSIS/Include/core_cmInstr.h" 1
 837 0070 B3FA83F2 		clz r2, r3
 838              	@ 0 "" 2
 839              		.thumb
 840              		.syntax unified
 841 0074 07F5C073 		add	r3, r7, #384
 842 0078 1A60     		str	r2, [r3]
 843              		.loc 2 667 0
 844 007a 07F5C073 		add	r3, r7, #384
 845 007e 1B68     		ldr	r3, [r3]
 846 0080 DBB2     		uxtb	r3, r3
 847              	.LBE229:
 848              	.LBE228:
 790:Drivers/STM32F3xx_HAL_Driver/Src/stm32f3xx_hal_rcc_ex.c ****     {
 791:Drivers/STM32F3xx_HAL_Driver/Src/stm32f3xx_hal_rcc_ex.c ****       if((__HAL_RCC_GET_FLAG(RCC_FLAG_HSERDY) != RESET) && (RCC_OscInitStruct->HSEState != RCC_HSE_
 849              		.loc 1 791 0
 850 0082 43F02003 		orr	r3, r3, #32
 851 0086 DBB2     		uxtb	r3, r3
 852 0088 5B09     		lsrs	r3, r3, #5
 853 008a DBB2     		uxtb	r3, r3
 854 008c 012B     		cmp	r3, #1
 855 008e 02D1     		bne	.L46
 856              		.loc 1 791 0 is_stmt 0 discriminator 1
 857 0090 A94B     		ldr	r3, .L242
 858 0092 1B68     		ldr	r3, [r3]
 859 0094 26E0     		b	.L47
 860              	.L46:
 861 0096 4FF40033 		mov	r3, #131072
 862 009a C7F8A432 		str	r3, [r7, #676]
 863              	.LBB230:
 864              	.LBB231:
 491:Drivers/CMSIS/Include/core_cmInstr.h ****    return(result);
 865              		.loc 2 491 0 is_stmt 1 discriminator 2
 866 009e D7F8A432 		ldr	r3, [r7, #676]
 867              		.syntax unified
 868              	@ 491 "Drivers/CMSIS/Include/core_cmInstr.h" 1
 869 00a2 93FAA3F2 		rbit r2, r3
 870              	@ 0 "" 2
ARM GAS  /tmp/cc4ZCISd.s 			page 42


 871              		.thumb
 872              		.syntax unified
 873 00a6 07F5BA73 		add	r3, r7, #372
 874 00aa 1A60     		str	r2, [r3]
 492:Drivers/CMSIS/Include/core_cmInstr.h **** }
 875              		.loc 2 492 0 discriminator 2
 876 00ac 07F5BA73 		add	r3, r7, #372
 877 00b0 1B68     		ldr	r3, [r3]
 878 00b2 C7F8B032 		str	r3, [r7, #688]
 879              	.LBE231:
 880              	.LBE230:
 881              	.LBB232:
 882              	.LBB233:
 666:Drivers/CMSIS/Include/core_cmInstr.h ****   return(result);
 883              		.loc 2 666 0 discriminator 2
 884 00b6 D7F8B032 		ldr	r3, [r7, #688]
 885              		.syntax unified
 886              	@ 666 "Drivers/CMSIS/Include/core_cmInstr.h" 1
 887 00ba B3FA83F2 		clz r2, r3
 888              	@ 0 "" 2
 889              		.thumb
 890              		.syntax unified
 891 00be 07F5BC73 		add	r3, r7, #376
 892 00c2 1A60     		str	r2, [r3]
 893              		.loc 2 667 0 discriminator 2
 894 00c4 07F5BC73 		add	r3, r7, #376
 895 00c8 1B68     		ldr	r3, [r3]
 896 00ca DBB2     		uxtb	r3, r3
 897              	.LBE233:
 898              	.LBE232:
 899              		.loc 1 791 0 discriminator 2
 900 00cc 43F02003 		orr	r3, r3, #32
 901 00d0 DBB2     		uxtb	r3, r3
 902 00d2 5B09     		lsrs	r3, r3, #5
 903 00d4 DBB2     		uxtb	r3, r3
 904 00d6 022B     		cmp	r3, #2
 905 00d8 02D1     		bne	.L50
 906              		.loc 1 791 0 is_stmt 0 discriminator 4
 907 00da 974B     		ldr	r3, .L242
 908 00dc 1B6A     		ldr	r3, [r3, #32]
 909 00de 01E0     		b	.L47
 910              	.L50:
 911              		.loc 1 791 0 discriminator 5
 912 00e0 954B     		ldr	r3, .L242
 913 00e2 5B6A     		ldr	r3, [r3, #36]
 914              	.L47:
 915 00e4 4FF40032 		mov	r2, #131072
 916 00e8 C7F89C22 		str	r2, [r7, #668]
 917              	.LBB234:
 918              	.LBB235:
 491:Drivers/CMSIS/Include/core_cmInstr.h ****    return(result);
 919              		.loc 2 491 0 is_stmt 1 discriminator 8
 920 00ec D7F89C22 		ldr	r2, [r7, #668]
 921              		.syntax unified
 922              	@ 491 "Drivers/CMSIS/Include/core_cmInstr.h" 1
 923 00f0 92FAA2F1 		rbit r1, r2
 924              	@ 0 "" 2
ARM GAS  /tmp/cc4ZCISd.s 			page 43


 925              		.thumb
 926              		.syntax unified
 927 00f4 07F5B672 		add	r2, r7, #364
 928 00f8 1160     		str	r1, [r2]
 492:Drivers/CMSIS/Include/core_cmInstr.h **** }
 929              		.loc 2 492 0 discriminator 8
 930 00fa 07F5B672 		add	r2, r7, #364
 931 00fe 1268     		ldr	r2, [r2]
 932 0100 C7F8A822 		str	r2, [r7, #680]
 933              	.LBE235:
 934              	.LBE234:
 935              	.LBB236:
 936              	.LBB237:
 666:Drivers/CMSIS/Include/core_cmInstr.h ****   return(result);
 937              		.loc 2 666 0 discriminator 8
 938 0104 D7F8A822 		ldr	r2, [r7, #680]
 939              		.syntax unified
 940              	@ 666 "Drivers/CMSIS/Include/core_cmInstr.h" 1
 941 0108 B2FA82F1 		clz r1, r2
 942              	@ 0 "" 2
 943              		.thumb
 944              		.syntax unified
 945 010c 07F5B872 		add	r2, r7, #368
 946 0110 1160     		str	r1, [r2]
 947              		.loc 2 667 0 discriminator 8
 948 0112 07F5B872 		add	r2, r7, #368
 949 0116 1268     		ldr	r2, [r2]
 950 0118 D2B2     		uxtb	r2, r2
 951              	.LBE237:
 952              	.LBE236:
 953              		.loc 1 791 0 discriminator 8
 954 011a 42F02002 		orr	r2, r2, #32
 955 011e D2B2     		uxtb	r2, r2
 956 0120 02F01F02 		and	r2, r2, #31
 957 0124 0121     		movs	r1, #1
 958 0126 01FA02F2 		lsl	r2, r1, r2
 959 012a 1340     		ands	r3, r3, r2
 960 012c 002B     		cmp	r3, #0
 961 012e 00F0B681 		beq	.L241
 962              		.loc 1 791 0 is_stmt 0 discriminator 9
 963 0132 3B1D     		adds	r3, r7, #4
 964 0134 1B68     		ldr	r3, [r3]
 965 0136 5B68     		ldr	r3, [r3, #4]
 966 0138 012B     		cmp	r3, #1
 967 013a 00F0B081 		beq	.L241
 792:Drivers/STM32F3xx_HAL_Driver/Src/stm32f3xx_hal_rcc_ex.c ****       {
 793:Drivers/STM32F3xx_HAL_Driver/Src/stm32f3xx_hal_rcc_ex.c ****         return HAL_ERROR;
 968              		.loc 1 793 0 is_stmt 1
 969 013e 0123     		movs	r3, #1
 970 0140 01F073B8 		b	.L55
 971              	.L43:
 794:Drivers/STM32F3xx_HAL_Driver/Src/stm32f3xx_hal_rcc_ex.c ****       }
 795:Drivers/STM32F3xx_HAL_Driver/Src/stm32f3xx_hal_rcc_ex.c ****     }
 796:Drivers/STM32F3xx_HAL_Driver/Src/stm32f3xx_hal_rcc_ex.c ****     else
 797:Drivers/STM32F3xx_HAL_Driver/Src/stm32f3xx_hal_rcc_ex.c ****     {
 798:Drivers/STM32F3xx_HAL_Driver/Src/stm32f3xx_hal_rcc_ex.c ****       /* Reset HSEON and HSEBYP bits before configuring the HSE --------------*/
 799:Drivers/STM32F3xx_HAL_Driver/Src/stm32f3xx_hal_rcc_ex.c ****       __HAL_RCC_HSE_CONFIG(RCC_HSE_OFF);
ARM GAS  /tmp/cc4ZCISd.s 			page 44


 972              		.loc 1 799 0
 973 0144 7D4B     		ldr	r3, .L242+4
 974 0146 0022     		movs	r2, #0
 975 0148 1A70     		strb	r2, [r3]
 800:Drivers/STM32F3xx_HAL_Driver/Src/stm32f3xx_hal_rcc_ex.c ****       
 801:Drivers/STM32F3xx_HAL_Driver/Src/stm32f3xx_hal_rcc_ex.c ****       /* Get timeout */
 802:Drivers/STM32F3xx_HAL_Driver/Src/stm32f3xx_hal_rcc_ex.c ****       tickstart = HAL_GetTick();
 976              		.loc 1 802 0
 977 014a FFF7FEFF 		bl	HAL_GetTick
 978 014e C7F8FC02 		str	r0, [r7, #764]
 803:Drivers/STM32F3xx_HAL_Driver/Src/stm32f3xx_hal_rcc_ex.c ****       
 804:Drivers/STM32F3xx_HAL_Driver/Src/stm32f3xx_hal_rcc_ex.c ****       /* Wait till HSE is bypassed or disabled */
 805:Drivers/STM32F3xx_HAL_Driver/Src/stm32f3xx_hal_rcc_ex.c ****       while(__HAL_RCC_GET_FLAG(RCC_FLAG_HSERDY) != RESET)
 979              		.loc 1 805 0
 980 0152 0CE0     		b	.L56
 981              	.L67:
 806:Drivers/STM32F3xx_HAL_Driver/Src/stm32f3xx_hal_rcc_ex.c ****       {
 807:Drivers/STM32F3xx_HAL_Driver/Src/stm32f3xx_hal_rcc_ex.c ****         if((HAL_GetTick()-tickstart) > HSE_TIMEOUT_VALUE)
 982              		.loc 1 807 0
 983 0154 FFF7FEFF 		bl	HAL_GetTick
 984 0158 0246     		mov	r2, r0
 985 015a D7F8FC32 		ldr	r3, [r7, #764]
 986 015e D31A     		subs	r3, r2, r3
 987 0160 41F28832 		movw	r2, #5000
 988 0164 9342     		cmp	r3, r2
 989 0166 02D9     		bls	.L56
 808:Drivers/STM32F3xx_HAL_Driver/Src/stm32f3xx_hal_rcc_ex.c ****         {
 809:Drivers/STM32F3xx_HAL_Driver/Src/stm32f3xx_hal_rcc_ex.c ****           return HAL_TIMEOUT;
 990              		.loc 1 809 0
 991 0168 0323     		movs	r3, #3
 992 016a 01F05EB8 		b	.L55
 993              	.L56:
 994 016e 4FF40033 		mov	r3, #131072
 995 0172 C7F8F432 		str	r3, [r7, #756]
 996              	.LBB238:
 997              	.LBB239:
 491:Drivers/CMSIS/Include/core_cmInstr.h ****    return(result);
 998              		.loc 2 491 0
 999 0176 D7F8F432 		ldr	r3, [r7, #756]
 1000              		.syntax unified
 1001              	@ 491 "Drivers/CMSIS/Include/core_cmInstr.h" 1
 1002 017a 93FAA3F2 		rbit r2, r3
 1003              	@ 0 "" 2
 1004              		.thumb
 1005              		.syntax unified
 1006 017e 07F5B273 		add	r3, r7, #356
 1007 0182 1A60     		str	r2, [r3]
 492:Drivers/CMSIS/Include/core_cmInstr.h **** }
 1008              		.loc 2 492 0
 1009 0184 07F5B273 		add	r3, r7, #356
 1010 0188 1B68     		ldr	r3, [r3]
 1011 018a C7F8A032 		str	r3, [r7, #672]
 1012              	.LBE239:
 1013              	.LBE238:
 1014              	.LBB240:
 1015              	.LBB241:
 666:Drivers/CMSIS/Include/core_cmInstr.h ****   return(result);
ARM GAS  /tmp/cc4ZCISd.s 			page 45


 1016              		.loc 2 666 0
 1017 018e D7F8A032 		ldr	r3, [r7, #672]
 1018              		.syntax unified
 1019              	@ 666 "Drivers/CMSIS/Include/core_cmInstr.h" 1
 1020 0192 B3FA83F2 		clz r2, r3
 1021              	@ 0 "" 2
 1022              		.thumb
 1023              		.syntax unified
 1024 0196 07F5B473 		add	r3, r7, #360
 1025 019a 1A60     		str	r2, [r3]
 1026              		.loc 2 667 0
 1027 019c 07F5B473 		add	r3, r7, #360
 1028 01a0 1B68     		ldr	r3, [r3]
 1029 01a2 DBB2     		uxtb	r3, r3
 1030              	.LBE241:
 1031              	.LBE240:
 805:Drivers/STM32F3xx_HAL_Driver/Src/stm32f3xx_hal_rcc_ex.c ****       {
 1032              		.loc 1 805 0
 1033 01a4 43F02003 		orr	r3, r3, #32
 1034 01a8 DBB2     		uxtb	r3, r3
 1035 01aa 5B09     		lsrs	r3, r3, #5
 1036 01ac DBB2     		uxtb	r3, r3
 1037 01ae 012B     		cmp	r3, #1
 1038 01b0 02D1     		bne	.L59
 805:Drivers/STM32F3xx_HAL_Driver/Src/stm32f3xx_hal_rcc_ex.c ****       {
 1039              		.loc 1 805 0 is_stmt 0 discriminator 1
 1040 01b2 614B     		ldr	r3, .L242
 1041 01b4 1B68     		ldr	r3, [r3]
 1042 01b6 26E0     		b	.L60
 1043              	.L59:
 1044 01b8 4FF40033 		mov	r3, #131072
 1045 01bc C7F8EC32 		str	r3, [r7, #748]
 1046              	.LBB242:
 1047              	.LBB243:
 491:Drivers/CMSIS/Include/core_cmInstr.h ****    return(result);
 1048              		.loc 2 491 0 is_stmt 1 discriminator 2
 1049 01c0 D7F8EC32 		ldr	r3, [r7, #748]
 1050              		.syntax unified
 1051              	@ 491 "Drivers/CMSIS/Include/core_cmInstr.h" 1
 1052 01c4 93FAA3F2 		rbit r2, r3
 1053              	@ 0 "" 2
 1054              		.thumb
 1055              		.syntax unified
 1056 01c8 07F5AE73 		add	r3, r7, #348
 1057 01cc 1A60     		str	r2, [r3]
 492:Drivers/CMSIS/Include/core_cmInstr.h **** }
 1058              		.loc 2 492 0 discriminator 2
 1059 01ce 07F5AE73 		add	r3, r7, #348
 1060 01d2 1B68     		ldr	r3, [r3]
 1061 01d4 C7F8F832 		str	r3, [r7, #760]
 1062              	.LBE243:
 1063              	.LBE242:
 1064              	.LBB244:
 1065              	.LBB245:
 666:Drivers/CMSIS/Include/core_cmInstr.h ****   return(result);
 1066              		.loc 2 666 0 discriminator 2
 1067 01d8 D7F8F832 		ldr	r3, [r7, #760]
ARM GAS  /tmp/cc4ZCISd.s 			page 46


 1068              		.syntax unified
 1069              	@ 666 "Drivers/CMSIS/Include/core_cmInstr.h" 1
 1070 01dc B3FA83F2 		clz r2, r3
 1071              	@ 0 "" 2
 1072              		.thumb
 1073              		.syntax unified
 1074 01e0 07F5B073 		add	r3, r7, #352
 1075 01e4 1A60     		str	r2, [r3]
 1076              		.loc 2 667 0 discriminator 2
 1077 01e6 07F5B073 		add	r3, r7, #352
 1078 01ea 1B68     		ldr	r3, [r3]
 1079 01ec DBB2     		uxtb	r3, r3
 1080              	.LBE245:
 1081              	.LBE244:
 805:Drivers/STM32F3xx_HAL_Driver/Src/stm32f3xx_hal_rcc_ex.c ****       {
 1082              		.loc 1 805 0 discriminator 2
 1083 01ee 43F02003 		orr	r3, r3, #32
 1084 01f2 DBB2     		uxtb	r3, r3
 1085 01f4 5B09     		lsrs	r3, r3, #5
 1086 01f6 DBB2     		uxtb	r3, r3
 1087 01f8 022B     		cmp	r3, #2
 1088 01fa 02D1     		bne	.L63
 805:Drivers/STM32F3xx_HAL_Driver/Src/stm32f3xx_hal_rcc_ex.c ****       {
 1089              		.loc 1 805 0 is_stmt 0 discriminator 4
 1090 01fc 4E4B     		ldr	r3, .L242
 1091 01fe 1B6A     		ldr	r3, [r3, #32]
 1092 0200 01E0     		b	.L60
 1093              	.L63:
 805:Drivers/STM32F3xx_HAL_Driver/Src/stm32f3xx_hal_rcc_ex.c ****       {
 1094              		.loc 1 805 0 discriminator 5
 1095 0202 4D4B     		ldr	r3, .L242
 1096 0204 5B6A     		ldr	r3, [r3, #36]
 1097              	.L60:
 1098 0206 4FF40032 		mov	r2, #131072
 1099 020a C7F8E422 		str	r2, [r7, #740]
 1100              	.LBB246:
 1101              	.LBB247:
 491:Drivers/CMSIS/Include/core_cmInstr.h ****    return(result);
 1102              		.loc 2 491 0 is_stmt 1 discriminator 8
 1103 020e D7F8E422 		ldr	r2, [r7, #740]
 1104              		.syntax unified
 1105              	@ 491 "Drivers/CMSIS/Include/core_cmInstr.h" 1
 1106 0212 92FAA2F1 		rbit r1, r2
 1107              	@ 0 "" 2
 1108              		.thumb
 1109              		.syntax unified
 1110 0216 07F5AA72 		add	r2, r7, #340
 1111 021a 1160     		str	r1, [r2]
 492:Drivers/CMSIS/Include/core_cmInstr.h **** }
 1112              		.loc 2 492 0 discriminator 8
 1113 021c 07F5AA72 		add	r2, r7, #340
 1114 0220 1268     		ldr	r2, [r2]
 1115 0222 C7F8F022 		str	r2, [r7, #752]
 1116              	.LBE247:
 1117              	.LBE246:
 1118              	.LBB248:
 1119              	.LBB249:
ARM GAS  /tmp/cc4ZCISd.s 			page 47


 666:Drivers/CMSIS/Include/core_cmInstr.h ****   return(result);
 1120              		.loc 2 666 0 discriminator 8
 1121 0226 D7F8F022 		ldr	r2, [r7, #752]
 1122              		.syntax unified
 1123              	@ 666 "Drivers/CMSIS/Include/core_cmInstr.h" 1
 1124 022a B2FA82F1 		clz r1, r2
 1125              	@ 0 "" 2
 1126              		.thumb
 1127              		.syntax unified
 1128 022e 07F5AC72 		add	r2, r7, #344
 1129 0232 1160     		str	r1, [r2]
 1130              		.loc 2 667 0 discriminator 8
 1131 0234 07F5AC72 		add	r2, r7, #344
 1132 0238 1268     		ldr	r2, [r2]
 1133 023a D2B2     		uxtb	r2, r2
 1134              	.LBE249:
 1135              	.LBE248:
 805:Drivers/STM32F3xx_HAL_Driver/Src/stm32f3xx_hal_rcc_ex.c ****       {
 1136              		.loc 1 805 0 discriminator 8
 1137 023c 42F02002 		orr	r2, r2, #32
 1138 0240 D2B2     		uxtb	r2, r2
 1139 0242 02F01F02 		and	r2, r2, #31
 1140 0246 0121     		movs	r1, #1
 1141 0248 01FA02F2 		lsl	r2, r1, r2
 1142 024c 1340     		ands	r3, r3, r2
 1143 024e 002B     		cmp	r3, #0
 1144 0250 80D1     		bne	.L67
 810:Drivers/STM32F3xx_HAL_Driver/Src/stm32f3xx_hal_rcc_ex.c ****         }
 811:Drivers/STM32F3xx_HAL_Driver/Src/stm32f3xx_hal_rcc_ex.c ****       }
 812:Drivers/STM32F3xx_HAL_Driver/Src/stm32f3xx_hal_rcc_ex.c **** 
 813:Drivers/STM32F3xx_HAL_Driver/Src/stm32f3xx_hal_rcc_ex.c ****       /* Set the new HSE configuration ---------------------------------------*/
 814:Drivers/STM32F3xx_HAL_Driver/Src/stm32f3xx_hal_rcc_ex.c ****       __HAL_RCC_HSE_CONFIG(RCC_OscInitStruct->HSEState);
 1145              		.loc 1 814 0
 1146 0252 3A4A     		ldr	r2, .L242+4
 1147 0254 3B1D     		adds	r3, r7, #4
 1148 0256 1B68     		ldr	r3, [r3]
 1149 0258 5B68     		ldr	r3, [r3, #4]
 1150 025a DBB2     		uxtb	r3, r3
 1151 025c 1370     		strb	r3, [r2]
 815:Drivers/STM32F3xx_HAL_Driver/Src/stm32f3xx_hal_rcc_ex.c **** 
 816:Drivers/STM32F3xx_HAL_Driver/Src/stm32f3xx_hal_rcc_ex.c **** #if defined(STM32F302xC) || defined(STM32F303xC) || defined(STM32F358xx) || \
 817:Drivers/STM32F3xx_HAL_Driver/Src/stm32f3xx_hal_rcc_ex.c ****     defined(STM32F303x8) || defined(STM32F334x8) || defined(STM32F328xx) || \
 818:Drivers/STM32F3xx_HAL_Driver/Src/stm32f3xx_hal_rcc_ex.c ****     defined(STM32F301x8) || defined(STM32F302x8) || defined(STM32F318xx) || \
 819:Drivers/STM32F3xx_HAL_Driver/Src/stm32f3xx_hal_rcc_ex.c ****     defined(STM32F373xC) || defined(STM32F378xx)
 820:Drivers/STM32F3xx_HAL_Driver/Src/stm32f3xx_hal_rcc_ex.c ****       /* Configure the HSE predivision factor --------------------------------*/
 821:Drivers/STM32F3xx_HAL_Driver/Src/stm32f3xx_hal_rcc_ex.c ****       __HAL_RCC_HSE_PREDIV_CONFIG(RCC_OscInitStruct->HSEPredivValue);
 1152              		.loc 1 821 0
 1153 025e 3649     		ldr	r1, .L242
 1154 0260 354B     		ldr	r3, .L242
 1155 0262 DB6A     		ldr	r3, [r3, #44]
 1156 0264 23F00F02 		bic	r2, r3, #15
 1157 0268 3B1D     		adds	r3, r7, #4
 1158 026a 1B68     		ldr	r3, [r3]
 1159 026c 9B68     		ldr	r3, [r3, #8]
 1160 026e 1343     		orrs	r3, r3, r2
 1161 0270 CB62     		str	r3, [r1, #44]
 822:Drivers/STM32F3xx_HAL_Driver/Src/stm32f3xx_hal_rcc_ex.c **** #endif /* STM32F302xC || STM32F303xC || STM32F358xx || */
ARM GAS  /tmp/cc4ZCISd.s 			page 48


 823:Drivers/STM32F3xx_HAL_Driver/Src/stm32f3xx_hal_rcc_ex.c ****        /* STM32F303x8 || STM32F334x8 || STM32F328xx || */
 824:Drivers/STM32F3xx_HAL_Driver/Src/stm32f3xx_hal_rcc_ex.c ****        /* STM32F301x8 || STM32F302x8 || STM32F318xx    */
 825:Drivers/STM32F3xx_HAL_Driver/Src/stm32f3xx_hal_rcc_ex.c ****        /* STM32F373xC || STM32F378xx                   */
 826:Drivers/STM32F3xx_HAL_Driver/Src/stm32f3xx_hal_rcc_ex.c **** 
 827:Drivers/STM32F3xx_HAL_Driver/Src/stm32f3xx_hal_rcc_ex.c ****       /* Check the HSE State */
 828:Drivers/STM32F3xx_HAL_Driver/Src/stm32f3xx_hal_rcc_ex.c ****       if(RCC_OscInitStruct->HSEState == RCC_HSE_ON)
 1162              		.loc 1 828 0
 1163 0272 3B1D     		adds	r3, r7, #4
 1164 0274 1B68     		ldr	r3, [r3]
 1165 0276 5B68     		ldr	r3, [r3, #4]
 1166 0278 012B     		cmp	r3, #1
 1167 027a 40F08B80 		bne	.L68
 829:Drivers/STM32F3xx_HAL_Driver/Src/stm32f3xx_hal_rcc_ex.c ****       {
 830:Drivers/STM32F3xx_HAL_Driver/Src/stm32f3xx_hal_rcc_ex.c ****         /* Get timeout */
 831:Drivers/STM32F3xx_HAL_Driver/Src/stm32f3xx_hal_rcc_ex.c ****         tickstart = HAL_GetTick();
 1168              		.loc 1 831 0
 1169 027e FFF7FEFF 		bl	HAL_GetTick
 1170 0282 C7F8FC02 		str	r0, [r7, #764]
 832:Drivers/STM32F3xx_HAL_Driver/Src/stm32f3xx_hal_rcc_ex.c ****         
 833:Drivers/STM32F3xx_HAL_Driver/Src/stm32f3xx_hal_rcc_ex.c ****         /* Wait till HSE is ready */  
 834:Drivers/STM32F3xx_HAL_Driver/Src/stm32f3xx_hal_rcc_ex.c ****         while(__HAL_RCC_GET_FLAG(RCC_FLAG_HSERDY) == RESET)
 1171              		.loc 1 834 0
 1172 0286 0CE0     		b	.L69
 1173              	.L80:
 835:Drivers/STM32F3xx_HAL_Driver/Src/stm32f3xx_hal_rcc_ex.c ****         {
 836:Drivers/STM32F3xx_HAL_Driver/Src/stm32f3xx_hal_rcc_ex.c ****           if((HAL_GetTick()-tickstart) > HSE_TIMEOUT_VALUE)
 1174              		.loc 1 836 0
 1175 0288 FFF7FEFF 		bl	HAL_GetTick
 1176 028c 0246     		mov	r2, r0
 1177 028e D7F8FC32 		ldr	r3, [r7, #764]
 1178 0292 D31A     		subs	r3, r2, r3
 1179 0294 41F28832 		movw	r2, #5000
 1180 0298 9342     		cmp	r3, r2
 1181 029a 02D9     		bls	.L69
 837:Drivers/STM32F3xx_HAL_Driver/Src/stm32f3xx_hal_rcc_ex.c ****           {
 838:Drivers/STM32F3xx_HAL_Driver/Src/stm32f3xx_hal_rcc_ex.c ****             return HAL_TIMEOUT;
 1182              		.loc 1 838 0
 1183 029c 0323     		movs	r3, #3
 1184 029e 00F0C4BF 		b	.L55
 1185              	.L69:
 1186 02a2 4FF40033 		mov	r3, #131072
 1187 02a6 C7F8DC32 		str	r3, [r7, #732]
 1188              	.LBB250:
 1189              	.LBB251:
 491:Drivers/CMSIS/Include/core_cmInstr.h ****    return(result);
 1190              		.loc 2 491 0
 1191 02aa D7F8DC32 		ldr	r3, [r7, #732]
 1192              		.syntax unified
 1193              	@ 491 "Drivers/CMSIS/Include/core_cmInstr.h" 1
 1194 02ae 93FAA3F2 		rbit r2, r3
 1195              	@ 0 "" 2
 1196              		.thumb
 1197              		.syntax unified
 1198 02b2 07F5A673 		add	r3, r7, #332
 1199 02b6 1A60     		str	r2, [r3]
 492:Drivers/CMSIS/Include/core_cmInstr.h **** }
 1200              		.loc 2 492 0
ARM GAS  /tmp/cc4ZCISd.s 			page 49


 1201 02b8 07F5A673 		add	r3, r7, #332
 1202 02bc 1B68     		ldr	r3, [r3]
 1203 02be C7F8E832 		str	r3, [r7, #744]
 1204              	.LBE251:
 1205              	.LBE250:
 1206              	.LBB252:
 1207              	.LBB253:
 666:Drivers/CMSIS/Include/core_cmInstr.h ****   return(result);
 1208              		.loc 2 666 0
 1209 02c2 D7F8E832 		ldr	r3, [r7, #744]
 1210              		.syntax unified
 1211              	@ 666 "Drivers/CMSIS/Include/core_cmInstr.h" 1
 1212 02c6 B3FA83F2 		clz r2, r3
 1213              	@ 0 "" 2
 1214              		.thumb
 1215              		.syntax unified
 1216 02ca 07F5A873 		add	r3, r7, #336
 1217 02ce 1A60     		str	r2, [r3]
 1218              		.loc 2 667 0
 1219 02d0 07F5A873 		add	r3, r7, #336
 1220 02d4 1B68     		ldr	r3, [r3]
 1221 02d6 DBB2     		uxtb	r3, r3
 1222              	.LBE253:
 1223              	.LBE252:
 834:Drivers/STM32F3xx_HAL_Driver/Src/stm32f3xx_hal_rcc_ex.c ****         {
 1224              		.loc 1 834 0
 1225 02d8 43F02003 		orr	r3, r3, #32
 1226 02dc DBB2     		uxtb	r3, r3
 1227 02de 5B09     		lsrs	r3, r3, #5
 1228 02e0 DBB2     		uxtb	r3, r3
 1229 02e2 012B     		cmp	r3, #1
 1230 02e4 02D1     		bne	.L72
 834:Drivers/STM32F3xx_HAL_Driver/Src/stm32f3xx_hal_rcc_ex.c ****         {
 1231              		.loc 1 834 0 is_stmt 0 discriminator 1
 1232 02e6 144B     		ldr	r3, .L242
 1233 02e8 1B68     		ldr	r3, [r3]
 1234 02ea 2BE0     		b	.L73
 1235              	.L72:
 1236 02ec 4FF40033 		mov	r3, #131072
 1237 02f0 C7F8D432 		str	r3, [r7, #724]
 1238              	.LBB254:
 1239              	.LBB255:
 491:Drivers/CMSIS/Include/core_cmInstr.h ****    return(result);
 1240              		.loc 2 491 0 is_stmt 1 discriminator 2
 1241 02f4 D7F8D432 		ldr	r3, [r7, #724]
 1242              		.syntax unified
 1243              	@ 491 "Drivers/CMSIS/Include/core_cmInstr.h" 1
 1244 02f8 93FAA3F2 		rbit r2, r3
 1245              	@ 0 "" 2
 1246              		.thumb
 1247              		.syntax unified
 1248 02fc 07F5A273 		add	r3, r7, #324
 1249 0300 1A60     		str	r2, [r3]
 492:Drivers/CMSIS/Include/core_cmInstr.h **** }
 1250              		.loc 2 492 0 discriminator 2
 1251 0302 07F5A273 		add	r3, r7, #324
 1252 0306 1B68     		ldr	r3, [r3]
ARM GAS  /tmp/cc4ZCISd.s 			page 50


 1253 0308 C7F8E032 		str	r3, [r7, #736]
 1254              	.LBE255:
 1255              	.LBE254:
 1256              	.LBB256:
 1257              	.LBB257:
 666:Drivers/CMSIS/Include/core_cmInstr.h ****   return(result);
 1258              		.loc 2 666 0 discriminator 2
 1259 030c D7F8E032 		ldr	r3, [r7, #736]
 1260              		.syntax unified
 1261              	@ 666 "Drivers/CMSIS/Include/core_cmInstr.h" 1
 1262 0310 B3FA83F2 		clz r2, r3
 1263              	@ 0 "" 2
 1264              		.thumb
 1265              		.syntax unified
 1266 0314 07F5A473 		add	r3, r7, #328
 1267 0318 1A60     		str	r2, [r3]
 1268              		.loc 2 667 0 discriminator 2
 1269 031a 07F5A473 		add	r3, r7, #328
 1270 031e 1B68     		ldr	r3, [r3]
 1271 0320 DBB2     		uxtb	r3, r3
 1272              	.LBE257:
 1273              	.LBE256:
 834:Drivers/STM32F3xx_HAL_Driver/Src/stm32f3xx_hal_rcc_ex.c ****         {
 1274              		.loc 1 834 0 discriminator 2
 1275 0322 43F02003 		orr	r3, r3, #32
 1276 0326 DBB2     		uxtb	r3, r3
 1277 0328 5B09     		lsrs	r3, r3, #5
 1278 032a DBB2     		uxtb	r3, r3
 1279 032c 022B     		cmp	r3, #2
 1280 032e 07D1     		bne	.L76
 834:Drivers/STM32F3xx_HAL_Driver/Src/stm32f3xx_hal_rcc_ex.c ****         {
 1281              		.loc 1 834 0 is_stmt 0 discriminator 4
 1282 0330 014B     		ldr	r3, .L242
 1283 0332 1B6A     		ldr	r3, [r3, #32]
 1284 0334 06E0     		b	.L73
 1285              	.L243:
 1286 0336 00BF     		.align	2
 1287              	.L242:
 1288 0338 00100240 		.word	1073876992
 1289 033c 02100240 		.word	1073876994
 1290              	.L76:
 834:Drivers/STM32F3xx_HAL_Driver/Src/stm32f3xx_hal_rcc_ex.c ****         {
 1291              		.loc 1 834 0 discriminator 5
 1292 0340 C04B     		ldr	r3, .L244
 1293 0342 5B6A     		ldr	r3, [r3, #36]
 1294              	.L73:
 1295 0344 4FF40032 		mov	r2, #131072
 1296 0348 C7F8CC22 		str	r2, [r7, #716]
 1297              	.LBB258:
 1298              	.LBB259:
 491:Drivers/CMSIS/Include/core_cmInstr.h ****    return(result);
 1299              		.loc 2 491 0 is_stmt 1 discriminator 8
 1300 034c D7F8CC22 		ldr	r2, [r7, #716]
 1301              		.syntax unified
 1302              	@ 491 "Drivers/CMSIS/Include/core_cmInstr.h" 1
 1303 0350 92FAA2F1 		rbit r1, r2
 1304              	@ 0 "" 2
ARM GAS  /tmp/cc4ZCISd.s 			page 51


 1305              		.thumb
 1306              		.syntax unified
 1307 0354 07F59E72 		add	r2, r7, #316
 1308 0358 1160     		str	r1, [r2]
 492:Drivers/CMSIS/Include/core_cmInstr.h **** }
 1309              		.loc 2 492 0 discriminator 8
 1310 035a 07F59E72 		add	r2, r7, #316
 1311 035e 1268     		ldr	r2, [r2]
 1312 0360 C7F8D822 		str	r2, [r7, #728]
 1313              	.LBE259:
 1314              	.LBE258:
 1315              	.LBB260:
 1316              	.LBB261:
 666:Drivers/CMSIS/Include/core_cmInstr.h ****   return(result);
 1317              		.loc 2 666 0 discriminator 8
 1318 0364 D7F8D822 		ldr	r2, [r7, #728]
 1319              		.syntax unified
 1320              	@ 666 "Drivers/CMSIS/Include/core_cmInstr.h" 1
 1321 0368 B2FA82F1 		clz r1, r2
 1322              	@ 0 "" 2
 1323              		.thumb
 1324              		.syntax unified
 1325 036c 07F5A072 		add	r2, r7, #320
 1326 0370 1160     		str	r1, [r2]
 1327              		.loc 2 667 0 discriminator 8
 1328 0372 07F5A072 		add	r2, r7, #320
 1329 0376 1268     		ldr	r2, [r2]
 1330 0378 D2B2     		uxtb	r2, r2
 1331              	.LBE261:
 1332              	.LBE260:
 834:Drivers/STM32F3xx_HAL_Driver/Src/stm32f3xx_hal_rcc_ex.c ****         {
 1333              		.loc 1 834 0 discriminator 8
 1334 037a 42F02002 		orr	r2, r2, #32
 1335 037e D2B2     		uxtb	r2, r2
 1336 0380 02F01F02 		and	r2, r2, #31
 1337 0384 0121     		movs	r1, #1
 1338 0386 01FA02F2 		lsl	r2, r1, r2
 1339 038a 1340     		ands	r3, r3, r2
 1340 038c 002B     		cmp	r3, #0
 1341 038e 3FF47BAF 		beq	.L80
 1342 0392 85E0     		b	.L41
 1343              	.L68:
 839:Drivers/STM32F3xx_HAL_Driver/Src/stm32f3xx_hal_rcc_ex.c ****           }
 840:Drivers/STM32F3xx_HAL_Driver/Src/stm32f3xx_hal_rcc_ex.c ****         }
 841:Drivers/STM32F3xx_HAL_Driver/Src/stm32f3xx_hal_rcc_ex.c ****       }
 842:Drivers/STM32F3xx_HAL_Driver/Src/stm32f3xx_hal_rcc_ex.c ****       else
 843:Drivers/STM32F3xx_HAL_Driver/Src/stm32f3xx_hal_rcc_ex.c ****       {
 844:Drivers/STM32F3xx_HAL_Driver/Src/stm32f3xx_hal_rcc_ex.c ****         /* Get timeout */
 845:Drivers/STM32F3xx_HAL_Driver/Src/stm32f3xx_hal_rcc_ex.c ****         tickstart = HAL_GetTick();
 1344              		.loc 1 845 0
 1345 0394 FFF7FEFF 		bl	HAL_GetTick
 1346 0398 C7F8FC02 		str	r0, [r7, #764]
 846:Drivers/STM32F3xx_HAL_Driver/Src/stm32f3xx_hal_rcc_ex.c **** 
 847:Drivers/STM32F3xx_HAL_Driver/Src/stm32f3xx_hal_rcc_ex.c ****         /* Wait till HSE is bypassed or disabled */
 848:Drivers/STM32F3xx_HAL_Driver/Src/stm32f3xx_hal_rcc_ex.c ****         while(__HAL_RCC_GET_FLAG(RCC_FLAG_HSERDY) != RESET)
 1347              		.loc 1 848 0
 1348 039c 0CE0     		b	.L81
ARM GAS  /tmp/cc4ZCISd.s 			page 52


 1349              	.L92:
 849:Drivers/STM32F3xx_HAL_Driver/Src/stm32f3xx_hal_rcc_ex.c ****         {
 850:Drivers/STM32F3xx_HAL_Driver/Src/stm32f3xx_hal_rcc_ex.c ****           if((HAL_GetTick()-tickstart) > HSE_TIMEOUT_VALUE)
 1350              		.loc 1 850 0
 1351 039e FFF7FEFF 		bl	HAL_GetTick
 1352 03a2 0246     		mov	r2, r0
 1353 03a4 D7F8FC32 		ldr	r3, [r7, #764]
 1354 03a8 D31A     		subs	r3, r2, r3
 1355 03aa 41F28832 		movw	r2, #5000
 1356 03ae 9342     		cmp	r3, r2
 1357 03b0 02D9     		bls	.L81
 851:Drivers/STM32F3xx_HAL_Driver/Src/stm32f3xx_hal_rcc_ex.c ****           {
 852:Drivers/STM32F3xx_HAL_Driver/Src/stm32f3xx_hal_rcc_ex.c ****             return HAL_TIMEOUT;
 1358              		.loc 1 852 0
 1359 03b2 0323     		movs	r3, #3
 1360 03b4 00F039BF 		b	.L55
 1361              	.L81:
 1362 03b8 4FF40033 		mov	r3, #131072
 1363 03bc C7F8C432 		str	r3, [r7, #708]
 1364              	.LBB262:
 1365              	.LBB263:
 491:Drivers/CMSIS/Include/core_cmInstr.h ****    return(result);
 1366              		.loc 2 491 0
 1367 03c0 D7F8C432 		ldr	r3, [r7, #708]
 1368              		.syntax unified
 1369              	@ 491 "Drivers/CMSIS/Include/core_cmInstr.h" 1
 1370 03c4 93FAA3F2 		rbit r2, r3
 1371              	@ 0 "" 2
 1372              		.thumb
 1373              		.syntax unified
 1374 03c8 07F59A73 		add	r3, r7, #308
 1375 03cc 1A60     		str	r2, [r3]
 492:Drivers/CMSIS/Include/core_cmInstr.h **** }
 1376              		.loc 2 492 0
 1377 03ce 07F59A73 		add	r3, r7, #308
 1378 03d2 1B68     		ldr	r3, [r3]
 1379 03d4 C7F8D032 		str	r3, [r7, #720]
 1380              	.LBE263:
 1381              	.LBE262:
 1382              	.LBB264:
 1383              	.LBB265:
 666:Drivers/CMSIS/Include/core_cmInstr.h ****   return(result);
 1384              		.loc 2 666 0
 1385 03d8 D7F8D032 		ldr	r3, [r7, #720]
 1386              		.syntax unified
 1387              	@ 666 "Drivers/CMSIS/Include/core_cmInstr.h" 1
 1388 03dc B3FA83F2 		clz r2, r3
 1389              	@ 0 "" 2
 1390              		.thumb
 1391              		.syntax unified
 1392 03e0 07F59C73 		add	r3, r7, #312
 1393 03e4 1A60     		str	r2, [r3]
 1394              		.loc 2 667 0
 1395 03e6 07F59C73 		add	r3, r7, #312
 1396 03ea 1B68     		ldr	r3, [r3]
 1397 03ec DBB2     		uxtb	r3, r3
 1398              	.LBE265:
ARM GAS  /tmp/cc4ZCISd.s 			page 53


 1399              	.LBE264:
 848:Drivers/STM32F3xx_HAL_Driver/Src/stm32f3xx_hal_rcc_ex.c ****         {
 1400              		.loc 1 848 0
 1401 03ee 43F02003 		orr	r3, r3, #32
 1402 03f2 DBB2     		uxtb	r3, r3
 1403 03f4 5B09     		lsrs	r3, r3, #5
 1404 03f6 DBB2     		uxtb	r3, r3
 1405 03f8 012B     		cmp	r3, #1
 1406 03fa 02D1     		bne	.L84
 848:Drivers/STM32F3xx_HAL_Driver/Src/stm32f3xx_hal_rcc_ex.c ****         {
 1407              		.loc 1 848 0 is_stmt 0 discriminator 1
 1408 03fc 914B     		ldr	r3, .L244
 1409 03fe 1B68     		ldr	r3, [r3]
 1410 0400 26E0     		b	.L85
 1411              	.L84:
 1412 0402 4FF40033 		mov	r3, #131072
 1413 0406 C7F8BC32 		str	r3, [r7, #700]
 1414              	.LBB266:
 1415              	.LBB267:
 491:Drivers/CMSIS/Include/core_cmInstr.h ****    return(result);
 1416              		.loc 2 491 0 is_stmt 1 discriminator 2
 1417 040a D7F8BC32 		ldr	r3, [r7, #700]
 1418              		.syntax unified
 1419              	@ 491 "Drivers/CMSIS/Include/core_cmInstr.h" 1
 1420 040e 93FAA3F2 		rbit r2, r3
 1421              	@ 0 "" 2
 1422              		.thumb
 1423              		.syntax unified
 1424 0412 07F59673 		add	r3, r7, #300
 1425 0416 1A60     		str	r2, [r3]
 492:Drivers/CMSIS/Include/core_cmInstr.h **** }
 1426              		.loc 2 492 0 discriminator 2
 1427 0418 07F59673 		add	r3, r7, #300
 1428 041c 1B68     		ldr	r3, [r3]
 1429 041e C7F8C832 		str	r3, [r7, #712]
 1430              	.LBE267:
 1431              	.LBE266:
 1432              	.LBB268:
 1433              	.LBB269:
 666:Drivers/CMSIS/Include/core_cmInstr.h ****   return(result);
 1434              		.loc 2 666 0 discriminator 2
 1435 0422 D7F8C832 		ldr	r3, [r7, #712]
 1436              		.syntax unified
 1437              	@ 666 "Drivers/CMSIS/Include/core_cmInstr.h" 1
 1438 0426 B3FA83F2 		clz r2, r3
 1439              	@ 0 "" 2
 1440              		.thumb
 1441              		.syntax unified
 1442 042a 07F59873 		add	r3, r7, #304
 1443 042e 1A60     		str	r2, [r3]
 1444              		.loc 2 667 0 discriminator 2
 1445 0430 07F59873 		add	r3, r7, #304
 1446 0434 1B68     		ldr	r3, [r3]
 1447 0436 DBB2     		uxtb	r3, r3
 1448              	.LBE269:
 1449              	.LBE268:
 848:Drivers/STM32F3xx_HAL_Driver/Src/stm32f3xx_hal_rcc_ex.c ****         {
ARM GAS  /tmp/cc4ZCISd.s 			page 54


 1450              		.loc 1 848 0 discriminator 2
 1451 0438 43F02003 		orr	r3, r3, #32
 1452 043c DBB2     		uxtb	r3, r3
 1453 043e 5B09     		lsrs	r3, r3, #5
 1454 0440 DBB2     		uxtb	r3, r3
 1455 0442 022B     		cmp	r3, #2
 1456 0444 02D1     		bne	.L88
 848:Drivers/STM32F3xx_HAL_Driver/Src/stm32f3xx_hal_rcc_ex.c ****         {
 1457              		.loc 1 848 0 is_stmt 0 discriminator 4
 1458 0446 7F4B     		ldr	r3, .L244
 1459 0448 1B6A     		ldr	r3, [r3, #32]
 1460 044a 01E0     		b	.L85
 1461              	.L88:
 848:Drivers/STM32F3xx_HAL_Driver/Src/stm32f3xx_hal_rcc_ex.c ****         {
 1462              		.loc 1 848 0 discriminator 5
 1463 044c 7D4B     		ldr	r3, .L244
 1464 044e 5B6A     		ldr	r3, [r3, #36]
 1465              	.L85:
 1466 0450 4FF40032 		mov	r2, #131072
 1467 0454 C7F8B422 		str	r2, [r7, #692]
 1468              	.LBB270:
 1469              	.LBB271:
 491:Drivers/CMSIS/Include/core_cmInstr.h ****    return(result);
 1470              		.loc 2 491 0 is_stmt 1 discriminator 8
 1471 0458 D7F8B422 		ldr	r2, [r7, #692]
 1472              		.syntax unified
 1473              	@ 491 "Drivers/CMSIS/Include/core_cmInstr.h" 1
 1474 045c 92FAA2F1 		rbit r1, r2
 1475              	@ 0 "" 2
 1476              		.thumb
 1477              		.syntax unified
 1478 0460 07F59272 		add	r2, r7, #292
 1479 0464 1160     		str	r1, [r2]
 492:Drivers/CMSIS/Include/core_cmInstr.h **** }
 1480              		.loc 2 492 0 discriminator 8
 1481 0466 07F59272 		add	r2, r7, #292
 1482 046a 1268     		ldr	r2, [r2]
 1483 046c C7F8C022 		str	r2, [r7, #704]
 1484              	.LBE271:
 1485              	.LBE270:
 1486              	.LBB272:
 1487              	.LBB273:
 666:Drivers/CMSIS/Include/core_cmInstr.h ****   return(result);
 1488              		.loc 2 666 0 discriminator 8
 1489 0470 D7F8C022 		ldr	r2, [r7, #704]
 1490              		.syntax unified
 1491              	@ 666 "Drivers/CMSIS/Include/core_cmInstr.h" 1
 1492 0474 B2FA82F1 		clz r1, r2
 1493              	@ 0 "" 2
 1494              		.thumb
 1495              		.syntax unified
 1496 0478 07F59472 		add	r2, r7, #296
 1497 047c 1160     		str	r1, [r2]
 1498              		.loc 2 667 0 discriminator 8
 1499 047e 07F59472 		add	r2, r7, #296
 1500 0482 1268     		ldr	r2, [r2]
 1501 0484 D2B2     		uxtb	r2, r2
ARM GAS  /tmp/cc4ZCISd.s 			page 55


 1502              	.LBE273:
 1503              	.LBE272:
 848:Drivers/STM32F3xx_HAL_Driver/Src/stm32f3xx_hal_rcc_ex.c ****         {
 1504              		.loc 1 848 0 discriminator 8
 1505 0486 42F02002 		orr	r2, r2, #32
 1506 048a D2B2     		uxtb	r2, r2
 1507 048c 02F01F02 		and	r2, r2, #31
 1508 0490 0121     		movs	r1, #1
 1509 0492 01FA02F2 		lsl	r2, r1, r2
 1510 0496 1340     		ands	r3, r3, r2
 1511 0498 002B     		cmp	r3, #0
 1512 049a 80D1     		bne	.L92
 1513 049c 00E0     		b	.L41
 1514              	.L241:
 791:Drivers/STM32F3xx_HAL_Driver/Src/stm32f3xx_hal_rcc_ex.c ****       {
 1515              		.loc 1 791 0
 1516 049e 00BF     		nop
 1517              	.L41:
 853:Drivers/STM32F3xx_HAL_Driver/Src/stm32f3xx_hal_rcc_ex.c ****           }
 854:Drivers/STM32F3xx_HAL_Driver/Src/stm32f3xx_hal_rcc_ex.c ****         }
 855:Drivers/STM32F3xx_HAL_Driver/Src/stm32f3xx_hal_rcc_ex.c ****       }
 856:Drivers/STM32F3xx_HAL_Driver/Src/stm32f3xx_hal_rcc_ex.c ****     }
 857:Drivers/STM32F3xx_HAL_Driver/Src/stm32f3xx_hal_rcc_ex.c ****   }
 858:Drivers/STM32F3xx_HAL_Driver/Src/stm32f3xx_hal_rcc_ex.c ****   /*----------------------------- HSI Configuration --------------------------*/
 859:Drivers/STM32F3xx_HAL_Driver/Src/stm32f3xx_hal_rcc_ex.c ****   if(((RCC_OscInitStruct->OscillatorType) & RCC_OSCILLATORTYPE_HSI) == RCC_OSCILLATORTYPE_HSI)
 1518              		.loc 1 859 0
 1519 04a0 3B1D     		adds	r3, r7, #4
 1520 04a2 1B68     		ldr	r3, [r3]
 1521 04a4 1B68     		ldr	r3, [r3]
 1522 04a6 03F00203 		and	r3, r3, #2
 1523 04aa 002B     		cmp	r3, #0
 1524 04ac 00F0E581 		beq	.L93
 860:Drivers/STM32F3xx_HAL_Driver/Src/stm32f3xx_hal_rcc_ex.c ****   {
 861:Drivers/STM32F3xx_HAL_Driver/Src/stm32f3xx_hal_rcc_ex.c ****     /* Check the parameters */
 862:Drivers/STM32F3xx_HAL_Driver/Src/stm32f3xx_hal_rcc_ex.c ****     assert_param(IS_RCC_HSI(RCC_OscInitStruct->HSIState));
 863:Drivers/STM32F3xx_HAL_Driver/Src/stm32f3xx_hal_rcc_ex.c ****     assert_param(IS_RCC_CALIBRATION_VALUE(RCC_OscInitStruct->HSICalibrationValue));
 864:Drivers/STM32F3xx_HAL_Driver/Src/stm32f3xx_hal_rcc_ex.c **** 
 865:Drivers/STM32F3xx_HAL_Driver/Src/stm32f3xx_hal_rcc_ex.c ****     /* Check if HSI is used as system clock or as PLL source when PLL is selected as system clock *
 866:Drivers/STM32F3xx_HAL_Driver/Src/stm32f3xx_hal_rcc_ex.c ****     if((__HAL_RCC_GET_SYSCLK_SOURCE() == RCC_SYSCLKSOURCE_STATUS_HSI) ||
 1525              		.loc 1 866 0
 1526 04b0 644B     		ldr	r3, .L244
 1527 04b2 5B68     		ldr	r3, [r3, #4]
 1528 04b4 03F00C03 		and	r3, r3, #12
 1529 04b8 002B     		cmp	r3, #0
 1530 04ba 0DD0     		beq	.L94
 867:Drivers/STM32F3xx_HAL_Driver/Src/stm32f3xx_hal_rcc_ex.c ****        ((__HAL_RCC_GET_SYSCLK_SOURCE() == RCC_SYSCLKSOURCE_STATUS_PLLCLK) && (__HAL_RCC_GET_PLL_OSC
 1531              		.loc 1 867 0 discriminator 1
 1532 04bc 614B     		ldr	r3, .L244
 1533 04be 5B68     		ldr	r3, [r3, #4]
 1534 04c0 03F00C03 		and	r3, r3, #12
 866:Drivers/STM32F3xx_HAL_Driver/Src/stm32f3xx_hal_rcc_ex.c ****        ((__HAL_RCC_GET_SYSCLK_SOURCE() == RCC_SYSCLKSOURCE_STATUS_PLLCLK) && (__HAL_RCC_GET_PLL_OSC
 1535              		.loc 1 866 0 discriminator 1
 1536 04c4 082B     		cmp	r3, #8
 1537 04c6 40F0A480 		bne	.L95
 1538              		.loc 1 867 0
 1539 04ca 5E4B     		ldr	r3, .L244
 1540 04cc 5B68     		ldr	r3, [r3, #4]
ARM GAS  /tmp/cc4ZCISd.s 			page 56


 1541 04ce 03F48033 		and	r3, r3, #65536
 1542 04d2 002B     		cmp	r3, #0
 1543 04d4 40F09D80 		bne	.L95
 1544              	.L94:
 1545 04d8 0223     		movs	r3, #2
 1546 04da C7F85C32 		str	r3, [r7, #604]
 1547              	.LBB274:
 1548              	.LBB275:
 491:Drivers/CMSIS/Include/core_cmInstr.h ****    return(result);
 1549              		.loc 2 491 0
 1550 04de D7F85C32 		ldr	r3, [r7, #604]
 1551              		.syntax unified
 1552              	@ 491 "Drivers/CMSIS/Include/core_cmInstr.h" 1
 1553 04e2 93FAA3F2 		rbit r2, r3
 1554              	@ 0 "" 2
 1555              		.thumb
 1556              		.syntax unified
 1557 04e6 07F58E73 		add	r3, r7, #284
 1558 04ea 1A60     		str	r2, [r3]
 492:Drivers/CMSIS/Include/core_cmInstr.h **** }
 1559              		.loc 2 492 0
 1560 04ec 07F58E73 		add	r3, r7, #284
 1561 04f0 1B68     		ldr	r3, [r3]
 1562 04f2 C7F8B832 		str	r3, [r7, #696]
 1563              	.LBE275:
 1564              	.LBE274:
 1565              	.LBB276:
 1566              	.LBB277:
 666:Drivers/CMSIS/Include/core_cmInstr.h ****   return(result);
 1567              		.loc 2 666 0
 1568 04f6 D7F8B832 		ldr	r3, [r7, #696]
 1569              		.syntax unified
 1570              	@ 666 "Drivers/CMSIS/Include/core_cmInstr.h" 1
 1571 04fa B3FA83F2 		clz r2, r3
 1572              	@ 0 "" 2
 1573              		.thumb
 1574              		.syntax unified
 1575 04fe 07F59073 		add	r3, r7, #288
 1576 0502 1A60     		str	r2, [r3]
 1577              		.loc 2 667 0
 1578 0504 07F59073 		add	r3, r7, #288
 1579 0508 1B68     		ldr	r3, [r3]
 1580 050a DBB2     		uxtb	r3, r3
 1581              	.LBE277:
 1582              	.LBE276:
 868:Drivers/STM32F3xx_HAL_Driver/Src/stm32f3xx_hal_rcc_ex.c ****     {
 869:Drivers/STM32F3xx_HAL_Driver/Src/stm32f3xx_hal_rcc_ex.c ****       /* When the HSI is used as system clock it is not allowed to be disabled */
 870:Drivers/STM32F3xx_HAL_Driver/Src/stm32f3xx_hal_rcc_ex.c ****       if((__HAL_RCC_GET_FLAG(RCC_FLAG_HSIRDY) != RESET) && (RCC_OscInitStruct->HSIState != RCC_HSI_
 1583              		.loc 1 870 0
 1584 050c 43F02003 		orr	r3, r3, #32
 1585 0510 DBB2     		uxtb	r3, r3
 1586 0512 5B09     		lsrs	r3, r3, #5
 1587 0514 DBB2     		uxtb	r3, r3
 1588 0516 012B     		cmp	r3, #1
 1589 0518 02D1     		bne	.L98
 1590              		.loc 1 870 0 is_stmt 0 discriminator 1
 1591 051a 4A4B     		ldr	r3, .L244
ARM GAS  /tmp/cc4ZCISd.s 			page 57


 1592 051c 1B68     		ldr	r3, [r3]
 1593 051e 25E0     		b	.L99
 1594              	.L98:
 1595 0520 0223     		movs	r3, #2
 1596 0522 C7F85432 		str	r3, [r7, #596]
 1597              	.LBB278:
 1598              	.LBB279:
 491:Drivers/CMSIS/Include/core_cmInstr.h ****    return(result);
 1599              		.loc 2 491 0 is_stmt 1 discriminator 2
 1600 0526 D7F85432 		ldr	r3, [r7, #596]
 1601              		.syntax unified
 1602              	@ 491 "Drivers/CMSIS/Include/core_cmInstr.h" 1
 1603 052a 93FAA3F2 		rbit r2, r3
 1604              	@ 0 "" 2
 1605              		.thumb
 1606              		.syntax unified
 1607 052e 07F58A73 		add	r3, r7, #276
 1608 0532 1A60     		str	r2, [r3]
 492:Drivers/CMSIS/Include/core_cmInstr.h **** }
 1609              		.loc 2 492 0 discriminator 2
 1610 0534 07F58A73 		add	r3, r7, #276
 1611 0538 1B68     		ldr	r3, [r3]
 1612 053a C7F86032 		str	r3, [r7, #608]
 1613              	.LBE279:
 1614              	.LBE278:
 1615              	.LBB280:
 1616              	.LBB281:
 666:Drivers/CMSIS/Include/core_cmInstr.h ****   return(result);
 1617              		.loc 2 666 0 discriminator 2
 1618 053e D7F86032 		ldr	r3, [r7, #608]
 1619              		.syntax unified
 1620              	@ 666 "Drivers/CMSIS/Include/core_cmInstr.h" 1
 1621 0542 B3FA83F2 		clz r2, r3
 1622              	@ 0 "" 2
 1623              		.thumb
 1624              		.syntax unified
 1625 0546 07F58C73 		add	r3, r7, #280
 1626 054a 1A60     		str	r2, [r3]
 1627              		.loc 2 667 0 discriminator 2
 1628 054c 07F58C73 		add	r3, r7, #280
 1629 0550 1B68     		ldr	r3, [r3]
 1630 0552 DBB2     		uxtb	r3, r3
 1631              	.LBE281:
 1632              	.LBE280:
 1633              		.loc 1 870 0 discriminator 2
 1634 0554 43F02003 		orr	r3, r3, #32
 1635 0558 DBB2     		uxtb	r3, r3
 1636 055a 5B09     		lsrs	r3, r3, #5
 1637 055c DBB2     		uxtb	r3, r3
 1638 055e 022B     		cmp	r3, #2
 1639 0560 02D1     		bne	.L102
 1640              		.loc 1 870 0 is_stmt 0 discriminator 4
 1641 0562 384B     		ldr	r3, .L244
 1642 0564 1B6A     		ldr	r3, [r3, #32]
 1643 0566 01E0     		b	.L99
 1644              	.L102:
 1645              		.loc 1 870 0 discriminator 5
ARM GAS  /tmp/cc4ZCISd.s 			page 58


 1646 0568 364B     		ldr	r3, .L244
 1647 056a 5B6A     		ldr	r3, [r3, #36]
 1648              	.L99:
 1649 056c 0222     		movs	r2, #2
 1650 056e C7F84C22 		str	r2, [r7, #588]
 1651              	.LBB282:
 1652              	.LBB283:
 491:Drivers/CMSIS/Include/core_cmInstr.h ****    return(result);
 1653              		.loc 2 491 0 is_stmt 1 discriminator 8
 1654 0572 D7F84C22 		ldr	r2, [r7, #588]
 1655              		.syntax unified
 1656              	@ 491 "Drivers/CMSIS/Include/core_cmInstr.h" 1
 1657 0576 92FAA2F1 		rbit r1, r2
 1658              	@ 0 "" 2
 1659              		.thumb
 1660              		.syntax unified
 1661 057a 07F58672 		add	r2, r7, #268
 1662 057e 1160     		str	r1, [r2]
 492:Drivers/CMSIS/Include/core_cmInstr.h **** }
 1663              		.loc 2 492 0 discriminator 8
 1664 0580 07F58672 		add	r2, r7, #268
 1665 0584 1268     		ldr	r2, [r2]
 1666 0586 C7F85822 		str	r2, [r7, #600]
 1667              	.LBE283:
 1668              	.LBE282:
 1669              	.LBB284:
 1670              	.LBB285:
 666:Drivers/CMSIS/Include/core_cmInstr.h ****   return(result);
 1671              		.loc 2 666 0 discriminator 8
 1672 058a D7F85822 		ldr	r2, [r7, #600]
 1673              		.syntax unified
 1674              	@ 666 "Drivers/CMSIS/Include/core_cmInstr.h" 1
 1675 058e B2FA82F1 		clz r1, r2
 1676              	@ 0 "" 2
 1677              		.thumb
 1678              		.syntax unified
 1679 0592 07F58872 		add	r2, r7, #272
 1680 0596 1160     		str	r1, [r2]
 1681              		.loc 2 667 0 discriminator 8
 1682 0598 07F58872 		add	r2, r7, #272
 1683 059c 1268     		ldr	r2, [r2]
 1684 059e D2B2     		uxtb	r2, r2
 1685              	.LBE285:
 1686              	.LBE284:
 1687              		.loc 1 870 0 discriminator 8
 1688 05a0 42F02002 		orr	r2, r2, #32
 1689 05a4 D2B2     		uxtb	r2, r2
 1690 05a6 02F01F02 		and	r2, r2, #31
 1691 05aa 0121     		movs	r1, #1
 1692 05ac 01FA02F2 		lsl	r2, r1, r2
 1693 05b0 1340     		ands	r3, r3, r2
 1694 05b2 002B     		cmp	r3, #0
 1695 05b4 07D0     		beq	.L106
 1696              		.loc 1 870 0 is_stmt 0 discriminator 9
 1697 05b6 3B1D     		adds	r3, r7, #4
 1698 05b8 1B68     		ldr	r3, [r3]
 1699 05ba 1B69     		ldr	r3, [r3, #16]
ARM GAS  /tmp/cc4ZCISd.s 			page 59


 1700 05bc 012B     		cmp	r3, #1
 1701 05be 02D0     		beq	.L106
 871:Drivers/STM32F3xx_HAL_Driver/Src/stm32f3xx_hal_rcc_ex.c ****       {
 872:Drivers/STM32F3xx_HAL_Driver/Src/stm32f3xx_hal_rcc_ex.c ****         return HAL_ERROR;
 1702              		.loc 1 872 0 is_stmt 1
 1703 05c0 0123     		movs	r3, #1
 1704 05c2 00F032BE 		b	.L55
 1705              	.L106:
 873:Drivers/STM32F3xx_HAL_Driver/Src/stm32f3xx_hal_rcc_ex.c ****       }
 874:Drivers/STM32F3xx_HAL_Driver/Src/stm32f3xx_hal_rcc_ex.c ****       /* Otherwise, just the calibration is allowed */
 875:Drivers/STM32F3xx_HAL_Driver/Src/stm32f3xx_hal_rcc_ex.c ****       else
 876:Drivers/STM32F3xx_HAL_Driver/Src/stm32f3xx_hal_rcc_ex.c ****       {
 877:Drivers/STM32F3xx_HAL_Driver/Src/stm32f3xx_hal_rcc_ex.c ****         /* Adjusts the Internal High Speed oscillator (HSI) calibration value.*/
 878:Drivers/STM32F3xx_HAL_Driver/Src/stm32f3xx_hal_rcc_ex.c ****         __HAL_RCC_HSI_CALIBRATIONVALUE_ADJUST(RCC_OscInitStruct->HSICalibrationValue);
 1706              		.loc 1 878 0
 1707 05c6 1F4C     		ldr	r4, .L244
 1708 05c8 1E4B     		ldr	r3, .L244
 1709 05ca 1B68     		ldr	r3, [r3]
 1710 05cc 23F0F802 		bic	r2, r3, #248
 1711 05d0 3B1D     		adds	r3, r7, #4
 1712 05d2 1B68     		ldr	r3, [r3]
 1713 05d4 5B69     		ldr	r3, [r3, #20]
 1714 05d6 F821     		movs	r1, #248
 1715 05d8 C7F84412 		str	r1, [r7, #580]
 1716              	.LBB286:
 1717              	.LBB287:
 491:Drivers/CMSIS/Include/core_cmInstr.h ****    return(result);
 1718              		.loc 2 491 0
 1719 05dc D7F84412 		ldr	r1, [r7, #580]
 1720              		.syntax unified
 1721              	@ 491 "Drivers/CMSIS/Include/core_cmInstr.h" 1
 1722 05e0 91FAA1F0 		rbit r0, r1
 1723              	@ 0 "" 2
 1724              		.thumb
 1725              		.syntax unified
 1726 05e4 07F58271 		add	r1, r7, #260
 1727 05e8 0860     		str	r0, [r1]
 492:Drivers/CMSIS/Include/core_cmInstr.h **** }
 1728              		.loc 2 492 0
 1729 05ea 07F58271 		add	r1, r7, #260
 1730 05ee 0968     		ldr	r1, [r1]
 1731 05f0 C7F85012 		str	r1, [r7, #592]
 1732              	.LBE287:
 1733              	.LBE286:
 1734              	.LBB288:
 1735              	.LBB289:
 666:Drivers/CMSIS/Include/core_cmInstr.h ****   return(result);
 1736              		.loc 2 666 0
 1737 05f4 D7F85012 		ldr	r1, [r7, #592]
 1738              		.syntax unified
 1739              	@ 666 "Drivers/CMSIS/Include/core_cmInstr.h" 1
 1740 05f8 B1FA81F0 		clz r0, r1
 1741              	@ 0 "" 2
 1742              		.thumb
 1743              		.syntax unified
 1744 05fc 07F58471 		add	r1, r7, #264
 1745 0600 0860     		str	r0, [r1]
ARM GAS  /tmp/cc4ZCISd.s 			page 60


 1746              		.loc 2 667 0
 1747 0602 07F58471 		add	r1, r7, #264
 1748 0606 0968     		ldr	r1, [r1]
 1749 0608 C9B2     		uxtb	r1, r1
 1750              	.LBE289:
 1751              	.LBE288:
 1752              		.loc 1 878 0
 1753 060a 8B40     		lsls	r3, r3, r1
 1754 060c 1343     		orrs	r3, r3, r2
 1755 060e 2360     		str	r3, [r4]
 870:Drivers/STM32F3xx_HAL_Driver/Src/stm32f3xx_hal_rcc_ex.c ****       {
 1756              		.loc 1 870 0
 1757 0610 33E1     		b	.L93
 1758              	.L95:
 879:Drivers/STM32F3xx_HAL_Driver/Src/stm32f3xx_hal_rcc_ex.c ****       }
 880:Drivers/STM32F3xx_HAL_Driver/Src/stm32f3xx_hal_rcc_ex.c ****     }
 881:Drivers/STM32F3xx_HAL_Driver/Src/stm32f3xx_hal_rcc_ex.c ****     else
 882:Drivers/STM32F3xx_HAL_Driver/Src/stm32f3xx_hal_rcc_ex.c ****     {
 883:Drivers/STM32F3xx_HAL_Driver/Src/stm32f3xx_hal_rcc_ex.c ****       /* Check the HSI State */
 884:Drivers/STM32F3xx_HAL_Driver/Src/stm32f3xx_hal_rcc_ex.c ****       if(RCC_OscInitStruct->HSIState != RCC_HSI_OFF)
 1759              		.loc 1 884 0
 1760 0612 3B1D     		adds	r3, r7, #4
 1761 0614 1B68     		ldr	r3, [r3]
 1762 0616 1B69     		ldr	r3, [r3, #16]
 1763 0618 002B     		cmp	r3, #0
 1764 061a 00F0AC80 		beq	.L109
 885:Drivers/STM32F3xx_HAL_Driver/Src/stm32f3xx_hal_rcc_ex.c ****       {
 886:Drivers/STM32F3xx_HAL_Driver/Src/stm32f3xx_hal_rcc_ex.c ****         /* Enable the Internal High Speed oscillator (HSI). */
 887:Drivers/STM32F3xx_HAL_Driver/Src/stm32f3xx_hal_rcc_ex.c ****         __HAL_RCC_HSI_ENABLE();
 1765              		.loc 1 887 0
 1766 061e 0A4B     		ldr	r3, .L244+4
 1767 0620 0122     		movs	r2, #1
 1768 0622 1A60     		str	r2, [r3]
 888:Drivers/STM32F3xx_HAL_Driver/Src/stm32f3xx_hal_rcc_ex.c **** 
 889:Drivers/STM32F3xx_HAL_Driver/Src/stm32f3xx_hal_rcc_ex.c ****         /* Get timeout */
 890:Drivers/STM32F3xx_HAL_Driver/Src/stm32f3xx_hal_rcc_ex.c ****         tickstart = HAL_GetTick();
 1769              		.loc 1 890 0
 1770 0624 FFF7FEFF 		bl	HAL_GetTick
 1771 0628 C7F8FC02 		str	r0, [r7, #764]
 891:Drivers/STM32F3xx_HAL_Driver/Src/stm32f3xx_hal_rcc_ex.c **** 
 892:Drivers/STM32F3xx_HAL_Driver/Src/stm32f3xx_hal_rcc_ex.c ****         /* Wait till HSI is ready */  
 893:Drivers/STM32F3xx_HAL_Driver/Src/stm32f3xx_hal_rcc_ex.c ****         while(__HAL_RCC_GET_FLAG(RCC_FLAG_HSIRDY) == RESET)
 1772              		.loc 1 893 0
 1773 062c 0EE0     		b	.L110
 1774              	.L121:
 894:Drivers/STM32F3xx_HAL_Driver/Src/stm32f3xx_hal_rcc_ex.c ****         {
 895:Drivers/STM32F3xx_HAL_Driver/Src/stm32f3xx_hal_rcc_ex.c ****           if((HAL_GetTick()-tickstart) > HSI_TIMEOUT_VALUE)
 1775              		.loc 1 895 0
 1776 062e FFF7FEFF 		bl	HAL_GetTick
 1777 0632 0246     		mov	r2, r0
 1778 0634 D7F8FC32 		ldr	r3, [r7, #764]
 1779 0638 D31A     		subs	r3, r2, r3
 1780 063a 642B     		cmp	r3, #100
 1781 063c 06D9     		bls	.L110
 896:Drivers/STM32F3xx_HAL_Driver/Src/stm32f3xx_hal_rcc_ex.c ****           {
 897:Drivers/STM32F3xx_HAL_Driver/Src/stm32f3xx_hal_rcc_ex.c ****             return HAL_TIMEOUT;
 1782              		.loc 1 897 0
ARM GAS  /tmp/cc4ZCISd.s 			page 61


 1783 063e 0323     		movs	r3, #3
 1784 0640 00F0F3BD 		b	.L55
 1785              	.L245:
 1786              		.align	2
 1787              	.L244:
 1788 0644 00100240 		.word	1073876992
 1789 0648 00004242 		.word	1111621632
 1790              	.L110:
 1791 064c 0223     		movs	r3, #2
 1792 064e C7F89432 		str	r3, [r7, #660]
 1793              	.LBB290:
 1794              	.LBB291:
 491:Drivers/CMSIS/Include/core_cmInstr.h ****    return(result);
 1795              		.loc 2 491 0
 1796 0652 D7F89432 		ldr	r3, [r7, #660]
 1797              		.syntax unified
 1798              	@ 491 "Drivers/CMSIS/Include/core_cmInstr.h" 1
 1799 0656 93FAA3F2 		rbit r2, r3
 1800              	@ 0 "" 2
 1801              		.thumb
 1802              		.syntax unified
 1803 065a 07F1FC03 		add	r3, r7, #252
 1804 065e 1A60     		str	r2, [r3]
 492:Drivers/CMSIS/Include/core_cmInstr.h **** }
 1805              		.loc 2 492 0
 1806 0660 07F1FC03 		add	r3, r7, #252
 1807 0664 1B68     		ldr	r3, [r3]
 1808 0666 C7F84832 		str	r3, [r7, #584]
 1809              	.LBE291:
 1810              	.LBE290:
 1811              	.LBB292:
 1812              	.LBB293:
 666:Drivers/CMSIS/Include/core_cmInstr.h ****   return(result);
 1813              		.loc 2 666 0
 1814 066a D7F84832 		ldr	r3, [r7, #584]
 1815              		.syntax unified
 1816              	@ 666 "Drivers/CMSIS/Include/core_cmInstr.h" 1
 1817 066e B3FA83F2 		clz r2, r3
 1818              	@ 0 "" 2
 1819              		.thumb
 1820              		.syntax unified
 1821 0672 07F58073 		add	r3, r7, #256
 1822 0676 1A60     		str	r2, [r3]
 1823              		.loc 2 667 0
 1824 0678 07F58073 		add	r3, r7, #256
 1825 067c 1B68     		ldr	r3, [r3]
 1826 067e DBB2     		uxtb	r3, r3
 1827              	.LBE293:
 1828              	.LBE292:
 893:Drivers/STM32F3xx_HAL_Driver/Src/stm32f3xx_hal_rcc_ex.c ****         {
 1829              		.loc 1 893 0
 1830 0680 43F02003 		orr	r3, r3, #32
 1831 0684 DBB2     		uxtb	r3, r3
 1832 0686 5B09     		lsrs	r3, r3, #5
 1833 0688 DBB2     		uxtb	r3, r3
 1834 068a 012B     		cmp	r3, #1
 1835 068c 02D1     		bne	.L113
ARM GAS  /tmp/cc4ZCISd.s 			page 62


 893:Drivers/STM32F3xx_HAL_Driver/Src/stm32f3xx_hal_rcc_ex.c ****         {
 1836              		.loc 1 893 0 is_stmt 0 discriminator 1
 1837 068e C34B     		ldr	r3, .L246
 1838 0690 1B68     		ldr	r3, [r3]
 1839 0692 25E0     		b	.L114
 1840              	.L113:
 1841 0694 0223     		movs	r3, #2
 1842 0696 C7F88C32 		str	r3, [r7, #652]
 1843              	.LBB294:
 1844              	.LBB295:
 491:Drivers/CMSIS/Include/core_cmInstr.h ****    return(result);
 1845              		.loc 2 491 0 is_stmt 1 discriminator 2
 1846 069a D7F88C32 		ldr	r3, [r7, #652]
 1847              		.syntax unified
 1848              	@ 491 "Drivers/CMSIS/Include/core_cmInstr.h" 1
 1849 069e 93FAA3F2 		rbit r2, r3
 1850              	@ 0 "" 2
 1851              		.thumb
 1852              		.syntax unified
 1853 06a2 07F1F403 		add	r3, r7, #244
 1854 06a6 1A60     		str	r2, [r3]
 492:Drivers/CMSIS/Include/core_cmInstr.h **** }
 1855              		.loc 2 492 0 discriminator 2
 1856 06a8 07F1F403 		add	r3, r7, #244
 1857 06ac 1B68     		ldr	r3, [r3]
 1858 06ae C7F89832 		str	r3, [r7, #664]
 1859              	.LBE295:
 1860              	.LBE294:
 1861              	.LBB296:
 1862              	.LBB297:
 666:Drivers/CMSIS/Include/core_cmInstr.h ****   return(result);
 1863              		.loc 2 666 0 discriminator 2
 1864 06b2 D7F89832 		ldr	r3, [r7, #664]
 1865              		.syntax unified
 1866              	@ 666 "Drivers/CMSIS/Include/core_cmInstr.h" 1
 1867 06b6 B3FA83F2 		clz r2, r3
 1868              	@ 0 "" 2
 1869              		.thumb
 1870              		.syntax unified
 1871 06ba 07F1F803 		add	r3, r7, #248
 1872 06be 1A60     		str	r2, [r3]
 1873              		.loc 2 667 0 discriminator 2
 1874 06c0 07F1F803 		add	r3, r7, #248
 1875 06c4 1B68     		ldr	r3, [r3]
 1876 06c6 DBB2     		uxtb	r3, r3
 1877              	.LBE297:
 1878              	.LBE296:
 893:Drivers/STM32F3xx_HAL_Driver/Src/stm32f3xx_hal_rcc_ex.c ****         {
 1879              		.loc 1 893 0 discriminator 2
 1880 06c8 43F02003 		orr	r3, r3, #32
 1881 06cc DBB2     		uxtb	r3, r3
 1882 06ce 5B09     		lsrs	r3, r3, #5
 1883 06d0 DBB2     		uxtb	r3, r3
 1884 06d2 022B     		cmp	r3, #2
 1885 06d4 02D1     		bne	.L117
 893:Drivers/STM32F3xx_HAL_Driver/Src/stm32f3xx_hal_rcc_ex.c ****         {
 1886              		.loc 1 893 0 is_stmt 0 discriminator 4
ARM GAS  /tmp/cc4ZCISd.s 			page 63


 1887 06d6 B14B     		ldr	r3, .L246
 1888 06d8 1B6A     		ldr	r3, [r3, #32]
 1889 06da 01E0     		b	.L114
 1890              	.L117:
 893:Drivers/STM32F3xx_HAL_Driver/Src/stm32f3xx_hal_rcc_ex.c ****         {
 1891              		.loc 1 893 0 discriminator 5
 1892 06dc AF4B     		ldr	r3, .L246
 1893 06de 5B6A     		ldr	r3, [r3, #36]
 1894              	.L114:
 1895 06e0 0222     		movs	r2, #2
 1896 06e2 C7F88422 		str	r2, [r7, #644]
 1897              	.LBB298:
 1898              	.LBB299:
 491:Drivers/CMSIS/Include/core_cmInstr.h ****    return(result);
 1899              		.loc 2 491 0 is_stmt 1 discriminator 8
 1900 06e6 D7F88422 		ldr	r2, [r7, #644]
 1901              		.syntax unified
 1902              	@ 491 "Drivers/CMSIS/Include/core_cmInstr.h" 1
 1903 06ea 92FAA2F1 		rbit r1, r2
 1904              	@ 0 "" 2
 1905              		.thumb
 1906              		.syntax unified
 1907 06ee 07F1EC02 		add	r2, r7, #236
 1908 06f2 1160     		str	r1, [r2]
 492:Drivers/CMSIS/Include/core_cmInstr.h **** }
 1909              		.loc 2 492 0 discriminator 8
 1910 06f4 07F1EC02 		add	r2, r7, #236
 1911 06f8 1268     		ldr	r2, [r2]
 1912 06fa C7F89022 		str	r2, [r7, #656]
 1913              	.LBE299:
 1914              	.LBE298:
 1915              	.LBB300:
 1916              	.LBB301:
 666:Drivers/CMSIS/Include/core_cmInstr.h ****   return(result);
 1917              		.loc 2 666 0 discriminator 8
 1918 06fe D7F89022 		ldr	r2, [r7, #656]
 1919              		.syntax unified
 1920              	@ 666 "Drivers/CMSIS/Include/core_cmInstr.h" 1
 1921 0702 B2FA82F1 		clz r1, r2
 1922              	@ 0 "" 2
 1923              		.thumb
 1924              		.syntax unified
 1925 0706 07F1F002 		add	r2, r7, #240
 1926 070a 1160     		str	r1, [r2]
 1927              		.loc 2 667 0 discriminator 8
 1928 070c 07F1F002 		add	r2, r7, #240
 1929 0710 1268     		ldr	r2, [r2]
 1930 0712 D2B2     		uxtb	r2, r2
 1931              	.LBE301:
 1932              	.LBE300:
 893:Drivers/STM32F3xx_HAL_Driver/Src/stm32f3xx_hal_rcc_ex.c ****         {
 1933              		.loc 1 893 0 discriminator 8
 1934 0714 42F02002 		orr	r2, r2, #32
 1935 0718 D2B2     		uxtb	r2, r2
 1936 071a 02F01F02 		and	r2, r2, #31
 1937 071e 0121     		movs	r1, #1
 1938 0720 01FA02F2 		lsl	r2, r1, r2
ARM GAS  /tmp/cc4ZCISd.s 			page 64


 1939 0724 1340     		ands	r3, r3, r2
 1940 0726 002B     		cmp	r3, #0
 1941 0728 81D0     		beq	.L121
 898:Drivers/STM32F3xx_HAL_Driver/Src/stm32f3xx_hal_rcc_ex.c ****           }      
 899:Drivers/STM32F3xx_HAL_Driver/Src/stm32f3xx_hal_rcc_ex.c ****         } 
 900:Drivers/STM32F3xx_HAL_Driver/Src/stm32f3xx_hal_rcc_ex.c **** 
 901:Drivers/STM32F3xx_HAL_Driver/Src/stm32f3xx_hal_rcc_ex.c ****         /* Adjusts the Internal High Speed oscillator (HSI) calibration value.*/
 902:Drivers/STM32F3xx_HAL_Driver/Src/stm32f3xx_hal_rcc_ex.c ****         __HAL_RCC_HSI_CALIBRATIONVALUE_ADJUST(RCC_OscInitStruct->HSICalibrationValue);
 1942              		.loc 1 902 0
 1943 072a 9C4C     		ldr	r4, .L246
 1944 072c 9B4B     		ldr	r3, .L246
 1945 072e 1B68     		ldr	r3, [r3]
 1946 0730 23F0F802 		bic	r2, r3, #248
 1947 0734 3B1D     		adds	r3, r7, #4
 1948 0736 1B68     		ldr	r3, [r3]
 1949 0738 5B69     		ldr	r3, [r3, #20]
 1950 073a F821     		movs	r1, #248
 1951 073c C7F87C12 		str	r1, [r7, #636]
 1952              	.LBB302:
 1953              	.LBB303:
 491:Drivers/CMSIS/Include/core_cmInstr.h ****    return(result);
 1954              		.loc 2 491 0
 1955 0740 D7F87C12 		ldr	r1, [r7, #636]
 1956              		.syntax unified
 1957              	@ 491 "Drivers/CMSIS/Include/core_cmInstr.h" 1
 1958 0744 91FAA1F0 		rbit r0, r1
 1959              	@ 0 "" 2
 1960              		.thumb
 1961              		.syntax unified
 1962 0748 07F1E401 		add	r1, r7, #228
 1963 074c 0860     		str	r0, [r1]
 492:Drivers/CMSIS/Include/core_cmInstr.h **** }
 1964              		.loc 2 492 0
 1965 074e 07F1E401 		add	r1, r7, #228
 1966 0752 0968     		ldr	r1, [r1]
 1967 0754 C7F88812 		str	r1, [r7, #648]
 1968              	.LBE303:
 1969              	.LBE302:
 1970              	.LBB304:
 1971              	.LBB305:
 666:Drivers/CMSIS/Include/core_cmInstr.h ****   return(result);
 1972              		.loc 2 666 0
 1973 0758 D7F88812 		ldr	r1, [r7, #648]
 1974              		.syntax unified
 1975              	@ 666 "Drivers/CMSIS/Include/core_cmInstr.h" 1
 1976 075c B1FA81F0 		clz r0, r1
 1977              	@ 0 "" 2
 1978              		.thumb
 1979              		.syntax unified
 1980 0760 07F1E801 		add	r1, r7, #232
 1981 0764 0860     		str	r0, [r1]
 1982              		.loc 2 667 0
 1983 0766 07F1E801 		add	r1, r7, #232
 1984 076a 0968     		ldr	r1, [r1]
 1985 076c C9B2     		uxtb	r1, r1
 1986              	.LBE305:
 1987              	.LBE304:
ARM GAS  /tmp/cc4ZCISd.s 			page 65


 1988              		.loc 1 902 0
 1989 076e 8B40     		lsls	r3, r3, r1
 1990 0770 1343     		orrs	r3, r3, r2
 1991 0772 2360     		str	r3, [r4]
 1992 0774 81E0     		b	.L93
 1993              	.L109:
 903:Drivers/STM32F3xx_HAL_Driver/Src/stm32f3xx_hal_rcc_ex.c ****       }
 904:Drivers/STM32F3xx_HAL_Driver/Src/stm32f3xx_hal_rcc_ex.c ****       else
 905:Drivers/STM32F3xx_HAL_Driver/Src/stm32f3xx_hal_rcc_ex.c ****       {
 906:Drivers/STM32F3xx_HAL_Driver/Src/stm32f3xx_hal_rcc_ex.c ****         /* Disable the Internal High Speed oscillator (HSI). */
 907:Drivers/STM32F3xx_HAL_Driver/Src/stm32f3xx_hal_rcc_ex.c ****         __HAL_RCC_HSI_DISABLE();
 1994              		.loc 1 907 0
 1995 0776 8A4B     		ldr	r3, .L246+4
 1996 0778 0022     		movs	r2, #0
 1997 077a 1A60     		str	r2, [r3]
 908:Drivers/STM32F3xx_HAL_Driver/Src/stm32f3xx_hal_rcc_ex.c **** 
 909:Drivers/STM32F3xx_HAL_Driver/Src/stm32f3xx_hal_rcc_ex.c ****         /* Get timeout */
 910:Drivers/STM32F3xx_HAL_Driver/Src/stm32f3xx_hal_rcc_ex.c ****         tickstart = HAL_GetTick();
 1998              		.loc 1 910 0
 1999 077c FFF7FEFF 		bl	HAL_GetTick
 2000 0780 C7F8FC02 		str	r0, [r7, #764]
 911:Drivers/STM32F3xx_HAL_Driver/Src/stm32f3xx_hal_rcc_ex.c ****       
 912:Drivers/STM32F3xx_HAL_Driver/Src/stm32f3xx_hal_rcc_ex.c ****         /* Wait till HSI is ready */  
 913:Drivers/STM32F3xx_HAL_Driver/Src/stm32f3xx_hal_rcc_ex.c ****         while(__HAL_RCC_GET_FLAG(RCC_FLAG_HSIRDY) != RESET)
 2001              		.loc 1 913 0
 2002 0784 0AE0     		b	.L124
 2003              	.L135:
 914:Drivers/STM32F3xx_HAL_Driver/Src/stm32f3xx_hal_rcc_ex.c ****         {
 915:Drivers/STM32F3xx_HAL_Driver/Src/stm32f3xx_hal_rcc_ex.c ****           if((HAL_GetTick()-tickstart) > HSI_TIMEOUT_VALUE)
 2004              		.loc 1 915 0
 2005 0786 FFF7FEFF 		bl	HAL_GetTick
 2006 078a 0246     		mov	r2, r0
 2007 078c D7F8FC32 		ldr	r3, [r7, #764]
 2008 0790 D31A     		subs	r3, r2, r3
 2009 0792 642B     		cmp	r3, #100
 2010 0794 02D9     		bls	.L124
 916:Drivers/STM32F3xx_HAL_Driver/Src/stm32f3xx_hal_rcc_ex.c ****           {
 917:Drivers/STM32F3xx_HAL_Driver/Src/stm32f3xx_hal_rcc_ex.c ****             return HAL_TIMEOUT;
 2011              		.loc 1 917 0
 2012 0796 0323     		movs	r3, #3
 2013 0798 00F047BD 		b	.L55
 2014              	.L124:
 2015 079c 0223     		movs	r3, #2
 2016 079e C7F87432 		str	r3, [r7, #628]
 2017              	.LBB306:
 2018              	.LBB307:
 491:Drivers/CMSIS/Include/core_cmInstr.h ****    return(result);
 2019              		.loc 2 491 0
 2020 07a2 D7F87432 		ldr	r3, [r7, #628]
 2021              		.syntax unified
 2022              	@ 491 "Drivers/CMSIS/Include/core_cmInstr.h" 1
 2023 07a6 93FAA3F2 		rbit r2, r3
 2024              	@ 0 "" 2
 2025              		.thumb
 2026              		.syntax unified
 2027 07aa 07F1DC03 		add	r3, r7, #220
 2028 07ae 1A60     		str	r2, [r3]
ARM GAS  /tmp/cc4ZCISd.s 			page 66


 492:Drivers/CMSIS/Include/core_cmInstr.h **** }
 2029              		.loc 2 492 0
 2030 07b0 07F1DC03 		add	r3, r7, #220
 2031 07b4 1B68     		ldr	r3, [r3]
 2032 07b6 C7F88032 		str	r3, [r7, #640]
 2033              	.LBE307:
 2034              	.LBE306:
 2035              	.LBB308:
 2036              	.LBB309:
 666:Drivers/CMSIS/Include/core_cmInstr.h ****   return(result);
 2037              		.loc 2 666 0
 2038 07ba D7F88032 		ldr	r3, [r7, #640]
 2039              		.syntax unified
 2040              	@ 666 "Drivers/CMSIS/Include/core_cmInstr.h" 1
 2041 07be B3FA83F2 		clz r2, r3
 2042              	@ 0 "" 2
 2043              		.thumb
 2044              		.syntax unified
 2045 07c2 07F1E003 		add	r3, r7, #224
 2046 07c6 1A60     		str	r2, [r3]
 2047              		.loc 2 667 0
 2048 07c8 07F1E003 		add	r3, r7, #224
 2049 07cc 1B68     		ldr	r3, [r3]
 2050 07ce DBB2     		uxtb	r3, r3
 2051              	.LBE309:
 2052              	.LBE308:
 913:Drivers/STM32F3xx_HAL_Driver/Src/stm32f3xx_hal_rcc_ex.c ****         {
 2053              		.loc 1 913 0
 2054 07d0 43F02003 		orr	r3, r3, #32
 2055 07d4 DBB2     		uxtb	r3, r3
 2056 07d6 5B09     		lsrs	r3, r3, #5
 2057 07d8 DBB2     		uxtb	r3, r3
 2058 07da 012B     		cmp	r3, #1
 2059 07dc 02D1     		bne	.L127
 913:Drivers/STM32F3xx_HAL_Driver/Src/stm32f3xx_hal_rcc_ex.c ****         {
 2060              		.loc 1 913 0 is_stmt 0 discriminator 1
 2061 07de 6F4B     		ldr	r3, .L246
 2062 07e0 1B68     		ldr	r3, [r3]
 2063 07e2 25E0     		b	.L128
 2064              	.L127:
 2065 07e4 0223     		movs	r3, #2
 2066 07e6 C7F86C32 		str	r3, [r7, #620]
 2067              	.LBB310:
 2068              	.LBB311:
 491:Drivers/CMSIS/Include/core_cmInstr.h ****    return(result);
 2069              		.loc 2 491 0 is_stmt 1 discriminator 2
 2070 07ea D7F86C32 		ldr	r3, [r7, #620]
 2071              		.syntax unified
 2072              	@ 491 "Drivers/CMSIS/Include/core_cmInstr.h" 1
 2073 07ee 93FAA3F2 		rbit r2, r3
 2074              	@ 0 "" 2
 2075              		.thumb
 2076              		.syntax unified
 2077 07f2 07F1D403 		add	r3, r7, #212
 2078 07f6 1A60     		str	r2, [r3]
 492:Drivers/CMSIS/Include/core_cmInstr.h **** }
 2079              		.loc 2 492 0 discriminator 2
ARM GAS  /tmp/cc4ZCISd.s 			page 67


 2080 07f8 07F1D403 		add	r3, r7, #212
 2081 07fc 1B68     		ldr	r3, [r3]
 2082 07fe C7F87832 		str	r3, [r7, #632]
 2083              	.LBE311:
 2084              	.LBE310:
 2085              	.LBB312:
 2086              	.LBB313:
 666:Drivers/CMSIS/Include/core_cmInstr.h ****   return(result);
 2087              		.loc 2 666 0 discriminator 2
 2088 0802 D7F87832 		ldr	r3, [r7, #632]
 2089              		.syntax unified
 2090              	@ 666 "Drivers/CMSIS/Include/core_cmInstr.h" 1
 2091 0806 B3FA83F2 		clz r2, r3
 2092              	@ 0 "" 2
 2093              		.thumb
 2094              		.syntax unified
 2095 080a 07F1D803 		add	r3, r7, #216
 2096 080e 1A60     		str	r2, [r3]
 2097              		.loc 2 667 0 discriminator 2
 2098 0810 07F1D803 		add	r3, r7, #216
 2099 0814 1B68     		ldr	r3, [r3]
 2100 0816 DBB2     		uxtb	r3, r3
 2101              	.LBE313:
 2102              	.LBE312:
 913:Drivers/STM32F3xx_HAL_Driver/Src/stm32f3xx_hal_rcc_ex.c ****         {
 2103              		.loc 1 913 0 discriminator 2
 2104 0818 43F02003 		orr	r3, r3, #32
 2105 081c DBB2     		uxtb	r3, r3
 2106 081e 5B09     		lsrs	r3, r3, #5
 2107 0820 DBB2     		uxtb	r3, r3
 2108 0822 022B     		cmp	r3, #2
 2109 0824 02D1     		bne	.L131
 913:Drivers/STM32F3xx_HAL_Driver/Src/stm32f3xx_hal_rcc_ex.c ****         {
 2110              		.loc 1 913 0 is_stmt 0 discriminator 4
 2111 0826 5D4B     		ldr	r3, .L246
 2112 0828 1B6A     		ldr	r3, [r3, #32]
 2113 082a 01E0     		b	.L128
 2114              	.L131:
 913:Drivers/STM32F3xx_HAL_Driver/Src/stm32f3xx_hal_rcc_ex.c ****         {
 2115              		.loc 1 913 0 discriminator 5
 2116 082c 5B4B     		ldr	r3, .L246
 2117 082e 5B6A     		ldr	r3, [r3, #36]
 2118              	.L128:
 2119 0830 0222     		movs	r2, #2
 2120 0832 C7F86422 		str	r2, [r7, #612]
 2121              	.LBB314:
 2122              	.LBB315:
 491:Drivers/CMSIS/Include/core_cmInstr.h ****    return(result);
 2123              		.loc 2 491 0 is_stmt 1 discriminator 8
 2124 0836 D7F86422 		ldr	r2, [r7, #612]
 2125              		.syntax unified
 2126              	@ 491 "Drivers/CMSIS/Include/core_cmInstr.h" 1
 2127 083a 92FAA2F1 		rbit r1, r2
 2128              	@ 0 "" 2
 2129              		.thumb
 2130              		.syntax unified
 2131 083e 07F1CC02 		add	r2, r7, #204
ARM GAS  /tmp/cc4ZCISd.s 			page 68


 2132 0842 1160     		str	r1, [r2]
 492:Drivers/CMSIS/Include/core_cmInstr.h **** }
 2133              		.loc 2 492 0 discriminator 8
 2134 0844 07F1CC02 		add	r2, r7, #204
 2135 0848 1268     		ldr	r2, [r2]
 2136 084a C7F87022 		str	r2, [r7, #624]
 2137              	.LBE315:
 2138              	.LBE314:
 2139              	.LBB316:
 2140              	.LBB317:
 666:Drivers/CMSIS/Include/core_cmInstr.h ****   return(result);
 2141              		.loc 2 666 0 discriminator 8
 2142 084e D7F87022 		ldr	r2, [r7, #624]
 2143              		.syntax unified
 2144              	@ 666 "Drivers/CMSIS/Include/core_cmInstr.h" 1
 2145 0852 B2FA82F1 		clz r1, r2
 2146              	@ 0 "" 2
 2147              		.thumb
 2148              		.syntax unified
 2149 0856 07F1D002 		add	r2, r7, #208
 2150 085a 1160     		str	r1, [r2]
 2151              		.loc 2 667 0 discriminator 8
 2152 085c 07F1D002 		add	r2, r7, #208
 2153 0860 1268     		ldr	r2, [r2]
 2154 0862 D2B2     		uxtb	r2, r2
 2155              	.LBE317:
 2156              	.LBE316:
 913:Drivers/STM32F3xx_HAL_Driver/Src/stm32f3xx_hal_rcc_ex.c ****         {
 2157              		.loc 1 913 0 discriminator 8
 2158 0864 42F02002 		orr	r2, r2, #32
 2159 0868 D2B2     		uxtb	r2, r2
 2160 086a 02F01F02 		and	r2, r2, #31
 2161 086e 0121     		movs	r1, #1
 2162 0870 01FA02F2 		lsl	r2, r1, r2
 2163 0874 1340     		ands	r3, r3, r2
 2164 0876 002B     		cmp	r3, #0
 2165 0878 85D1     		bne	.L135
 2166              	.L93:
 918:Drivers/STM32F3xx_HAL_Driver/Src/stm32f3xx_hal_rcc_ex.c ****           }
 919:Drivers/STM32F3xx_HAL_Driver/Src/stm32f3xx_hal_rcc_ex.c ****         }
 920:Drivers/STM32F3xx_HAL_Driver/Src/stm32f3xx_hal_rcc_ex.c ****       }
 921:Drivers/STM32F3xx_HAL_Driver/Src/stm32f3xx_hal_rcc_ex.c ****     }
 922:Drivers/STM32F3xx_HAL_Driver/Src/stm32f3xx_hal_rcc_ex.c ****   }
 923:Drivers/STM32F3xx_HAL_Driver/Src/stm32f3xx_hal_rcc_ex.c ****   /*------------------------------ LSI Configuration -------------------------*/
 924:Drivers/STM32F3xx_HAL_Driver/Src/stm32f3xx_hal_rcc_ex.c ****   if(((RCC_OscInitStruct->OscillatorType) & RCC_OSCILLATORTYPE_LSI) == RCC_OSCILLATORTYPE_LSI)
 2167              		.loc 1 924 0
 2168 087a 3B1D     		adds	r3, r7, #4
 2169 087c 1B68     		ldr	r3, [r3]
 2170 087e 1B68     		ldr	r3, [r3]
 2171 0880 03F00803 		and	r3, r3, #8
 2172 0884 002B     		cmp	r3, #0
 2173 0886 00F01181 		beq	.L136
 925:Drivers/STM32F3xx_HAL_Driver/Src/stm32f3xx_hal_rcc_ex.c ****   {
 926:Drivers/STM32F3xx_HAL_Driver/Src/stm32f3xx_hal_rcc_ex.c ****     /* Check the parameters */
 927:Drivers/STM32F3xx_HAL_Driver/Src/stm32f3xx_hal_rcc_ex.c ****     assert_param(IS_RCC_LSI(RCC_OscInitStruct->LSIState));
 928:Drivers/STM32F3xx_HAL_Driver/Src/stm32f3xx_hal_rcc_ex.c **** 
 929:Drivers/STM32F3xx_HAL_Driver/Src/stm32f3xx_hal_rcc_ex.c ****     /* Check the LSI State */
ARM GAS  /tmp/cc4ZCISd.s 			page 69


 930:Drivers/STM32F3xx_HAL_Driver/Src/stm32f3xx_hal_rcc_ex.c ****     if(RCC_OscInitStruct->LSIState != RCC_LSI_OFF)
 2174              		.loc 1 930 0
 2175 088a 3B1D     		adds	r3, r7, #4
 2176 088c 1B68     		ldr	r3, [r3]
 2177 088e 9B69     		ldr	r3, [r3, #24]
 2178 0890 002B     		cmp	r3, #0
 2179 0892 00F08980 		beq	.L137
 931:Drivers/STM32F3xx_HAL_Driver/Src/stm32f3xx_hal_rcc_ex.c ****     {
 932:Drivers/STM32F3xx_HAL_Driver/Src/stm32f3xx_hal_rcc_ex.c ****       /* Enable the Internal Low Speed oscillator (LSI). */
 933:Drivers/STM32F3xx_HAL_Driver/Src/stm32f3xx_hal_rcc_ex.c ****       __HAL_RCC_LSI_ENABLE();
 2180              		.loc 1 933 0
 2181 0896 434B     		ldr	r3, .L246+8
 2182 0898 0122     		movs	r2, #1
 2183 089a 1A60     		str	r2, [r3]
 934:Drivers/STM32F3xx_HAL_Driver/Src/stm32f3xx_hal_rcc_ex.c ****       
 935:Drivers/STM32F3xx_HAL_Driver/Src/stm32f3xx_hal_rcc_ex.c ****       /* Get timeout */
 936:Drivers/STM32F3xx_HAL_Driver/Src/stm32f3xx_hal_rcc_ex.c ****       tickstart = HAL_GetTick();
 2184              		.loc 1 936 0
 2185 089c FFF7FEFF 		bl	HAL_GetTick
 2186 08a0 C7F8FC02 		str	r0, [r7, #764]
 937:Drivers/STM32F3xx_HAL_Driver/Src/stm32f3xx_hal_rcc_ex.c ****       
 938:Drivers/STM32F3xx_HAL_Driver/Src/stm32f3xx_hal_rcc_ex.c ****       /* Wait till LSI is ready */  
 939:Drivers/STM32F3xx_HAL_Driver/Src/stm32f3xx_hal_rcc_ex.c ****       while(__HAL_RCC_GET_FLAG(RCC_FLAG_LSIRDY) == RESET)
 2187              		.loc 1 939 0
 2188 08a4 0AE0     		b	.L138
 2189              	.L149:
 940:Drivers/STM32F3xx_HAL_Driver/Src/stm32f3xx_hal_rcc_ex.c ****       {
 941:Drivers/STM32F3xx_HAL_Driver/Src/stm32f3xx_hal_rcc_ex.c ****         if((HAL_GetTick()-tickstart) > LSI_TIMEOUT_VALUE)
 2190              		.loc 1 941 0
 2191 08a6 FFF7FEFF 		bl	HAL_GetTick
 2192 08aa 0246     		mov	r2, r0
 2193 08ac D7F8FC32 		ldr	r3, [r7, #764]
 2194 08b0 D31A     		subs	r3, r2, r3
 2195 08b2 642B     		cmp	r3, #100
 2196 08b4 02D9     		bls	.L138
 942:Drivers/STM32F3xx_HAL_Driver/Src/stm32f3xx_hal_rcc_ex.c ****         {
 943:Drivers/STM32F3xx_HAL_Driver/Src/stm32f3xx_hal_rcc_ex.c ****           return HAL_TIMEOUT;
 2197              		.loc 1 943 0
 2198 08b6 0323     		movs	r3, #3
 2199 08b8 00F0B7BC 		b	.L55
 2200              	.L138:
 2201 08bc 0223     		movs	r3, #2
 2202 08be C7F83C32 		str	r3, [r7, #572]
 2203              	.LBB318:
 2204              	.LBB319:
 491:Drivers/CMSIS/Include/core_cmInstr.h ****    return(result);
 2205              		.loc 2 491 0
 2206 08c2 D7F83C32 		ldr	r3, [r7, #572]
 2207              		.syntax unified
 2208              	@ 491 "Drivers/CMSIS/Include/core_cmInstr.h" 1
 2209 08c6 93FAA3F2 		rbit r2, r3
 2210              	@ 0 "" 2
 2211              		.thumb
 2212              		.syntax unified
 2213 08ca 07F1C403 		add	r3, r7, #196
 2214 08ce 1A60     		str	r2, [r3]
 492:Drivers/CMSIS/Include/core_cmInstr.h **** }
ARM GAS  /tmp/cc4ZCISd.s 			page 70


 2215              		.loc 2 492 0
 2216 08d0 07F1C403 		add	r3, r7, #196
 2217 08d4 1B68     		ldr	r3, [r3]
 2218 08d6 C7F86832 		str	r3, [r7, #616]
 2219              	.LBE319:
 2220              	.LBE318:
 2221              	.LBB320:
 2222              	.LBB321:
 666:Drivers/CMSIS/Include/core_cmInstr.h ****   return(result);
 2223              		.loc 2 666 0
 2224 08da D7F86832 		ldr	r3, [r7, #616]
 2225              		.syntax unified
 2226              	@ 666 "Drivers/CMSIS/Include/core_cmInstr.h" 1
 2227 08de B3FA83F2 		clz r2, r3
 2228              	@ 0 "" 2
 2229              		.thumb
 2230              		.syntax unified
 2231 08e2 07F1C803 		add	r3, r7, #200
 2232 08e6 1A60     		str	r2, [r3]
 2233              		.loc 2 667 0
 2234 08e8 07F1C803 		add	r3, r7, #200
 2235 08ec 1B68     		ldr	r3, [r3]
 2236 08ee DBB2     		uxtb	r3, r3
 2237              	.LBE321:
 2238              	.LBE320:
 939:Drivers/STM32F3xx_HAL_Driver/Src/stm32f3xx_hal_rcc_ex.c ****       {
 2239              		.loc 1 939 0
 2240 08f0 43F06003 		orr	r3, r3, #96
 2241 08f4 DBB2     		uxtb	r3, r3
 2242 08f6 5B09     		lsrs	r3, r3, #5
 2243 08f8 DBB2     		uxtb	r3, r3
 2244 08fa 012B     		cmp	r3, #1
 2245 08fc 02D1     		bne	.L141
 939:Drivers/STM32F3xx_HAL_Driver/Src/stm32f3xx_hal_rcc_ex.c ****       {
 2246              		.loc 1 939 0 is_stmt 0 discriminator 1
 2247 08fe 274B     		ldr	r3, .L246
 2248 0900 1B68     		ldr	r3, [r3]
 2249 0902 25E0     		b	.L142
 2250              	.L141:
 2251 0904 0223     		movs	r3, #2
 2252 0906 C7F83432 		str	r3, [r7, #564]
 2253              	.LBB322:
 2254              	.LBB323:
 491:Drivers/CMSIS/Include/core_cmInstr.h ****    return(result);
 2255              		.loc 2 491 0 is_stmt 1 discriminator 2
 2256 090a D7F83432 		ldr	r3, [r7, #564]
 2257              		.syntax unified
 2258              	@ 491 "Drivers/CMSIS/Include/core_cmInstr.h" 1
 2259 090e 93FAA3F2 		rbit r2, r3
 2260              	@ 0 "" 2
 2261              		.thumb
 2262              		.syntax unified
 2263 0912 07F1BC03 		add	r3, r7, #188
 2264 0916 1A60     		str	r2, [r3]
 492:Drivers/CMSIS/Include/core_cmInstr.h **** }
 2265              		.loc 2 492 0 discriminator 2
 2266 0918 07F1BC03 		add	r3, r7, #188
ARM GAS  /tmp/cc4ZCISd.s 			page 71


 2267 091c 1B68     		ldr	r3, [r3]
 2268 091e C7F84032 		str	r3, [r7, #576]
 2269              	.LBE323:
 2270              	.LBE322:
 2271              	.LBB324:
 2272              	.LBB325:
 666:Drivers/CMSIS/Include/core_cmInstr.h ****   return(result);
 2273              		.loc 2 666 0 discriminator 2
 2274 0922 D7F84032 		ldr	r3, [r7, #576]
 2275              		.syntax unified
 2276              	@ 666 "Drivers/CMSIS/Include/core_cmInstr.h" 1
 2277 0926 B3FA83F2 		clz r2, r3
 2278              	@ 0 "" 2
 2279              		.thumb
 2280              		.syntax unified
 2281 092a 07F1C003 		add	r3, r7, #192
 2282 092e 1A60     		str	r2, [r3]
 2283              		.loc 2 667 0 discriminator 2
 2284 0930 07F1C003 		add	r3, r7, #192
 2285 0934 1B68     		ldr	r3, [r3]
 2286 0936 DBB2     		uxtb	r3, r3
 2287              	.LBE325:
 2288              	.LBE324:
 939:Drivers/STM32F3xx_HAL_Driver/Src/stm32f3xx_hal_rcc_ex.c ****       {
 2289              		.loc 1 939 0 discriminator 2
 2290 0938 43F06003 		orr	r3, r3, #96
 2291 093c DBB2     		uxtb	r3, r3
 2292 093e 5B09     		lsrs	r3, r3, #5
 2293 0940 DBB2     		uxtb	r3, r3
 2294 0942 022B     		cmp	r3, #2
 2295 0944 02D1     		bne	.L145
 939:Drivers/STM32F3xx_HAL_Driver/Src/stm32f3xx_hal_rcc_ex.c ****       {
 2296              		.loc 1 939 0 is_stmt 0 discriminator 4
 2297 0946 154B     		ldr	r3, .L246
 2298 0948 1B6A     		ldr	r3, [r3, #32]
 2299 094a 01E0     		b	.L142
 2300              	.L145:
 939:Drivers/STM32F3xx_HAL_Driver/Src/stm32f3xx_hal_rcc_ex.c ****       {
 2301              		.loc 1 939 0 discriminator 5
 2302 094c 134B     		ldr	r3, .L246
 2303 094e 5B6A     		ldr	r3, [r3, #36]
 2304              	.L142:
 2305 0950 0222     		movs	r2, #2
 2306 0952 C7F82C22 		str	r2, [r7, #556]
 2307              	.LBB326:
 2308              	.LBB327:
 491:Drivers/CMSIS/Include/core_cmInstr.h ****    return(result);
 2309              		.loc 2 491 0 is_stmt 1 discriminator 8
 2310 0956 D7F82C22 		ldr	r2, [r7, #556]
 2311              		.syntax unified
 2312              	@ 491 "Drivers/CMSIS/Include/core_cmInstr.h" 1
 2313 095a 92FAA2F1 		rbit r1, r2
 2314              	@ 0 "" 2
 2315              		.thumb
 2316              		.syntax unified
 2317 095e 07F1B402 		add	r2, r7, #180
 2318 0962 1160     		str	r1, [r2]
ARM GAS  /tmp/cc4ZCISd.s 			page 72


 492:Drivers/CMSIS/Include/core_cmInstr.h **** }
 2319              		.loc 2 492 0 discriminator 8
 2320 0964 07F1B402 		add	r2, r7, #180
 2321 0968 1268     		ldr	r2, [r2]
 2322 096a C7F83822 		str	r2, [r7, #568]
 2323              	.LBE327:
 2324              	.LBE326:
 2325              	.LBB328:
 2326              	.LBB329:
 666:Drivers/CMSIS/Include/core_cmInstr.h ****   return(result);
 2327              		.loc 2 666 0 discriminator 8
 2328 096e D7F83822 		ldr	r2, [r7, #568]
 2329              		.syntax unified
 2330              	@ 666 "Drivers/CMSIS/Include/core_cmInstr.h" 1
 2331 0972 B2FA82F1 		clz r1, r2
 2332              	@ 0 "" 2
 2333              		.thumb
 2334              		.syntax unified
 2335 0976 07F1B802 		add	r2, r7, #184
 2336 097a 1160     		str	r1, [r2]
 2337              		.loc 2 667 0 discriminator 8
 2338 097c 07F1B802 		add	r2, r7, #184
 2339 0980 1268     		ldr	r2, [r2]
 2340 0982 D2B2     		uxtb	r2, r2
 2341              	.LBE329:
 2342              	.LBE328:
 939:Drivers/STM32F3xx_HAL_Driver/Src/stm32f3xx_hal_rcc_ex.c ****       {
 2343              		.loc 1 939 0 discriminator 8
 2344 0984 42F06002 		orr	r2, r2, #96
 2345 0988 D2B2     		uxtb	r2, r2
 2346 098a 02F01F02 		and	r2, r2, #31
 2347 098e 0121     		movs	r1, #1
 2348 0990 01FA02F2 		lsl	r2, r1, r2
 2349 0994 1340     		ands	r3, r3, r2
 2350 0996 002B     		cmp	r3, #0
 2351 0998 85D0     		beq	.L149
 2352 099a 87E0     		b	.L136
 2353              	.L247:
 2354              		.align	2
 2355              	.L246:
 2356 099c 00100240 		.word	1073876992
 2357 09a0 00004242 		.word	1111621632
 2358 09a4 80044242 		.word	1111622784
 2359              	.L137:
 944:Drivers/STM32F3xx_HAL_Driver/Src/stm32f3xx_hal_rcc_ex.c ****         }
 945:Drivers/STM32F3xx_HAL_Driver/Src/stm32f3xx_hal_rcc_ex.c ****       }
 946:Drivers/STM32F3xx_HAL_Driver/Src/stm32f3xx_hal_rcc_ex.c ****     }
 947:Drivers/STM32F3xx_HAL_Driver/Src/stm32f3xx_hal_rcc_ex.c ****     else
 948:Drivers/STM32F3xx_HAL_Driver/Src/stm32f3xx_hal_rcc_ex.c ****     {
 949:Drivers/STM32F3xx_HAL_Driver/Src/stm32f3xx_hal_rcc_ex.c ****       /* Disable the Internal Low Speed oscillator (LSI). */
 950:Drivers/STM32F3xx_HAL_Driver/Src/stm32f3xx_hal_rcc_ex.c ****       __HAL_RCC_LSI_DISABLE();
 2360              		.loc 1 950 0
 2361 09a8 BD4B     		ldr	r3, .L248
 2362 09aa 0022     		movs	r2, #0
 2363 09ac 1A60     		str	r2, [r3]
 951:Drivers/STM32F3xx_HAL_Driver/Src/stm32f3xx_hal_rcc_ex.c ****       
 952:Drivers/STM32F3xx_HAL_Driver/Src/stm32f3xx_hal_rcc_ex.c ****       /* Get timeout */
ARM GAS  /tmp/cc4ZCISd.s 			page 73


 953:Drivers/STM32F3xx_HAL_Driver/Src/stm32f3xx_hal_rcc_ex.c ****       tickstart = HAL_GetTick();
 2364              		.loc 1 953 0
 2365 09ae FFF7FEFF 		bl	HAL_GetTick
 2366 09b2 C7F8FC02 		str	r0, [r7, #764]
 954:Drivers/STM32F3xx_HAL_Driver/Src/stm32f3xx_hal_rcc_ex.c ****       
 955:Drivers/STM32F3xx_HAL_Driver/Src/stm32f3xx_hal_rcc_ex.c ****       /* Wait till LSI is ready */  
 956:Drivers/STM32F3xx_HAL_Driver/Src/stm32f3xx_hal_rcc_ex.c ****       while(__HAL_RCC_GET_FLAG(RCC_FLAG_LSIRDY) != RESET)
