ARM GAS  /tmp/cc95nRf8.s 			page 1


   1              		.syntax unified
   2              		.cpu cortex-m4
   3              		.eabi_attribute 27, 1
   4              		.fpu fpv4-sp-d16
   5              		.eabi_attribute 20, 1
   6              		.eabi_attribute 21, 1
   7              		.eabi_attribute 23, 3
   8              		.eabi_attribute 24, 1
   9              		.eabi_attribute 25, 1
  10              		.eabi_attribute 26, 1
  11              		.eabi_attribute 30, 6
  12              		.eabi_attribute 34, 1
  13              		.eabi_attribute 18, 4
  14              		.thumb
  15              		.syntax unified
  16              		.file	"uartmessagebuffer.c"
  17              		.text
  18              	.Ltext0:
  19              		.cfi_sections	.debug_frame
  20              		.section	.text.uartmessagebuffer_create,"ax",%progbits
  21              		.align	2
  22              		.global	uartmessagebuffer_create
  23              		.thumb
  24              		.thumb_func
  26              	uartmessagebuffer_create:
  27              	.LFB112:
  28              		.file 1 "Src/uartmessagebuffer.c"
   1:Src/uartmessagebuffer.c **** 
   2:Src/uartmessagebuffer.c **** 
   3:Src/uartmessagebuffer.c **** #include "uartmessagebuffer.h"
   4:Src/uartmessagebuffer.c **** #include "string.h"
   5:Src/uartmessagebuffer.c **** #include "stdlib.h"
   6:Src/uartmessagebuffer.c **** 
   7:Src/uartmessagebuffer.c ****   UartMessageBuffer* uartmessagebuffer_create(uint8_t txMessagesBufferSize, uint8_t txBufferSize, U
  29              		.loc 1 7 0
  30              		.cfi_startproc
  31              		@ args = 0, pretend = 0, frame = 16
  32              		@ frame_needed = 1, uses_anonymous_args = 0
  33 0000 80B5     		push	{r7, lr}
  34              	.LCFI0:
  35              		.cfi_def_cfa_offset 8
  36              		.cfi_offset 7, -8
  37              		.cfi_offset 14, -4
  38 0002 84B0     		sub	sp, sp, #16
  39              	.LCFI1:
  40              		.cfi_def_cfa_offset 24
  41 0004 00AF     		add	r7, sp, #0
  42              	.LCFI2:
  43              		.cfi_def_cfa_register 7
  44 0006 0346     		mov	r3, r0
  45 0008 3A60     		str	r2, [r7]
  46 000a FB71     		strb	r3, [r7, #7]
  47 000c 0B46     		mov	r3, r1
  48 000e BB71     		strb	r3, [r7, #6]
   8:Src/uartmessagebuffer.c **** 	UartMessageBuffer* messageBuffer = malloc(sizeof(UartMessageBuffer));
  49              		.loc 1 8 0
  50 0010 1420     		movs	r0, #20
ARM GAS  /tmp/cc95nRf8.s 			page 2


  51 0012 FFF7FEFF 		bl	malloc
  52 0016 0346     		mov	r3, r0
  53 0018 FB60     		str	r3, [r7, #12]
   9:Src/uartmessagebuffer.c **** 	messageBuffer->txBufferSize = txBufferSize;
  54              		.loc 1 9 0
  55 001a FB68     		ldr	r3, [r7, #12]
  56 001c BA79     		ldrb	r2, [r7, #6]
  57 001e 1A72     		strb	r2, [r3, #8]
  10:Src/uartmessagebuffer.c **** 	messageBuffer->txMessageBufferSize = txMessagesBufferSize;
  58              		.loc 1 10 0
  59 0020 FB68     		ldr	r3, [r7, #12]
  60 0022 FA79     		ldrb	r2, [r7, #7]
  61 0024 1A74     		strb	r2, [r3, #16]
  11:Src/uartmessagebuffer.c **** 
  12:Src/uartmessagebuffer.c **** 	messageBuffer->txBuffer = malloc(sizeof(uint8_t) * txBufferSize);
  62              		.loc 1 12 0
  63 0026 BB79     		ldrb	r3, [r7, #6]	@ zero_extendqisi2
  64 0028 1846     		mov	r0, r3
  65 002a FFF7FEFF 		bl	malloc
  66 002e 0346     		mov	r3, r0
  67 0030 1A46     		mov	r2, r3
  68 0032 FB68     		ldr	r3, [r7, #12]
  69 0034 5A60     		str	r2, [r3, #4]
  13:Src/uartmessagebuffer.c **** 	messageBuffer->txMessageBuffer = malloc(sizeof(uartmessage*) * messageBuffer->txMessageBufferSize)
  70              		.loc 1 13 0
  71 0036 FB68     		ldr	r3, [r7, #12]
  72 0038 1B7C     		ldrb	r3, [r3, #16]	@ zero_extendqisi2
  73 003a 9B00     		lsls	r3, r3, #2
  74 003c 1846     		mov	r0, r3
  75 003e FFF7FEFF 		bl	malloc
  76 0042 0346     		mov	r3, r0
  77 0044 1A46     		mov	r2, r3
  78 0046 FB68     		ldr	r3, [r7, #12]
  79 0048 DA60     		str	r2, [r3, #12]
  14:Src/uartmessagebuffer.c **** 	messageBuffer->txMessageBufferReadHead = 0;
  80              		.loc 1 14 0
  81 004a FB68     		ldr	r3, [r7, #12]
  82 004c 0022     		movs	r2, #0
  83 004e 5A74     		strb	r2, [r3, #17]
  15:Src/uartmessagebuffer.c **** 	messageBuffer->txMessageBufferWriteHead = 0;
  84              		.loc 1 15 0
  85 0050 FB68     		ldr	r3, [r7, #12]
  86 0052 0022     		movs	r2, #0
  87 0054 9A74     		strb	r2, [r3, #18]
  16:Src/uartmessagebuffer.c **** 	messageBuffer->uarthandle = uartHandle;
  88              		.loc 1 16 0
  89 0056 FB68     		ldr	r3, [r7, #12]
  90 0058 3A68     		ldr	r2, [r7]
  91 005a 1A60     		str	r2, [r3]
  17:Src/uartmessagebuffer.c **** 
  18:Src/uartmessagebuffer.c **** 	return messageBuffer;
  92              		.loc 1 18 0
  93 005c FB68     		ldr	r3, [r7, #12]
  19:Src/uartmessagebuffer.c **** }
  94              		.loc 1 19 0
  95 005e 1846     		mov	r0, r3
  96 0060 1037     		adds	r7, r7, #16
ARM GAS  /tmp/cc95nRf8.s 			page 3


  97              	.LCFI3:
  98              		.cfi_def_cfa_offset 8
  99 0062 BD46     		mov	sp, r7
 100              	.LCFI4:
 101              		.cfi_def_cfa_register 13
 102              		@ sp needed
 103 0064 80BD     		pop	{r7, pc}
 104              		.cfi_endproc
 105              	.LFE112:
 107 0066 00BF     		.section	.text.uartmessageBuffer_destroy,"ax",%progbits
 108              		.align	2
 109              		.global	uartmessageBuffer_destroy
 110              		.thumb
 111              		.thumb_func
 113              	uartmessageBuffer_destroy:
 114              	.LFB113:
  20:Src/uartmessagebuffer.c **** 
  21:Src/uartmessagebuffer.c **** void uartmessageBuffer_destroy(UartMessageBuffer *messageBuffer){
 115              		.loc 1 21 0
 116              		.cfi_startproc
 117              		@ args = 0, pretend = 0, frame = 8
 118              		@ frame_needed = 1, uses_anonymous_args = 0
 119 0000 80B5     		push	{r7, lr}
 120              	.LCFI5:
 121              		.cfi_def_cfa_offset 8
 122              		.cfi_offset 7, -8
 123              		.cfi_offset 14, -4
 124 0002 82B0     		sub	sp, sp, #8
 125              	.LCFI6:
 126              		.cfi_def_cfa_offset 16
 127 0004 00AF     		add	r7, sp, #0
 128              	.LCFI7:
 129              		.cfi_def_cfa_register 7
 130 0006 7860     		str	r0, [r7, #4]
  22:Src/uartmessagebuffer.c **** 	free(messageBuffer->txBuffer);
 131              		.loc 1 22 0
 132 0008 7B68     		ldr	r3, [r7, #4]
 133 000a 5B68     		ldr	r3, [r3, #4]
 134 000c 1846     		mov	r0, r3
 135 000e FFF7FEFF 		bl	free
  23:Src/uartmessagebuffer.c **** 	free(messageBuffer->txMessageBuffer);
 136              		.loc 1 23 0
 137 0012 7B68     		ldr	r3, [r7, #4]
 138 0014 DB68     		ldr	r3, [r3, #12]
 139 0016 1846     		mov	r0, r3
 140 0018 FFF7FEFF 		bl	free
  24:Src/uartmessagebuffer.c **** 	/*
  25:Src/uartmessagebuffer.c **** 	 * TODO: verbleibende nachrichten löschen
  26:Src/uartmessagebuffer.c **** 	 */
  27:Src/uartmessagebuffer.c **** 	free(messageBuffer);
 141              		.loc 1 27 0
 142 001c 7868     		ldr	r0, [r7, #4]
 143 001e FFF7FEFF 		bl	free
  28:Src/uartmessagebuffer.c **** }
 144              		.loc 1 28 0
 145 0022 00BF     		nop
 146 0024 0837     		adds	r7, r7, #8
ARM GAS  /tmp/cc95nRf8.s 			page 4


 147              	.LCFI8:
 148              		.cfi_def_cfa_offset 8
 149 0026 BD46     		mov	sp, r7
 150              	.LCFI9:
 151              		.cfi_def_cfa_register 13
 152              		@ sp needed
 153 0028 80BD     		pop	{r7, pc}
 154              		.cfi_endproc
 155              	.LFE113:
 157 002a 00BF     		.section	.text.uartmessagebuffer_createmessage,"ax",%progbits
 158              		.align	2
 159              		.global	uartmessagebuffer_createmessage
 160              		.thumb
 161              		.thumb_func
 163              	uartmessagebuffer_createmessage:
 164              	.LFB114:
  29:Src/uartmessagebuffer.c **** 
  30:Src/uartmessagebuffer.c **** void uartmessagebuffer_createmessage (UartMessageBuffer *messageBuffer, uint8_t size, uint8_t* data
 165              		.loc 1 30 0
 166              		.cfi_startproc
 167              		@ args = 0, pretend = 0, frame = 24
 168              		@ frame_needed = 1, uses_anonymous_args = 0
 169 0000 80B5     		push	{r7, lr}
 170              	.LCFI10:
 171              		.cfi_def_cfa_offset 8
 172              		.cfi_offset 7, -8
 173              		.cfi_offset 14, -4
 174 0002 86B0     		sub	sp, sp, #24
 175              	.LCFI11:
 176              		.cfi_def_cfa_offset 32
 177 0004 00AF     		add	r7, sp, #0
 178              	.LCFI12:
 179              		.cfi_def_cfa_register 7
 180 0006 F860     		str	r0, [r7, #12]
 181 0008 0B46     		mov	r3, r1
 182 000a 7A60     		str	r2, [r7, #4]
 183 000c FB72     		strb	r3, [r7, #11]
  31:Src/uartmessagebuffer.c **** 	uartmessage* msg = malloc(sizeof(uartmessage));
 184              		.loc 1 31 0
 185 000e 0820     		movs	r0, #8
 186 0010 FFF7FEFF 		bl	malloc
 187 0014 0346     		mov	r3, r0
 188 0016 7B61     		str	r3, [r7, #20]
  32:Src/uartmessagebuffer.c **** 	msg->data = data;
 189              		.loc 1 32 0
 190 0018 7B69     		ldr	r3, [r7, #20]
 191 001a 7A68     		ldr	r2, [r7, #4]
 192 001c 1A60     		str	r2, [r3]
  33:Src/uartmessagebuffer.c **** 	msg->size = size;
 193              		.loc 1 33 0
 194 001e 7B69     		ldr	r3, [r7, #20]
 195 0020 FA7A     		ldrb	r2, [r7, #11]
 196 0022 1A71     		strb	r2, [r3, #4]
  34:Src/uartmessagebuffer.c **** 
  35:Src/uartmessagebuffer.c **** 	messageBuffer->txMessageBuffer[messageBuffer->txMessageBufferWriteHead] = msg;
 197              		.loc 1 35 0
 198 0024 FB68     		ldr	r3, [r7, #12]
ARM GAS  /tmp/cc95nRf8.s 			page 5


 199 0026 DA68     		ldr	r2, [r3, #12]
 200 0028 FB68     		ldr	r3, [r7, #12]
 201 002a 9B7C     		ldrb	r3, [r3, #18]	@ zero_extendqisi2
 202 002c 9B00     		lsls	r3, r3, #2
 203 002e 1344     		add	r3, r3, r2
 204 0030 7A69     		ldr	r2, [r7, #20]
 205 0032 1A60     		str	r2, [r3]
  36:Src/uartmessagebuffer.c **** 	messageBuffer->txMessageBufferWriteHead = (messageBuffer->txMessageBufferWriteHead+1) % messageBuf
 206              		.loc 1 36 0
 207 0034 FB68     		ldr	r3, [r7, #12]
 208 0036 9B7C     		ldrb	r3, [r3, #18]	@ zero_extendqisi2
 209 0038 0133     		adds	r3, r3, #1
 210 003a FA68     		ldr	r2, [r7, #12]
 211 003c 127C     		ldrb	r2, [r2, #16]	@ zero_extendqisi2
 212 003e 93FBF2F1 		sdiv	r1, r3, r2
 213 0042 02FB01F2 		mul	r2, r2, r1
 214 0046 9B1A     		subs	r3, r3, r2
 215 0048 DAB2     		uxtb	r2, r3
 216 004a FB68     		ldr	r3, [r7, #12]
 217 004c 9A74     		strb	r2, [r3, #18]
  37:Src/uartmessagebuffer.c **** 	uartmessagebuffer_sendNextMessage(messageBuffer);
 218              		.loc 1 37 0
 219 004e F868     		ldr	r0, [r7, #12]
 220 0050 FFF7FEFF 		bl	uartmessagebuffer_sendNextMessage
  38:Src/uartmessagebuffer.c **** }
 221              		.loc 1 38 0
 222 0054 00BF     		nop
 223 0056 1837     		adds	r7, r7, #24
 224              	.LCFI13:
 225              		.cfi_def_cfa_offset 8
 226 0058 BD46     		mov	sp, r7
 227              	.LCFI14:
 228              		.cfi_def_cfa_register 13
 229              		@ sp needed
 230 005a 80BD     		pop	{r7, pc}
 231              		.cfi_endproc
 232              	.LFE114:
 234              		.section	.text.uartmessagebuffer_sendNextMessage,"ax",%progbits
 235              		.align	2
 236              		.global	uartmessagebuffer_sendNextMessage
 237              		.thumb
 238              		.thumb_func
 240              	uartmessagebuffer_sendNextMessage:
 241              	.LFB115:
  39:Src/uartmessagebuffer.c **** 
  40:Src/uartmessagebuffer.c **** void uartmessagebuffer_sendNextMessage(UartMessageBuffer *messageBuffer){
 242              		.loc 1 40 0
 243              		.cfi_startproc
 244              		@ args = 0, pretend = 0, frame = 16
 245              		@ frame_needed = 1, uses_anonymous_args = 0
 246 0000 80B5     		push	{r7, lr}
 247              	.LCFI15:
 248              		.cfi_def_cfa_offset 8
 249              		.cfi_offset 7, -8
 250              		.cfi_offset 14, -4
 251 0002 84B0     		sub	sp, sp, #16
 252              	.LCFI16:
ARM GAS  /tmp/cc95nRf8.s 			page 6


 253              		.cfi_def_cfa_offset 24
 254 0004 00AF     		add	r7, sp, #0
 255              	.LCFI17:
 256              		.cfi_def_cfa_register 7
 257 0006 7860     		str	r0, [r7, #4]
  41:Src/uartmessagebuffer.c **** 	//check if buffer is empty
  42:Src/uartmessagebuffer.c **** 	if(messageBuffer->txMessageBufferReadHead == messageBuffer->txMessageBufferWriteHead){
 258              		.loc 1 42 0
 259 0008 7B68     		ldr	r3, [r7, #4]
 260 000a 5A7C     		ldrb	r2, [r3, #17]	@ zero_extendqisi2
 261 000c 7B68     		ldr	r3, [r7, #4]
 262 000e 9B7C     		ldrb	r3, [r3, #18]	@ zero_extendqisi2
 263 0010 9A42     		cmp	r2, r3
 264 0012 42D0     		beq	.L10
  43:Src/uartmessagebuffer.c **** 		return;
  44:Src/uartmessagebuffer.c **** 	}
  45:Src/uartmessagebuffer.c **** 
  46:Src/uartmessagebuffer.c **** 	// check if uart is ready
  47:Src/uartmessagebuffer.c **** 	if(HAL_UART_GetState(messageBuffer->uarthandle) != HAL_UART_STATE_READY){
 265              		.loc 1 47 0
 266 0014 7B68     		ldr	r3, [r7, #4]
 267 0016 1B68     		ldr	r3, [r3]
 268 0018 1846     		mov	r0, r3
 269 001a FFF7FEFF 		bl	HAL_UART_GetState
 270 001e 0346     		mov	r3, r0
 271 0020 012B     		cmp	r3, #1
 272 0022 3CD1     		bne	.L11
  48:Src/uartmessagebuffer.c **** 		return;
  49:Src/uartmessagebuffer.c **** 	}
  50:Src/uartmessagebuffer.c **** 
  51:Src/uartmessagebuffer.c **** 	//send message
  52:Src/uartmessagebuffer.c **** 	uartmessage *msg = messageBuffer->txMessageBuffer[messageBuffer->txMessageBufferReadHead];
 273              		.loc 1 52 0
 274 0024 7B68     		ldr	r3, [r7, #4]
 275 0026 DA68     		ldr	r2, [r3, #12]
 276 0028 7B68     		ldr	r3, [r7, #4]
 277 002a 5B7C     		ldrb	r3, [r3, #17]	@ zero_extendqisi2
 278 002c 9B00     		lsls	r3, r3, #2
 279 002e 1344     		add	r3, r3, r2
 280 0030 1B68     		ldr	r3, [r3]
 281 0032 FB60     		str	r3, [r7, #12]
  53:Src/uartmessagebuffer.c **** 	if(msg->size > messageBuffer->txBufferSize) msg->size = messageBuffer->txBufferSize;
 282              		.loc 1 53 0
 283 0034 FB68     		ldr	r3, [r7, #12]
 284 0036 1A79     		ldrb	r2, [r3, #4]	@ zero_extendqisi2
 285 0038 7B68     		ldr	r3, [r7, #4]
 286 003a 1B7A     		ldrb	r3, [r3, #8]	@ zero_extendqisi2
 287 003c 9A42     		cmp	r2, r3
 288 003e 03D9     		bls	.L9
 289              		.loc 1 53 0 is_stmt 0 discriminator 1
 290 0040 7B68     		ldr	r3, [r7, #4]
 291 0042 1A7A     		ldrb	r2, [r3, #8]	@ zero_extendqisi2
 292 0044 FB68     		ldr	r3, [r7, #12]
 293 0046 1A71     		strb	r2, [r3, #4]
 294              	.L9:
  54:Src/uartmessagebuffer.c **** 	memcpy(messageBuffer->txBuffer, msg->data, msg->size);
 295              		.loc 1 54 0 is_stmt 1
ARM GAS  /tmp/cc95nRf8.s 			page 7


 296 0048 7B68     		ldr	r3, [r7, #4]
 297 004a 5868     		ldr	r0, [r3, #4]
 298 004c FB68     		ldr	r3, [r7, #12]
 299 004e 1968     		ldr	r1, [r3]
 300 0050 FB68     		ldr	r3, [r7, #12]
 301 0052 1B79     		ldrb	r3, [r3, #4]	@ zero_extendqisi2
 302 0054 1A46     		mov	r2, r3
 303 0056 FFF7FEFF 		bl	memcpy
  55:Src/uartmessagebuffer.c ****   HAL_UART_Transmit_IT(messageBuffer->uarthandle, messageBuffer->txBuffer, msg->size);
 304              		.loc 1 55 0
 305 005a 7B68     		ldr	r3, [r7, #4]
 306 005c 1868     		ldr	r0, [r3]
 307 005e 7B68     		ldr	r3, [r7, #4]
 308 0060 5968     		ldr	r1, [r3, #4]
 309 0062 FB68     		ldr	r3, [r7, #12]
 310 0064 1B79     		ldrb	r3, [r3, #4]	@ zero_extendqisi2
 311 0066 9BB2     		uxth	r3, r3
 312 0068 1A46     		mov	r2, r3
 313 006a FFF7FEFF 		bl	HAL_UART_Transmit_IT
  56:Src/uartmessagebuffer.c **** 
  57:Src/uartmessagebuffer.c ****   messageBuffer->txMessageBufferReadHead = (messageBuffer->txMessageBufferReadHead+1) % messageBuff
 314              		.loc 1 57 0
 315 006e 7B68     		ldr	r3, [r7, #4]
 316 0070 5B7C     		ldrb	r3, [r3, #17]	@ zero_extendqisi2
 317 0072 0133     		adds	r3, r3, #1
 318 0074 7A68     		ldr	r2, [r7, #4]
 319 0076 127C     		ldrb	r2, [r2, #16]	@ zero_extendqisi2
 320 0078 93FBF2F1 		sdiv	r1, r3, r2
 321 007c 02FB01F2 		mul	r2, r2, r1
 322 0080 9B1A     		subs	r3, r3, r2
 323 0082 DAB2     		uxtb	r2, r3
 324 0084 7B68     		ldr	r3, [r7, #4]
 325 0086 5A74     		strb	r2, [r3, #17]
  58:Src/uartmessagebuffer.c **** 
  59:Src/uartmessagebuffer.c **** 
  60:Src/uartmessagebuffer.c **** 	//destroy message
  61:Src/uartmessagebuffer.c **** 	free(msg->data);
 326              		.loc 1 61 0
 327 0088 FB68     		ldr	r3, [r7, #12]
 328 008a 1B68     		ldr	r3, [r3]
 329 008c 1846     		mov	r0, r3
 330 008e FFF7FEFF 		bl	free
  62:Src/uartmessagebuffer.c **** 	free(msg);
 331              		.loc 1 62 0
 332 0092 F868     		ldr	r0, [r7, #12]
 333 0094 FFF7FEFF 		bl	free
 334 0098 02E0     		b	.L5
 335              	.L10:
  43:Src/uartmessagebuffer.c **** 	}
 336              		.loc 1 43 0
 337 009a 00BF     		nop
 338 009c 00E0     		b	.L5
 339              	.L11:
  48:Src/uartmessagebuffer.c **** 	}
 340              		.loc 1 48 0
 341 009e 00BF     		nop
 342              	.L5:
ARM GAS  /tmp/cc95nRf8.s 			page 8


  63:Src/uartmessagebuffer.c **** 
  64:Src/uartmessagebuffer.c **** }
 343              		.loc 1 64 0
 344 00a0 1037     		adds	r7, r7, #16
 345              	.LCFI18:
 346              		.cfi_def_cfa_offset 8
 347 00a2 BD46     		mov	sp, r7
 348              	.LCFI19:
 349              		.cfi_def_cfa_register 13
 350              		@ sp needed
 351 00a4 80BD     		pop	{r7, pc}
 352              		.cfi_endproc
 353              	.LFE115:
 355 00a6 00BF     		.section	.text.uartmessagebuffer_onTxComplete,"ax",%progbits
 356              		.align	2
 357              		.global	uartmessagebuffer_onTxComplete
 358              		.thumb
 359              		.thumb_func
 361              	uartmessagebuffer_onTxComplete:
 362              	.LFB116:
  65:Src/uartmessagebuffer.c **** 
  66:Src/uartmessagebuffer.c **** 
  67:Src/uartmessagebuffer.c **** 
  68:Src/uartmessagebuffer.c **** 
  69:Src/uartmessagebuffer.c **** void uartmessagebuffer_onTxComplete(UartMessageBuffer *messageBuffer){
 363              		.loc 1 69 0
 364              		.cfi_startproc
 365              		@ args = 0, pretend = 0, frame = 8
 366              		@ frame_needed = 1, uses_anonymous_args = 0
 367 0000 80B5     		push	{r7, lr}
 368              	.LCFI20:
 369              		.cfi_def_cfa_offset 8
 370              		.cfi_offset 7, -8
 371              		.cfi_offset 14, -4
 372 0002 82B0     		sub	sp, sp, #8
 373              	.LCFI21:
 374              		.cfi_def_cfa_offset 16
 375 0004 00AF     		add	r7, sp, #0
 376              	.LCFI22:
 377              		.cfi_def_cfa_register 7
 378 0006 7860     		str	r0, [r7, #4]
  70:Src/uartmessagebuffer.c **** 	uartmessagebuffer_sendNextMessage(messageBuffer);
 379              		.loc 1 70 0
 380 0008 7868     		ldr	r0, [r7, #4]
 381 000a FFF7FEFF 		bl	uartmessagebuffer_sendNextMessage
  71:Src/uartmessagebuffer.c **** }
 382              		.loc 1 71 0
 383 000e 00BF     		nop
 384 0010 0837     		adds	r7, r7, #8
 385              	.LCFI23:
 386              		.cfi_def_cfa_offset 8
 387 0012 BD46     		mov	sp, r7
 388              	.LCFI24:
 389              		.cfi_def_cfa_register 13
 390              		@ sp needed
 391 0014 80BD     		pop	{r7, pc}
 392              		.cfi_endproc
ARM GAS  /tmp/cc95nRf8.s 			page 9


 393              	.LFE116:
 395              		.text
 396              	.Letext0:
 397              		.file 2 "/usr/arm-none-eabi/include/machine/_default_types.h"
 398              		.file 3 "/usr/arm-none-eabi/include/sys/_stdint.h"
 399              		.file 4 "Drivers/CMSIS/Device/ST/STM32F3xx/Include/stm32f303xc.h"
 400              		.file 5 "Drivers/STM32F3xx_HAL_Driver/Inc/stm32f3xx_hal_def.h"
 401              		.file 6 "Drivers/STM32F3xx_HAL_Driver/Inc/stm32f3xx_hal_dma.h"
 402              		.file 7 "Drivers/STM32F3xx_HAL_Driver/Inc/stm32f3xx_hal_uart.h"
 403              		.file 8 "Inc/uartmessagebuffer.h"
 404              		.file 9 "Drivers/CMSIS/Include/core_cm4.h"
ARM GAS  /tmp/cc95nRf8.s 			page 10

